SF:/Users/kentishi/rust_webapi/crates/domain/src/model/item.rs
FN:15,_RNvNtNtNtCsaDmO1IsOFPn_6domain5model4item5testss_18test_item_creation
FN:28,_RNvNtNtNtCsaDmO1IsOFPn_6domain5model4item5testss_29test_item_without_description
FNDA:1,_RNvNtNtNtCsaDmO1IsOFPn_6domain5model4item5testss_18test_item_creation
FNDA:1,_RNvNtNtNtCsaDmO1IsOFPn_6domain5model4item5testss_29test_item_without_description
FNF:2
FNH:2
DA:15,1
DA:16,1
DA:17,1
DA:18,1
DA:19,1
DA:20,1
DA:21,1
DA:22,1
DA:23,1
DA:24,1
DA:25,1
DA:28,1
DA:29,1
DA:30,1
DA:31,1
DA:32,1
DA:33,1
DA:34,1
DA:35,1
DA:36,1
DA:37,1
DA:38,1
BRF:0
BRH:0
LF:22
LH:22
end_of_record
SF:/Users/kentishi/rust_webapi/crates/domain/src/model/user.rs
FN:15,_RNvNtNtNtCsaDmO1IsOFPn_6domain5model4user5testss_18test_user_creation
FN:28,_RNvNtNtNtCsaDmO1IsOFPn_6domain5model4user5testss_18test_user_equality
FNDA:1,_RNvNtNtNtCsaDmO1IsOFPn_6domain5model4user5testss_18test_user_creation
FNDA:1,_RNvNtNtNtCsaDmO1IsOFPn_6domain5model4user5testss_18test_user_equality
FNF:2
FNH:2
DA:15,1
DA:16,1
DA:17,1
DA:18,1
DA:19,1
DA:20,1
DA:21,1
DA:22,1
DA:23,1
DA:24,1
DA:25,1
DA:28,1
DA:29,1
DA:30,1
DA:31,1
DA:32,1
DA:33,1
DA:34,1
DA:35,1
DA:36,1
DA:37,1
DA:38,1
DA:39,1
DA:40,1
DA:41,1
DA:42,1
DA:43,1
DA:44,1
DA:45,1
DA:46,1
DA:47,1
DA:48,1
DA:49,1
BRF:0
BRH:0
LF:33
LH:33
end_of_record
SF:/Users/kentishi/rust_webapi/crates/domain/src/repository/item_repository.rs
FN:22,_RINvMs4_NtNtNtNtCsaDmO1IsOFPn_6domain10repository15item_repository34___mock_MockItemRepo_ItemRepository10___find_allNtB6_6Common5timespEBe_
FN:22,_RINvMs4_NtNtNtNtCsaDmO1IsOFPn_6domain10repository15item_repository34___mock_MockItemRepo_ItemRepository10___find_allNtB6_6Common5withfpEBe_
FN:22,_RINvMs4_NtNtNtNtCsaDmO1IsOFPn_6domain10repository15item_repository34___mock_MockItemRepo_ItemRepository10___find_allNtB6_6Common8withf_stpEBe_
FN:22,_RINvMs4_NtNtNtNtCsaDmO1IsOFPn_6domain10repository15item_repository34___mock_MockItemRepo_ItemRepository12___find_by_idNtB6_6Common5timespEBe_
FN:22,_RINvMs4_NtNtNtNtCsaDmO1IsOFPn_6domain10repository15item_repository34___mock_MockItemRepo_ItemRepository12___find_by_idNtB6_6Common5withfpEBe_
FN:22,_RINvMs4_NtNtNtNtCsaDmO1IsOFPn_6domain10repository15item_repository34___mock_MockItemRepo_ItemRepository12___find_by_idNtB6_6Common8withf_stpEBe_
FN:22,_RINvMs4_NtNtNtNtCsaDmO1IsOFPn_6domain10repository15item_repository34___mock_MockItemRepo_ItemRepository8___createNtB6_6Common5timespEBe_
FN:22,_RINvMs4_NtNtNtNtCsaDmO1IsOFPn_6domain10repository15item_repository34___mock_MockItemRepo_ItemRepository8___createNtB6_6Common5withfpEBe_
FN:22,_RINvMs4_NtNtNtNtCsaDmO1IsOFPn_6domain10repository15item_repository34___mock_MockItemRepo_ItemRepository8___createNtB6_6Common8withf_stpEBe_
FN:22,_RINvMs4_NtNtNtNtCsaDmO1IsOFPn_6domain10repository15item_repository34___mock_MockItemRepo_ItemRepository8___deleteNtB6_6Common5timespEBe_
FN:22,_RINvMs4_NtNtNtNtCsaDmO1IsOFPn_6domain10repository15item_repository34___mock_MockItemRepo_ItemRepository8___deleteNtB6_6Common5withfpEBe_
FN:22,_RINvMs4_NtNtNtNtCsaDmO1IsOFPn_6domain10repository15item_repository34___mock_MockItemRepo_ItemRepository8___deleteNtB6_6Common8withf_stpEBe_
FN:22,_RINvMs4_NtNtNtNtCsaDmO1IsOFPn_6domain10repository15item_repository34___mock_MockItemRepo_ItemRepository8___updateNtB6_6Common5timespEBe_
FN:22,_RINvMs4_NtNtNtNtCsaDmO1IsOFPn_6domain10repository15item_repository34___mock_MockItemRepo_ItemRepository8___updateNtB6_6Common5withfpEBe_
FN:22,_RINvMs4_NtNtNtNtCsaDmO1IsOFPn_6domain10repository15item_repository34___mock_MockItemRepo_ItemRepository8___updateNtB6_6Common8withf_stpEBe_
FN:32,_RINvMs6_NtNtNtNtCsaDmO1IsOFPn_6domain10repository15item_repository34___mock_MockItemRepo_ItemRepository10___find_allNtB6_11Expectation12return_constpEBe_
FN:22,_RINvMs6_NtNtNtNtCsaDmO1IsOFPn_6domain10repository15item_repository34___mock_MockItemRepo_ItemRepository10___find_allNtB6_11Expectation12returning_stpEBe_
FN:22,_RINvMs6_NtNtNtNtCsaDmO1IsOFPn_6domain10repository15item_repository34___mock_MockItemRepo_ItemRepository10___find_allNtB6_11Expectation14return_once_stpEBe_
FN:32,_RINvMs6_NtNtNtNtCsaDmO1IsOFPn_6domain10repository15item_repository34___mock_MockItemRepo_ItemRepository10___find_allNtB6_11Expectation15return_const_stpEBe_
FN:22,_RINvMs6_NtNtNtNtCsaDmO1IsOFPn_6domain10repository15item_repository34___mock_MockItemRepo_ItemRepository10___find_allNtB6_11Expectation5timespEBe_
FN:22,_RINvMs6_NtNtNtNtCsaDmO1IsOFPn_6domain10repository15item_repository34___mock_MockItemRepo_ItemRepository10___find_allNtB6_11Expectation5withfpEBe_
FN:22,_RINvMs6_NtNtNtNtCsaDmO1IsOFPn_6domain10repository15item_repository34___mock_MockItemRepo_ItemRepository10___find_allNtB6_11Expectation8withf_stpEBe_
FN:22,_RINvMs6_NtNtNtNtCsaDmO1IsOFPn_6domain10repository15item_repository34___mock_MockItemRepo_ItemRepository10___find_allNtB6_11Expectation9returningpEBe_
FN:32,_RINvMs6_NtNtNtNtCsaDmO1IsOFPn_6domain10repository15item_repository34___mock_MockItemRepo_ItemRepository12___find_by_idNtB6_11Expectation12return_constpEBe_
FN:22,_RINvMs6_NtNtNtNtCsaDmO1IsOFPn_6domain10repository15item_repository34___mock_MockItemRepo_ItemRepository12___find_by_idNtB6_11Expectation12returning_stpEBe_
FN:22,_RINvMs6_NtNtNtNtCsaDmO1IsOFPn_6domain10repository15item_repository34___mock_MockItemRepo_ItemRepository12___find_by_idNtB6_11Expectation14return_once_stpEBe_
FN:32,_RINvMs6_NtNtNtNtCsaDmO1IsOFPn_6domain10repository15item_repository34___mock_MockItemRepo_ItemRepository12___find_by_idNtB6_11Expectation15return_const_stpEBe_
FN:22,_RINvMs6_NtNtNtNtCsaDmO1IsOFPn_6domain10repository15item_repository34___mock_MockItemRepo_ItemRepository12___find_by_idNtB6_11Expectation5timespEBe_
FN:22,_RINvMs6_NtNtNtNtCsaDmO1IsOFPn_6domain10repository15item_repository34___mock_MockItemRepo_ItemRepository12___find_by_idNtB6_11Expectation5withfpEBe_
FN:22,_RINvMs6_NtNtNtNtCsaDmO1IsOFPn_6domain10repository15item_repository34___mock_MockItemRepo_ItemRepository12___find_by_idNtB6_11Expectation8withf_stpEBe_
FN:22,_RINvMs6_NtNtNtNtCsaDmO1IsOFPn_6domain10repository15item_repository34___mock_MockItemRepo_ItemRepository12___find_by_idNtB6_11Expectation9returningpEBe_
FN:32,_RINvMs6_NtNtNtNtCsaDmO1IsOFPn_6domain10repository15item_repository34___mock_MockItemRepo_ItemRepository8___createNtB6_11Expectation12return_constpEBe_
FN:22,_RINvMs6_NtNtNtNtCsaDmO1IsOFPn_6domain10repository15item_repository34___mock_MockItemRepo_ItemRepository8___createNtB6_11Expectation12returning_stpEBe_
FN:22,_RINvMs6_NtNtNtNtCsaDmO1IsOFPn_6domain10repository15item_repository34___mock_MockItemRepo_ItemRepository8___createNtB6_11Expectation14return_once_stpEBe_
FN:32,_RINvMs6_NtNtNtNtCsaDmO1IsOFPn_6domain10repository15item_repository34___mock_MockItemRepo_ItemRepository8___createNtB6_11Expectation15return_const_stpEBe_
FN:22,_RINvMs6_NtNtNtNtCsaDmO1IsOFPn_6domain10repository15item_repository34___mock_MockItemRepo_ItemRepository8___createNtB6_11Expectation5timespEBe_
FN:22,_RINvMs6_NtNtNtNtCsaDmO1IsOFPn_6domain10repository15item_repository34___mock_MockItemRepo_ItemRepository8___createNtB6_11Expectation5withfpEBe_
FN:22,_RINvMs6_NtNtNtNtCsaDmO1IsOFPn_6domain10repository15item_repository34___mock_MockItemRepo_ItemRepository8___createNtB6_11Expectation8withf_stpEBe_
FN:22,_RINvMs6_NtNtNtNtCsaDmO1IsOFPn_6domain10repository15item_repository34___mock_MockItemRepo_ItemRepository8___createNtB6_11Expectation9returningpEBe_
FN:32,_RINvMs6_NtNtNtNtCsaDmO1IsOFPn_6domain10repository15item_repository34___mock_MockItemRepo_ItemRepository8___deleteNtB6_11Expectation12return_constpEBe_
FN:22,_RINvMs6_NtNtNtNtCsaDmO1IsOFPn_6domain10repository15item_repository34___mock_MockItemRepo_ItemRepository8___deleteNtB6_11Expectation12returning_stpEBe_
FN:22,_RINvMs6_NtNtNtNtCsaDmO1IsOFPn_6domain10repository15item_repository34___mock_MockItemRepo_ItemRepository8___deleteNtB6_11Expectation14return_once_stpEBe_
FN:32,_RINvMs6_NtNtNtNtCsaDmO1IsOFPn_6domain10repository15item_repository34___mock_MockItemRepo_ItemRepository8___deleteNtB6_11Expectation15return_const_stpEBe_
FN:22,_RINvMs6_NtNtNtNtCsaDmO1IsOFPn_6domain10repository15item_repository34___mock_MockItemRepo_ItemRepository8___deleteNtB6_11Expectation5timespEBe_
FN:22,_RINvMs6_NtNtNtNtCsaDmO1IsOFPn_6domain10repository15item_repository34___mock_MockItemRepo_ItemRepository8___deleteNtB6_11Expectation5withfpEBe_
FN:22,_RINvMs6_NtNtNtNtCsaDmO1IsOFPn_6domain10repository15item_repository34___mock_MockItemRepo_ItemRepository8___deleteNtB6_11Expectation8withf_stpEBe_
FN:22,_RINvMs6_NtNtNtNtCsaDmO1IsOFPn_6domain10repository15item_repository34___mock_MockItemRepo_ItemRepository8___deleteNtB6_11Expectation9returningpEBe_
FN:32,_RINvMs6_NtNtNtNtCsaDmO1IsOFPn_6domain10repository15item_repository34___mock_MockItemRepo_ItemRepository8___updateNtB6_11Expectation12return_constpEBe_
FN:22,_RINvMs6_NtNtNtNtCsaDmO1IsOFPn_6domain10repository15item_repository34___mock_MockItemRepo_ItemRepository8___updateNtB6_11Expectation12returning_stpEBe_
FN:22,_RINvMs6_NtNtNtNtCsaDmO1IsOFPn_6domain10repository15item_repository34___mock_MockItemRepo_ItemRepository8___updateNtB6_11Expectation14return_once_stpEBe_
FN:32,_RINvMs6_NtNtNtNtCsaDmO1IsOFPn_6domain10repository15item_repository34___mock_MockItemRepo_ItemRepository8___updateNtB6_11Expectation15return_const_stpEBe_
FN:22,_RINvMs6_NtNtNtNtCsaDmO1IsOFPn_6domain10repository15item_repository34___mock_MockItemRepo_ItemRepository8___updateNtB6_11Expectation5timespEBe_
FN:22,_RINvMs6_NtNtNtNtCsaDmO1IsOFPn_6domain10repository15item_repository34___mock_MockItemRepo_ItemRepository8___updateNtB6_11Expectation5withfpEBe_
FN:22,_RINvMs6_NtNtNtNtCsaDmO1IsOFPn_6domain10repository15item_repository34___mock_MockItemRepo_ItemRepository8___updateNtB6_11Expectation8withf_stpEBe_
FN:22,_RINvMs6_NtNtNtNtCsaDmO1IsOFPn_6domain10repository15item_repository34___mock_MockItemRepo_ItemRepository8___updateNtB6_11Expectation9returningpEBe_
FN:22,_RNCINvMs6_NtNtNtNtCsaDmO1IsOFPn_6domain10repository15item_repository34___mock_MockItemRepo_ItemRepository10___find_allNtB8_11Expectation12return_constpE0Bg_
FN:22,_RNCINvMs6_NtNtNtNtCsaDmO1IsOFPn_6domain10repository15item_repository34___mock_MockItemRepo_ItemRepository10___find_allNtB8_11Expectation15return_const_stpE0Bg_
FN:22,_RNCINvMs6_NtNtNtNtCsaDmO1IsOFPn_6domain10repository15item_repository34___mock_MockItemRepo_ItemRepository12___find_by_idNtB8_11Expectation12return_constpE0Bg_
FN:22,_RNCINvMs6_NtNtNtNtCsaDmO1IsOFPn_6domain10repository15item_repository34___mock_MockItemRepo_ItemRepository12___find_by_idNtB8_11Expectation15return_const_stpE0Bg_
FN:22,_RNCINvMs6_NtNtNtNtCsaDmO1IsOFPn_6domain10repository15item_repository34___mock_MockItemRepo_ItemRepository8___createNtB8_11Expectation12return_constpE0Bg_
FN:22,_RNCINvMs6_NtNtNtNtCsaDmO1IsOFPn_6domain10repository15item_repository34___mock_MockItemRepo_ItemRepository8___createNtB8_11Expectation15return_const_stpE0Bg_
FN:22,_RNCINvMs6_NtNtNtNtCsaDmO1IsOFPn_6domain10repository15item_repository34___mock_MockItemRepo_ItemRepository8___deleteNtB8_11Expectation12return_constpE0Bg_
FN:22,_RNCINvMs6_NtNtNtNtCsaDmO1IsOFPn_6domain10repository15item_repository34___mock_MockItemRepo_ItemRepository8___deleteNtB8_11Expectation15return_const_stpE0Bg_
FN:22,_RNCINvMs6_NtNtNtNtCsaDmO1IsOFPn_6domain10repository15item_repository34___mock_MockItemRepo_ItemRepository8___updateNtB8_11Expectation12return_constpE0Bg_
FN:22,_RNCINvMs6_NtNtNtNtCsaDmO1IsOFPn_6domain10repository15item_repository34___mock_MockItemRepo_ItemRepository8___updateNtB8_11Expectation15return_const_stpE0Bg_
FN:22,_RNvMs0_NtNtCsaDmO1IsOFPn_6domain10repository15item_repositoryNtB5_27MockItemRepo_ItemRepository10checkpoint
FN:22,_RNvMs1_NtNtCsaDmO1IsOFPn_6domain10repository15item_repositoryNtB5_12MockItemRepo10checkpoint
FN:32,_RNvMs4_NtNtNtNtCsaDmO1IsOFPn_6domain10repository15item_repository34___mock_MockItemRepo_ItemRepository10___find_allNtB5_6Common11in_sequence
FN:22,_RNvMs4_NtNtNtNtCsaDmO1IsOFPn_6domain10repository15item_repository34___mock_MockItemRepo_ItemRepository10___find_allNtB5_6Common4with
FN:22,_RNvMs4_NtNtNtNtCsaDmO1IsOFPn_6domain10repository15item_repository34___mock_MockItemRepo_ItemRepository10___find_allNtB5_6Common5never
FN:32,_RNvMs4_NtNtNtNtCsaDmO1IsOFPn_6domain10repository15item_repository34___mock_MockItemRepo_ItemRepository12___find_by_idNtB5_6Common11in_sequence
FN:22,_RNvMs4_NtNtNtNtCsaDmO1IsOFPn_6domain10repository15item_repository34___mock_MockItemRepo_ItemRepository12___find_by_idNtB5_6Common5never
FN:32,_RNvMs4_NtNtNtNtCsaDmO1IsOFPn_6domain10repository15item_repository34___mock_MockItemRepo_ItemRepository8___createNtB5_6Common11in_sequence
FN:22,_RNvMs4_NtNtNtNtCsaDmO1IsOFPn_6domain10repository15item_repository34___mock_MockItemRepo_ItemRepository8___createNtB5_6Common5never
FN:32,_RNvMs4_NtNtNtNtCsaDmO1IsOFPn_6domain10repository15item_repository34___mock_MockItemRepo_ItemRepository8___deleteNtB5_6Common11in_sequence
FN:22,_RNvMs4_NtNtNtNtCsaDmO1IsOFPn_6domain10repository15item_repository34___mock_MockItemRepo_ItemRepository8___deleteNtB5_6Common5never
FN:32,_RNvMs4_NtNtNtNtCsaDmO1IsOFPn_6domain10repository15item_repository34___mock_MockItemRepo_ItemRepository8___updateNtB5_6Common11in_sequence
FN:22,_RNvMs4_NtNtNtNtCsaDmO1IsOFPn_6domain10repository15item_repository34___mock_MockItemRepo_ItemRepository8___updateNtB5_6Common5never
FN:22,_RNvMs6_NtNtNtNtCsaDmO1IsOFPn_6domain10repository15item_repository34___mock_MockItemRepo_ItemRepository10___find_allNtB5_11Expectation11in_sequence
FN:22,_RNvMs6_NtNtNtNtCsaDmO1IsOFPn_6domain10repository15item_repository34___mock_MockItemRepo_ItemRepository10___find_allNtB5_11Expectation3new
FN:22,_RNvMs6_NtNtNtNtCsaDmO1IsOFPn_6domain10repository15item_repository34___mock_MockItemRepo_ItemRepository10___find_allNtB5_11Expectation4once
FN:22,_RNvMs6_NtNtNtNtCsaDmO1IsOFPn_6domain10repository15item_repository34___mock_MockItemRepo_ItemRepository10___find_allNtB5_11Expectation4with
FN:22,_RNvMs6_NtNtNtNtCsaDmO1IsOFPn_6domain10repository15item_repository34___mock_MockItemRepo_ItemRepository10___find_allNtB5_11Expectation5never
FN:22,_RNvMs6_NtNtNtNtCsaDmO1IsOFPn_6domain10repository15item_repository34___mock_MockItemRepo_ItemRepository12___find_by_idNtB5_11Expectation11in_sequence
FN:22,_RNvMs6_NtNtNtNtCsaDmO1IsOFPn_6domain10repository15item_repository34___mock_MockItemRepo_ItemRepository12___find_by_idNtB5_11Expectation3new
FN:22,_RNvMs6_NtNtNtNtCsaDmO1IsOFPn_6domain10repository15item_repository34___mock_MockItemRepo_ItemRepository12___find_by_idNtB5_11Expectation4once
FN:22,_RNvMs6_NtNtNtNtCsaDmO1IsOFPn_6domain10repository15item_repository34___mock_MockItemRepo_ItemRepository12___find_by_idNtB5_11Expectation5never
FN:22,_RNvMs6_NtNtNtNtCsaDmO1IsOFPn_6domain10repository15item_repository34___mock_MockItemRepo_ItemRepository8___createNtB5_11Expectation11in_sequence
FN:22,_RNvMs6_NtNtNtNtCsaDmO1IsOFPn_6domain10repository15item_repository34___mock_MockItemRepo_ItemRepository8___createNtB5_11Expectation3new
FN:22,_RNvMs6_NtNtNtNtCsaDmO1IsOFPn_6domain10repository15item_repository34___mock_MockItemRepo_ItemRepository8___createNtB5_11Expectation4once
FN:22,_RNvMs6_NtNtNtNtCsaDmO1IsOFPn_6domain10repository15item_repository34___mock_MockItemRepo_ItemRepository8___createNtB5_11Expectation5never
FN:22,_RNvMs6_NtNtNtNtCsaDmO1IsOFPn_6domain10repository15item_repository34___mock_MockItemRepo_ItemRepository8___deleteNtB5_11Expectation11in_sequence
FN:22,_RNvMs6_NtNtNtNtCsaDmO1IsOFPn_6domain10repository15item_repository34___mock_MockItemRepo_ItemRepository8___deleteNtB5_11Expectation3new
FN:22,_RNvMs6_NtNtNtNtCsaDmO1IsOFPn_6domain10repository15item_repository34___mock_MockItemRepo_ItemRepository8___deleteNtB5_11Expectation4once
FN:22,_RNvMs6_NtNtNtNtCsaDmO1IsOFPn_6domain10repository15item_repository34___mock_MockItemRepo_ItemRepository8___deleteNtB5_11Expectation5never
FN:22,_RNvMs6_NtNtNtNtCsaDmO1IsOFPn_6domain10repository15item_repository34___mock_MockItemRepo_ItemRepository8___updateNtB5_11Expectation11in_sequence
FN:22,_RNvMs6_NtNtNtNtCsaDmO1IsOFPn_6domain10repository15item_repository34___mock_MockItemRepo_ItemRepository8___updateNtB5_11Expectation3new
FN:22,_RNvMs6_NtNtNtNtCsaDmO1IsOFPn_6domain10repository15item_repository34___mock_MockItemRepo_ItemRepository8___updateNtB5_11Expectation4once
FN:22,_RNvMs6_NtNtNtNtCsaDmO1IsOFPn_6domain10repository15item_repository34___mock_MockItemRepo_ItemRepository8___updateNtB5_11Expectation5never
FN:22,_RNvMs8_NtNtNtNtCsaDmO1IsOFPn_6domain10repository15item_repository34___mock_MockItemRepo_ItemRepository10___find_allNtB5_12Expectations10checkpoint
FN:22,_RNvMs8_NtNtNtNtCsaDmO1IsOFPn_6domain10repository15item_repository34___mock_MockItemRepo_ItemRepository10___find_allNtB5_12Expectations3new
FN:22,_RNvMs8_NtNtNtNtCsaDmO1IsOFPn_6domain10repository15item_repository34___mock_MockItemRepo_ItemRepository12___find_by_idNtB5_12Expectations10checkpoint
FN:22,_RNvMs8_NtNtNtNtCsaDmO1IsOFPn_6domain10repository15item_repository34___mock_MockItemRepo_ItemRepository12___find_by_idNtB5_12Expectations3new
FN:22,_RNvMs8_NtNtNtNtCsaDmO1IsOFPn_6domain10repository15item_repository34___mock_MockItemRepo_ItemRepository8___createNtB5_12Expectations10checkpoint
FN:22,_RNvMs8_NtNtNtNtCsaDmO1IsOFPn_6domain10repository15item_repository34___mock_MockItemRepo_ItemRepository8___createNtB5_12Expectations3new
FN:22,_RNvMs8_NtNtNtNtCsaDmO1IsOFPn_6domain10repository15item_repository34___mock_MockItemRepo_ItemRepository8___deleteNtB5_12Expectations10checkpoint
FN:22,_RNvMs8_NtNtNtNtCsaDmO1IsOFPn_6domain10repository15item_repository34___mock_MockItemRepo_ItemRepository8___deleteNtB5_12Expectations3new
FN:22,_RNvMs8_NtNtNtNtCsaDmO1IsOFPn_6domain10repository15item_repository34___mock_MockItemRepo_ItemRepository8___updateNtB5_12Expectations10checkpoint
FN:22,_RNvMs8_NtNtNtNtCsaDmO1IsOFPn_6domain10repository15item_repository34___mock_MockItemRepo_ItemRepository8___updateNtB5_12Expectations3new
FN:22,_RINvMs4_NtNtNtNtCsaDmO1IsOFPn_6domain10repository15item_repository34___mock_MockItemRepo_ItemRepository8___deleteNtB6_6Common4withINtNtCs9l2CZqY40TY_10predicates3ord11EqPredicateyEEBe_
FN:22,_RINvMs6_NtNtNtNtCsaDmO1IsOFPn_6domain10repository15item_repository34___mock_MockItemRepo_ItemRepository8___deleteNtB6_11Expectation11return_onceNCNCNvNtBa_5testss_19test_delete_success00EBe_
FN:22,_RINvMs6_NtNtNtNtCsaDmO1IsOFPn_6domain10repository15item_repository34___mock_MockItemRepo_ItemRepository8___deleteNtB6_11Expectation4withINtNtCs9l2CZqY40TY_10predicates3ord11EqPredicateyEEBe_
FN:22,_RNCNvMs0_NtNtNtNtCsaDmO1IsOFPn_6domain10repository15item_repository34___mock_MockItemRepo_ItemRepository8___deleteNtB7_7Matcher7matches0Bf_
FN:32,_RNCNvMsa_NtNtNtNtCsaDmO1IsOFPn_6domain10repository15item_repository34___mock_MockItemRepo_ItemRepository8___deleteNtB7_12Expectations4call0Bf_
FN:22,_RNCNvMsa_NtNtNtNtCsaDmO1IsOFPn_6domain10repository15item_repository34___mock_MockItemRepo_ItemRepository8___deleteNtB7_12Expectations4calls_0Bf_
FN:22,_RINvMs6_NtNtNtNtCsaDmO1IsOFPn_6domain10repository15item_repository34___mock_MockItemRepo_ItemRepository10___find_allNtB6_11Expectation11return_onceNCNCNvNtBa_5testss_21test_find_all_success00EBe_
FN:22,_RNCNvMs0_NtNtNtNtCsaDmO1IsOFPn_6domain10repository15item_repository34___mock_MockItemRepo_ItemRepository10___find_allNtB7_7Matcher7matches0Bf_
FN:32,_RNCNvMsa_NtNtNtNtCsaDmO1IsOFPn_6domain10repository15item_repository34___mock_MockItemRepo_ItemRepository10___find_allNtB7_12Expectations4call0Bf_
FN:22,_RNCNvMsa_NtNtNtNtCsaDmO1IsOFPn_6domain10repository15item_repository34___mock_MockItemRepo_ItemRepository10___find_allNtB7_12Expectations4calls_0Bf_
FN:22,_RNvMs1_NtNtCsaDmO1IsOFPn_6domain10repository15item_repositoryNtB5_12MockItemRepo3new
FN:22,_RNvMs2_NtNtCsaDmO1IsOFPn_6domain10repository15item_repositoryNtB5_12MockItemRepo13expect_create
FN:22,_RNvMs2_NtNtCsaDmO1IsOFPn_6domain10repository15item_repositoryNtB5_12MockItemRepo13expect_delete
FN:22,_RNvMs2_NtNtCsaDmO1IsOFPn_6domain10repository15item_repositoryNtB5_12MockItemRepo13expect_update
FN:22,_RNvMs2_NtNtCsaDmO1IsOFPn_6domain10repository15item_repositoryNtB5_12MockItemRepo15expect_find_all
FN:22,_RNvMs2_NtNtCsaDmO1IsOFPn_6domain10repository15item_repositoryNtB5_12MockItemRepo17expect_find_by_id
FN:22,_RNvXNtNtCsaDmO1IsOFPn_6domain10repository15item_repositoryNtB2_12MockItemRepoNtNtCsfvfooZQ3Axs_4core7default7Default7default
FN:32,_RNvXs3_NtNtCsaDmO1IsOFPn_6domain10repository15item_repositoryNtB5_12MockItemRepoNtB5_14ItemRepository10find_by_id
FN:32,_RNvXs3_NtNtCsaDmO1IsOFPn_6domain10repository15item_repositoryNtB5_12MockItemRepoNtB5_14ItemRepository6create
FN:32,_RNvXs3_NtNtCsaDmO1IsOFPn_6domain10repository15item_repositoryNtB5_12MockItemRepoNtB5_14ItemRepository6delete
FN:32,_RNvXs3_NtNtCsaDmO1IsOFPn_6domain10repository15item_repositoryNtB5_12MockItemRepoNtB5_14ItemRepository6update
FN:32,_RNvXs3_NtNtCsaDmO1IsOFPn_6domain10repository15item_repositoryNtB5_12MockItemRepoNtB5_14ItemRepository8find_all
FN:22,_RNvXs_NtNtCsaDmO1IsOFPn_6domain10repository15item_repositoryNtB4_27MockItemRepo_ItemRepositoryNtNtCsfvfooZQ3Axs_4core7default7Default7default
FN:32,_RNvMNtNtNtNtCsaDmO1IsOFPn_6domain10repository15item_repository34___mock_MockItemRepo_ItemRepository8___updateNtB2_5Rfunc8call_mut
FN:32,_RNvMs0_NtNtNtNtCsaDmO1IsOFPn_6domain10repository15item_repository34___mock_MockItemRepo_ItemRepository8___updateNtB5_7Matcher7matches
FN:32,_RNvMs4_NtNtNtNtCsaDmO1IsOFPn_6domain10repository15item_repository34___mock_MockItemRepo_ItemRepository8___updateNtB5_6Common15verify_sequence
FN:32,_RNvMs4_NtNtNtNtCsaDmO1IsOFPn_6domain10repository15item_repository34___mock_MockItemRepo_ItemRepository8___updateNtB5_6Common16satisfy_sequence
FN:32,_RNvMs4_NtNtNtNtCsaDmO1IsOFPn_6domain10repository15item_repository34___mock_MockItemRepo_ItemRepository8___updateNtB5_6Common4call
FN:22,_RNvMs4_NtNtNtNtCsaDmO1IsOFPn_6domain10repository15item_repository34___mock_MockItemRepo_ItemRepository8___updateNtB5_6Common7is_done
FN:22,_RNvMs4_NtNtNtNtCsaDmO1IsOFPn_6domain10repository15item_repository34___mock_MockItemRepo_ItemRepository8___updateNtB5_6Common7matches
FN:32,_RNvMs6_NtNtNtNtCsaDmO1IsOFPn_6domain10repository15item_repository34___mock_MockItemRepo_ItemRepository8___updateNtB5_11Expectation4call
FN:22,_RNvMs6_NtNtNtNtCsaDmO1IsOFPn_6domain10repository15item_repository34___mock_MockItemRepo_ItemRepository8___updateNtB5_11Expectation7is_done
FN:22,_RNvMs6_NtNtNtNtCsaDmO1IsOFPn_6domain10repository15item_repository34___mock_MockItemRepo_ItemRepository8___updateNtB5_11Expectation7matches
FN:22,_RNvMs8_NtNtNtNtCsaDmO1IsOFPn_6domain10repository15item_repository34___mock_MockItemRepo_ItemRepository8___updateNtB5_12Expectations6expect
FN:32,_RNvMsa_NtNtNtNtCsaDmO1IsOFPn_6domain10repository15item_repository34___mock_MockItemRepo_ItemRepository8___updateNtB5_12Expectations4call
FN:22,_RNvXs1_NtNtNtNtCsaDmO1IsOFPn_6domain10repository15item_repository34___mock_MockItemRepo_ItemRepository8___updateNtB5_7MatcherNtNtCsfvfooZQ3Axs_4core7default7Default7default
FN:32,_RNvXs2_NtNtNtNtCsaDmO1IsOFPn_6domain10repository15item_repository34___mock_MockItemRepo_ItemRepository8___updateNtB5_7MatcherNtNtCsfvfooZQ3Axs_4core3fmt7Display3fmt
FN:22,_RNvXs3_NtNtNtNtCsaDmO1IsOFPn_6domain10repository15item_repository34___mock_MockItemRepo_ItemRepository8___updateNtB5_6CommonNtNtCsfvfooZQ3Axs_4core7default7Default7default
FN:22,_RNvXs7_NtNtNtNtCsaDmO1IsOFPn_6domain10repository15item_repository34___mock_MockItemRepo_ItemRepository8___updateNtB5_11ExpectationNtNtCsfvfooZQ3Axs_4core7default7Default7default
FN:22,_RNvXs9_NtNtNtNtCsaDmO1IsOFPn_6domain10repository15item_repository34___mock_MockItemRepo_ItemRepository8___updateNtB5_12ExpectationsNtNtCsfvfooZQ3Axs_4core7default7Default7default
FN:22,_RNvXs_NtNtNtNtCsaDmO1IsOFPn_6domain10repository15item_repository34___mock_MockItemRepo_ItemRepository8___updateNtB4_5RfuncNtNtCsfvfooZQ3Axs_4core7default7Default7default
FN:32,_RNvMNtNtNtNtCsaDmO1IsOFPn_6domain10repository15item_repository34___mock_MockItemRepo_ItemRepository10___find_allNtB2_5Rfunc8call_mut
FN:32,_RNvMs0_NtNtNtNtCsaDmO1IsOFPn_6domain10repository15item_repository34___mock_MockItemRepo_ItemRepository10___find_allNtB5_7Matcher7matches
FN:32,_RNvMs4_NtNtNtNtCsaDmO1IsOFPn_6domain10repository15item_repository34___mock_MockItemRepo_ItemRepository10___find_allNtB5_6Common15verify_sequence
FN:32,_RNvMs4_NtNtNtNtCsaDmO1IsOFPn_6domain10repository15item_repository34___mock_MockItemRepo_ItemRepository10___find_allNtB5_6Common16satisfy_sequence
FN:32,_RNvMs4_NtNtNtNtCsaDmO1IsOFPn_6domain10repository15item_repository34___mock_MockItemRepo_ItemRepository10___find_allNtB5_6Common4call
FN:22,_RNvMs4_NtNtNtNtCsaDmO1IsOFPn_6domain10repository15item_repository34___mock_MockItemRepo_ItemRepository10___find_allNtB5_6Common7is_done
FN:22,_RNvMs4_NtNtNtNtCsaDmO1IsOFPn_6domain10repository15item_repository34___mock_MockItemRepo_ItemRepository10___find_allNtB5_6Common7matches
FN:32,_RNvMs6_NtNtNtNtCsaDmO1IsOFPn_6domain10repository15item_repository34___mock_MockItemRepo_ItemRepository10___find_allNtB5_11Expectation4call
FN:22,_RNvMs6_NtNtNtNtCsaDmO1IsOFPn_6domain10repository15item_repository34___mock_MockItemRepo_ItemRepository10___find_allNtB5_11Expectation7is_done
FN:22,_RNvMs6_NtNtNtNtCsaDmO1IsOFPn_6domain10repository15item_repository34___mock_MockItemRepo_ItemRepository10___find_allNtB5_11Expectation7matches
FN:22,_RNvMs8_NtNtNtNtCsaDmO1IsOFPn_6domain10repository15item_repository34___mock_MockItemRepo_ItemRepository10___find_allNtB5_12Expectations6expect
FN:32,_RNvMsa_NtNtNtNtCsaDmO1IsOFPn_6domain10repository15item_repository34___mock_MockItemRepo_ItemRepository10___find_allNtB5_12Expectations4call
FN:22,_RNvXs1_NtNtNtNtCsaDmO1IsOFPn_6domain10repository15item_repository34___mock_MockItemRepo_ItemRepository10___find_allNtB5_7MatcherNtNtCsfvfooZQ3Axs_4core7default7Default7default
FN:32,_RNvXs2_NtNtNtNtCsaDmO1IsOFPn_6domain10repository15item_repository34___mock_MockItemRepo_ItemRepository10___find_allNtB5_7MatcherNtNtCsfvfooZQ3Axs_4core3fmt7Display3fmt
FN:22,_RNvXs3_NtNtNtNtCsaDmO1IsOFPn_6domain10repository15item_repository34___mock_MockItemRepo_ItemRepository10___find_allNtB5_6CommonNtNtCsfvfooZQ3Axs_4core7default7Default7default
FN:22,_RNvXs7_NtNtNtNtCsaDmO1IsOFPn_6domain10repository15item_repository34___mock_MockItemRepo_ItemRepository10___find_allNtB5_11ExpectationNtNtCsfvfooZQ3Axs_4core7default7Default7default
FN:22,_RNvXs9_NtNtNtNtCsaDmO1IsOFPn_6domain10repository15item_repository34___mock_MockItemRepo_ItemRepository10___find_allNtB5_12ExpectationsNtNtCsfvfooZQ3Axs_4core7default7Default7default
FN:22,_RNvXs_NtNtNtNtCsaDmO1IsOFPn_6domain10repository15item_repository34___mock_MockItemRepo_ItemRepository10___find_allNtB4_5RfuncNtNtCsfvfooZQ3Axs_4core7default7Default7default
FN:32,_RNvMNtNtNtNtCsaDmO1IsOFPn_6domain10repository15item_repository34___mock_MockItemRepo_ItemRepository12___find_by_idNtB2_5Rfunc8call_mut
FN:32,_RNvMs0_NtNtNtNtCsaDmO1IsOFPn_6domain10repository15item_repository34___mock_MockItemRepo_ItemRepository12___find_by_idNtB5_7Matcher7matches
FN:32,_RNvMs4_NtNtNtNtCsaDmO1IsOFPn_6domain10repository15item_repository34___mock_MockItemRepo_ItemRepository12___find_by_idNtB5_6Common15verify_sequence
FN:32,_RNvMs4_NtNtNtNtCsaDmO1IsOFPn_6domain10repository15item_repository34___mock_MockItemRepo_ItemRepository12___find_by_idNtB5_6Common16satisfy_sequence
FN:32,_RNvMs4_NtNtNtNtCsaDmO1IsOFPn_6domain10repository15item_repository34___mock_MockItemRepo_ItemRepository12___find_by_idNtB5_6Common4call
FN:22,_RNvMs4_NtNtNtNtCsaDmO1IsOFPn_6domain10repository15item_repository34___mock_MockItemRepo_ItemRepository12___find_by_idNtB5_6Common7is_done
FN:22,_RNvMs4_NtNtNtNtCsaDmO1IsOFPn_6domain10repository15item_repository34___mock_MockItemRepo_ItemRepository12___find_by_idNtB5_6Common7matches
FN:32,_RNvMs6_NtNtNtNtCsaDmO1IsOFPn_6domain10repository15item_repository34___mock_MockItemRepo_ItemRepository12___find_by_idNtB5_11Expectation4call
FN:22,_RNvMs6_NtNtNtNtCsaDmO1IsOFPn_6domain10repository15item_repository34___mock_MockItemRepo_ItemRepository12___find_by_idNtB5_11Expectation7is_done
FN:22,_RNvMs6_NtNtNtNtCsaDmO1IsOFPn_6domain10repository15item_repository34___mock_MockItemRepo_ItemRepository12___find_by_idNtB5_11Expectation7matches
FN:22,_RNvMs8_NtNtNtNtCsaDmO1IsOFPn_6domain10repository15item_repository34___mock_MockItemRepo_ItemRepository12___find_by_idNtB5_12Expectations6expect
FN:32,_RNvMsa_NtNtNtNtCsaDmO1IsOFPn_6domain10repository15item_repository34___mock_MockItemRepo_ItemRepository12___find_by_idNtB5_12Expectations4call
FN:22,_RNvXs1_NtNtNtNtCsaDmO1IsOFPn_6domain10repository15item_repository34___mock_MockItemRepo_ItemRepository12___find_by_idNtB5_7MatcherNtNtCsfvfooZQ3Axs_4core7default7Default7default
FN:32,_RNvXs2_NtNtNtNtCsaDmO1IsOFPn_6domain10repository15item_repository34___mock_MockItemRepo_ItemRepository12___find_by_idNtB5_7MatcherNtNtCsfvfooZQ3Axs_4core3fmt7Display3fmt
FN:22,_RNvXs3_NtNtNtNtCsaDmO1IsOFPn_6domain10repository15item_repository34___mock_MockItemRepo_ItemRepository12___find_by_idNtB5_6CommonNtNtCsfvfooZQ3Axs_4core7default7Default7default
FN:22,_RNvXs7_NtNtNtNtCsaDmO1IsOFPn_6domain10repository15item_repository34___mock_MockItemRepo_ItemRepository12___find_by_idNtB5_11ExpectationNtNtCsfvfooZQ3Axs_4core7default7Default7default
FN:22,_RNvXs9_NtNtNtNtCsaDmO1IsOFPn_6domain10repository15item_repository34___mock_MockItemRepo_ItemRepository12___find_by_idNtB5_12ExpectationsNtNtCsfvfooZQ3Axs_4core7default7Default7default
FN:22,_RNvXs_NtNtNtNtCsaDmO1IsOFPn_6domain10repository15item_repository34___mock_MockItemRepo_ItemRepository12___find_by_idNtB4_5RfuncNtNtCsfvfooZQ3Axs_4core7default7Default7default
FN:22,_RINvMs4_NtNtNtNtCsaDmO1IsOFPn_6domain10repository15item_repository34___mock_MockItemRepo_ItemRepository8___createNtB6_6Common4withINtNtCs9l2CZqY40TY_10predicates8function11FnPredicateNCNCNvNtBa_5testss_19test_create_success00NtNtNtBe_5model4item4ItemEEBe_
FN:22,_RINvMs6_NtNtNtNtCsaDmO1IsOFPn_6domain10repository15item_repository34___mock_MockItemRepo_ItemRepository8___createNtB6_11Expectation11return_onceNCNCNvNtBa_5testss_19test_create_success0s_0EBe_
FN:22,_RINvMs6_NtNtNtNtCsaDmO1IsOFPn_6domain10repository15item_repository34___mock_MockItemRepo_ItemRepository8___createNtB6_11Expectation4withINtNtCs9l2CZqY40TY_10predicates8function11FnPredicateNCNCNvNtBa_5testss_19test_create_success00NtNtNtBe_5model4item4ItemEEBe_
FN:22,_RNCNvMs0_NtNtNtNtCsaDmO1IsOFPn_6domain10repository15item_repository34___mock_MockItemRepo_ItemRepository8___createNtB7_7Matcher7matches0Bf_
FN:32,_RNCNvMsa_NtNtNtNtCsaDmO1IsOFPn_6domain10repository15item_repository34___mock_MockItemRepo_ItemRepository8___createNtB7_12Expectations4call0Bf_
FN:22,_RNCNvMsa_NtNtNtNtCsaDmO1IsOFPn_6domain10repository15item_repository34___mock_MockItemRepo_ItemRepository8___createNtB7_12Expectations4calls_0Bf_
FN:101,_RNvNtNtNtCsaDmO1IsOFPn_6domain10repository15item_repository5testss_19test_create_success
FN:147,_RNvNtNtNtCsaDmO1IsOFPn_6domain10repository15item_repository5testss_19test_delete_success
FN:123,_RNvNtNtNtCsaDmO1IsOFPn_6domain10repository15item_repository5testss_19test_update_success
FN:39,_RNvNtNtNtCsaDmO1IsOFPn_6domain10repository15item_repository5testss_21test_find_all_success
FN:67,_RNvNtNtNtCsaDmO1IsOFPn_6domain10repository15item_repository5testss_21test_find_by_id_found
FN:89,_RNvNtNtNtCsaDmO1IsOFPn_6domain10repository15item_repository5testss_25test_find_by_id_not_found
FN:32,_RNvMNtNtNtNtCsaDmO1IsOFPn_6domain10repository15item_repository34___mock_MockItemRepo_ItemRepository8___deleteNtB2_5Rfunc8call_mut
FN:32,_RNvMs0_NtNtNtNtCsaDmO1IsOFPn_6domain10repository15item_repository34___mock_MockItemRepo_ItemRepository8___deleteNtB5_7Matcher7matches
FN:32,_RNvMs4_NtNtNtNtCsaDmO1IsOFPn_6domain10repository15item_repository34___mock_MockItemRepo_ItemRepository8___deleteNtB5_6Common15verify_sequence
FN:32,_RNvMs4_NtNtNtNtCsaDmO1IsOFPn_6domain10repository15item_repository34___mock_MockItemRepo_ItemRepository8___deleteNtB5_6Common16satisfy_sequence
FN:32,_RNvMs4_NtNtNtNtCsaDmO1IsOFPn_6domain10repository15item_repository34___mock_MockItemRepo_ItemRepository8___deleteNtB5_6Common4call
FN:22,_RNvMs4_NtNtNtNtCsaDmO1IsOFPn_6domain10repository15item_repository34___mock_MockItemRepo_ItemRepository8___deleteNtB5_6Common7is_done
FN:22,_RNvMs4_NtNtNtNtCsaDmO1IsOFPn_6domain10repository15item_repository34___mock_MockItemRepo_ItemRepository8___deleteNtB5_6Common7matches
FN:32,_RNvMs6_NtNtNtNtCsaDmO1IsOFPn_6domain10repository15item_repository34___mock_MockItemRepo_ItemRepository8___deleteNtB5_11Expectation4call
FN:22,_RNvMs6_NtNtNtNtCsaDmO1IsOFPn_6domain10repository15item_repository34___mock_MockItemRepo_ItemRepository8___deleteNtB5_11Expectation7is_done
FN:22,_RNvMs6_NtNtNtNtCsaDmO1IsOFPn_6domain10repository15item_repository34___mock_MockItemRepo_ItemRepository8___deleteNtB5_11Expectation7matches
FN:22,_RNvMs8_NtNtNtNtCsaDmO1IsOFPn_6domain10repository15item_repository34___mock_MockItemRepo_ItemRepository8___deleteNtB5_12Expectations6expect
FN:32,_RNvMsa_NtNtNtNtCsaDmO1IsOFPn_6domain10repository15item_repository34___mock_MockItemRepo_ItemRepository8___deleteNtB5_12Expectations4call
FN:22,_RNvXs1_NtNtNtNtCsaDmO1IsOFPn_6domain10repository15item_repository34___mock_MockItemRepo_ItemRepository8___deleteNtB5_7MatcherNtNtCsfvfooZQ3Axs_4core7default7Default7default
FN:32,_RNvXs2_NtNtNtNtCsaDmO1IsOFPn_6domain10repository15item_repository34___mock_MockItemRepo_ItemRepository8___deleteNtB5_7MatcherNtNtCsfvfooZQ3Axs_4core3fmt7Display3fmt
FN:22,_RNvXs3_NtNtNtNtCsaDmO1IsOFPn_6domain10repository15item_repository34___mock_MockItemRepo_ItemRepository8___deleteNtB5_6CommonNtNtCsfvfooZQ3Axs_4core7default7Default7default
FN:22,_RNvXs7_NtNtNtNtCsaDmO1IsOFPn_6domain10repository15item_repository34___mock_MockItemRepo_ItemRepository8___deleteNtB5_11ExpectationNtNtCsfvfooZQ3Axs_4core7default7Default7default
FN:22,_RNvXs9_NtNtNtNtCsaDmO1IsOFPn_6domain10repository15item_repository34___mock_MockItemRepo_ItemRepository8___deleteNtB5_12ExpectationsNtNtCsfvfooZQ3Axs_4core7default7Default7default
FN:22,_RNvXs_NtNtNtNtCsaDmO1IsOFPn_6domain10repository15item_repository34___mock_MockItemRepo_ItemRepository8___deleteNtB4_5RfuncNtNtCsfvfooZQ3Axs_4core7default7Default7default
FN:110,_RNCNCNvNtNtNtCsaDmO1IsOFPn_6domain10repository15item_repository5testss_19test_create_success00Bb_
FN:113,_RNCNCNvNtNtNtCsaDmO1IsOFPn_6domain10repository15item_repository5testss_19test_create_success0s_0Bb_
FN:151,_RNCNCNvNtNtNtCsaDmO1IsOFPn_6domain10repository15item_repository5testss_19test_delete_success00Bb_
FN:132,_RNCNCNvNtNtNtCsaDmO1IsOFPn_6domain10repository15item_repository5testss_19test_update_success00Bb_
FN:135,_RNCNCNvNtNtNtCsaDmO1IsOFPn_6domain10repository15item_repository5testss_19test_update_success0s_0Bb_
FN:53,_RNCNCNvNtNtNtCsaDmO1IsOFPn_6domain10repository15item_repository5testss_21test_find_all_success00Bb_
FN:77,_RNCNCNvNtNtNtCsaDmO1IsOFPn_6domain10repository15item_repository5testss_21test_find_by_id_found00Bb_
FN:93,_RNCNCNvNtNtNtCsaDmO1IsOFPn_6domain10repository15item_repository5testss_25test_find_by_id_not_found00Bb_
FN:101,_RNCNvNtNtNtCsaDmO1IsOFPn_6domain10repository15item_repository5testss_19test_create_success0B9_
FN:147,_RNCNvNtNtNtCsaDmO1IsOFPn_6domain10repository15item_repository5testss_19test_delete_success0B9_
FN:123,_RNCNvNtNtNtCsaDmO1IsOFPn_6domain10repository15item_repository5testss_19test_update_success0B9_
FN:39,_RNCNvNtNtNtCsaDmO1IsOFPn_6domain10repository15item_repository5testss_21test_find_all_success0B9_
FN:67,_RNCNvNtNtNtCsaDmO1IsOFPn_6domain10repository15item_repository5testss_21test_find_by_id_found0B9_
FN:89,_RNCNvNtNtNtCsaDmO1IsOFPn_6domain10repository15item_repository5testss_25test_find_by_id_not_found0B9_
FN:32,_RNCNvXs3_NtNtCsaDmO1IsOFPn_6domain10repository15item_repositoryNtB7_12MockItemRepoNtB7_14ItemRepository10find_by_id0Bb_
FN:32,_RNCNvXs3_NtNtCsaDmO1IsOFPn_6domain10repository15item_repositoryNtB7_12MockItemRepoNtB7_14ItemRepository6create0Bb_
FN:32,_RNCNvXs3_NtNtCsaDmO1IsOFPn_6domain10repository15item_repositoryNtB7_12MockItemRepoNtB7_14ItemRepository6delete0Bb_
FN:32,_RNCNvXs3_NtNtCsaDmO1IsOFPn_6domain10repository15item_repositoryNtB7_12MockItemRepoNtB7_14ItemRepository6update0Bb_
FN:32,_RNCNvXs3_NtNtCsaDmO1IsOFPn_6domain10repository15item_repositoryNtB7_12MockItemRepoNtB7_14ItemRepository8find_all0Bb_
FN:32,_RNvXs5_NtNtNtNtCsaDmO1IsOFPn_6domain10repository15item_repository34___mock_MockItemRepo_ItemRepository10___find_allNtB5_6CommonNtNtNtCsfvfooZQ3Axs_4core3ops4drop4Drop4drop
FN:32,_RNvXs5_NtNtNtNtCsaDmO1IsOFPn_6domain10repository15item_repository34___mock_MockItemRepo_ItemRepository12___find_by_idNtB5_6CommonNtNtNtCsfvfooZQ3Axs_4core3ops4drop4Drop4drop
FN:32,_RNvXs5_NtNtNtNtCsaDmO1IsOFPn_6domain10repository15item_repository34___mock_MockItemRepo_ItemRepository8___createNtB5_6CommonNtNtNtCsfvfooZQ3Axs_4core3ops4drop4Drop4drop
FN:32,_RNvXs5_NtNtNtNtCsaDmO1IsOFPn_6domain10repository15item_repository34___mock_MockItemRepo_ItemRepository8___deleteNtB5_6CommonNtNtNtCsfvfooZQ3Axs_4core3ops4drop4Drop4drop
FN:32,_RNvXs5_NtNtNtNtCsaDmO1IsOFPn_6domain10repository15item_repository34___mock_MockItemRepo_ItemRepository8___updateNtB5_6CommonNtNtNtCsfvfooZQ3Axs_4core3ops4drop4Drop4drop
FN:22,_RINvMs4_NtNtNtNtCsaDmO1IsOFPn_6domain10repository15item_repository34___mock_MockItemRepo_ItemRepository12___find_by_idNtB6_6Common4withINtNtCs9l2CZqY40TY_10predicates3ord11EqPredicateyEEBe_
FN:22,_RINvMs6_NtNtNtNtCsaDmO1IsOFPn_6domain10repository15item_repository34___mock_MockItemRepo_ItemRepository12___find_by_idNtB6_11Expectation11return_onceNCNCNvNtBa_5testss_21test_find_by_id_found00EBe_
FN:22,_RINvMs6_NtNtNtNtCsaDmO1IsOFPn_6domain10repository15item_repository34___mock_MockItemRepo_ItemRepository12___find_by_idNtB6_11Expectation11return_onceNCNCNvNtBa_5testss_25test_find_by_id_not_found00EBe_
FN:22,_RINvMs6_NtNtNtNtCsaDmO1IsOFPn_6domain10repository15item_repository34___mock_MockItemRepo_ItemRepository12___find_by_idNtB6_11Expectation4withINtNtCs9l2CZqY40TY_10predicates3ord11EqPredicateyEEBe_
FN:22,_RNCNvMs0_NtNtNtNtCsaDmO1IsOFPn_6domain10repository15item_repository34___mock_MockItemRepo_ItemRepository12___find_by_idNtB7_7Matcher7matches0Bf_
FN:32,_RNCNvMsa_NtNtNtNtCsaDmO1IsOFPn_6domain10repository15item_repository34___mock_MockItemRepo_ItemRepository12___find_by_idNtB7_12Expectations4call0Bf_
FN:22,_RNCNvMsa_NtNtNtNtCsaDmO1IsOFPn_6domain10repository15item_repository34___mock_MockItemRepo_ItemRepository12___find_by_idNtB7_12Expectations4calls_0Bf_
FN:22,_RINvMs4_NtNtNtNtCsaDmO1IsOFPn_6domain10repository15item_repository34___mock_MockItemRepo_ItemRepository8___updateNtB6_6Common4withINtNtCs9l2CZqY40TY_10predicates8function11FnPredicateNCNCNvNtBa_5testss_19test_update_success00NtNtNtBe_5model4item4ItemEEBe_
FN:22,_RINvMs6_NtNtNtNtCsaDmO1IsOFPn_6domain10repository15item_repository34___mock_MockItemRepo_ItemRepository8___updateNtB6_11Expectation11return_onceNCNCNvNtBa_5testss_19test_update_success0s_0EBe_
FN:22,_RINvMs6_NtNtNtNtCsaDmO1IsOFPn_6domain10repository15item_repository34___mock_MockItemRepo_ItemRepository8___updateNtB6_11Expectation4withINtNtCs9l2CZqY40TY_10predicates8function11FnPredicateNCNCNvNtBa_5testss_19test_update_success00NtNtNtBe_5model4item4ItemEEBe_
FN:22,_RNCNvMs0_NtNtNtNtCsaDmO1IsOFPn_6domain10repository15item_repository34___mock_MockItemRepo_ItemRepository8___updateNtB7_7Matcher7matches0Bf_
FN:32,_RNCNvMsa_NtNtNtNtCsaDmO1IsOFPn_6domain10repository15item_repository34___mock_MockItemRepo_ItemRepository8___updateNtB7_12Expectations4call0Bf_
FN:22,_RNCNvMsa_NtNtNtNtCsaDmO1IsOFPn_6domain10repository15item_repository34___mock_MockItemRepo_ItemRepository8___updateNtB7_12Expectations4calls_0Bf_
FN:32,_RNvMNtNtNtNtCsaDmO1IsOFPn_6domain10repository15item_repository34___mock_MockItemRepo_ItemRepository8___createNtB2_5Rfunc8call_mut
FN:32,_RNvMs0_NtNtNtNtCsaDmO1IsOFPn_6domain10repository15item_repository34___mock_MockItemRepo_ItemRepository8___createNtB5_7Matcher7matches
FN:32,_RNvMs4_NtNtNtNtCsaDmO1IsOFPn_6domain10repository15item_repository34___mock_MockItemRepo_ItemRepository8___createNtB5_6Common15verify_sequence
FN:32,_RNvMs4_NtNtNtNtCsaDmO1IsOFPn_6domain10repository15item_repository34___mock_MockItemRepo_ItemRepository8___createNtB5_6Common16satisfy_sequence
FN:32,_RNvMs4_NtNtNtNtCsaDmO1IsOFPn_6domain10repository15item_repository34___mock_MockItemRepo_ItemRepository8___createNtB5_6Common4call
FN:22,_RNvMs4_NtNtNtNtCsaDmO1IsOFPn_6domain10repository15item_repository34___mock_MockItemRepo_ItemRepository8___createNtB5_6Common7is_done
FN:22,_RNvMs4_NtNtNtNtCsaDmO1IsOFPn_6domain10repository15item_repository34___mock_MockItemRepo_ItemRepository8___createNtB5_6Common7matches
FN:32,_RNvMs6_NtNtNtNtCsaDmO1IsOFPn_6domain10repository15item_repository34___mock_MockItemRepo_ItemRepository8___createNtB5_11Expectation4call
FN:22,_RNvMs6_NtNtNtNtCsaDmO1IsOFPn_6domain10repository15item_repository34___mock_MockItemRepo_ItemRepository8___createNtB5_11Expectation7is_done
FN:22,_RNvMs6_NtNtNtNtCsaDmO1IsOFPn_6domain10repository15item_repository34___mock_MockItemRepo_ItemRepository8___createNtB5_11Expectation7matches
FN:22,_RNvMs8_NtNtNtNtCsaDmO1IsOFPn_6domain10repository15item_repository34___mock_MockItemRepo_ItemRepository8___createNtB5_12Expectations6expect
FN:32,_RNvMsa_NtNtNtNtCsaDmO1IsOFPn_6domain10repository15item_repository34___mock_MockItemRepo_ItemRepository8___createNtB5_12Expectations4call
FN:22,_RNvXs1_NtNtNtNtCsaDmO1IsOFPn_6domain10repository15item_repository34___mock_MockItemRepo_ItemRepository8___createNtB5_7MatcherNtNtCsfvfooZQ3Axs_4core7default7Default7default
FN:32,_RNvXs2_NtNtNtNtCsaDmO1IsOFPn_6domain10repository15item_repository34___mock_MockItemRepo_ItemRepository8___createNtB5_7MatcherNtNtCsfvfooZQ3Axs_4core3fmt7Display3fmt
FN:22,_RNvXs3_NtNtNtNtCsaDmO1IsOFPn_6domain10repository15item_repository34___mock_MockItemRepo_ItemRepository8___createNtB5_6CommonNtNtCsfvfooZQ3Axs_4core7default7Default7default
FN:22,_RNvXs7_NtNtNtNtCsaDmO1IsOFPn_6domain10repository15item_repository34___mock_MockItemRepo_ItemRepository8___createNtB5_11ExpectationNtNtCsfvfooZQ3Axs_4core7default7Default7default
FN:22,_RNvXs9_NtNtNtNtCsaDmO1IsOFPn_6domain10repository15item_repository34___mock_MockItemRepo_ItemRepository8___createNtB5_12ExpectationsNtNtCsfvfooZQ3Axs_4core7default7Default7default
FN:22,_RNvXs_NtNtNtNtCsaDmO1IsOFPn_6domain10repository15item_repository34___mock_MockItemRepo_ItemRepository8___createNtB4_5RfuncNtNtCsfvfooZQ3Axs_4core7default7Default7default
FNDA:0,_RINvMs4_NtNtNtNtCsaDmO1IsOFPn_6domain10repository15item_repository34___mock_MockItemRepo_ItemRepository10___find_allNtB6_6Common5timespEBe_
FNDA:0,_RINvMs4_NtNtNtNtCsaDmO1IsOFPn_6domain10repository15item_repository34___mock_MockItemRepo_ItemRepository10___find_allNtB6_6Common5withfpEBe_
FNDA:0,_RINvMs4_NtNtNtNtCsaDmO1IsOFPn_6domain10repository15item_repository34___mock_MockItemRepo_ItemRepository10___find_allNtB6_6Common8withf_stpEBe_
FNDA:0,_RINvMs4_NtNtNtNtCsaDmO1IsOFPn_6domain10repository15item_repository34___mock_MockItemRepo_ItemRepository12___find_by_idNtB6_6Common5timespEBe_
FNDA:0,_RINvMs4_NtNtNtNtCsaDmO1IsOFPn_6domain10repository15item_repository34___mock_MockItemRepo_ItemRepository12___find_by_idNtB6_6Common5withfpEBe_
FNDA:0,_RINvMs4_NtNtNtNtCsaDmO1IsOFPn_6domain10repository15item_repository34___mock_MockItemRepo_ItemRepository12___find_by_idNtB6_6Common8withf_stpEBe_
FNDA:0,_RINvMs4_NtNtNtNtCsaDmO1IsOFPn_6domain10repository15item_repository34___mock_MockItemRepo_ItemRepository8___createNtB6_6Common5timespEBe_
FNDA:0,_RINvMs4_NtNtNtNtCsaDmO1IsOFPn_6domain10repository15item_repository34___mock_MockItemRepo_ItemRepository8___createNtB6_6Common5withfpEBe_
FNDA:0,_RINvMs4_NtNtNtNtCsaDmO1IsOFPn_6domain10repository15item_repository34___mock_MockItemRepo_ItemRepository8___createNtB6_6Common8withf_stpEBe_
FNDA:0,_RINvMs4_NtNtNtNtCsaDmO1IsOFPn_6domain10repository15item_repository34___mock_MockItemRepo_ItemRepository8___deleteNtB6_6Common5timespEBe_
FNDA:0,_RINvMs4_NtNtNtNtCsaDmO1IsOFPn_6domain10repository15item_repository34___mock_MockItemRepo_ItemRepository8___deleteNtB6_6Common5withfpEBe_
FNDA:0,_RINvMs4_NtNtNtNtCsaDmO1IsOFPn_6domain10repository15item_repository34___mock_MockItemRepo_ItemRepository8___deleteNtB6_6Common8withf_stpEBe_
FNDA:0,_RINvMs4_NtNtNtNtCsaDmO1IsOFPn_6domain10repository15item_repository34___mock_MockItemRepo_ItemRepository8___updateNtB6_6Common5timespEBe_
FNDA:0,_RINvMs4_NtNtNtNtCsaDmO1IsOFPn_6domain10repository15item_repository34___mock_MockItemRepo_ItemRepository8___updateNtB6_6Common5withfpEBe_
FNDA:0,_RINvMs4_NtNtNtNtCsaDmO1IsOFPn_6domain10repository15item_repository34___mock_MockItemRepo_ItemRepository8___updateNtB6_6Common8withf_stpEBe_
FNDA:0,_RINvMs6_NtNtNtNtCsaDmO1IsOFPn_6domain10repository15item_repository34___mock_MockItemRepo_ItemRepository10___find_allNtB6_11Expectation12return_constpEBe_
FNDA:0,_RINvMs6_NtNtNtNtCsaDmO1IsOFPn_6domain10repository15item_repository34___mock_MockItemRepo_ItemRepository10___find_allNtB6_11Expectation12returning_stpEBe_
FNDA:0,_RINvMs6_NtNtNtNtCsaDmO1IsOFPn_6domain10repository15item_repository34___mock_MockItemRepo_ItemRepository10___find_allNtB6_11Expectation14return_once_stpEBe_
FNDA:0,_RINvMs6_NtNtNtNtCsaDmO1IsOFPn_6domain10repository15item_repository34___mock_MockItemRepo_ItemRepository10___find_allNtB6_11Expectation15return_const_stpEBe_
FNDA:0,_RINvMs6_NtNtNtNtCsaDmO1IsOFPn_6domain10repository15item_repository34___mock_MockItemRepo_ItemRepository10___find_allNtB6_11Expectation5timespEBe_
FNDA:0,_RINvMs6_NtNtNtNtCsaDmO1IsOFPn_6domain10repository15item_repository34___mock_MockItemRepo_ItemRepository10___find_allNtB6_11Expectation5withfpEBe_
FNDA:0,_RINvMs6_NtNtNtNtCsaDmO1IsOFPn_6domain10repository15item_repository34___mock_MockItemRepo_ItemRepository10___find_allNtB6_11Expectation8withf_stpEBe_
FNDA:0,_RINvMs6_NtNtNtNtCsaDmO1IsOFPn_6domain10repository15item_repository34___mock_MockItemRepo_ItemRepository10___find_allNtB6_11Expectation9returningpEBe_
FNDA:0,_RINvMs6_NtNtNtNtCsaDmO1IsOFPn_6domain10repository15item_repository34___mock_MockItemRepo_ItemRepository12___find_by_idNtB6_11Expectation12return_constpEBe_
FNDA:0,_RINvMs6_NtNtNtNtCsaDmO1IsOFPn_6domain10repository15item_repository34___mock_MockItemRepo_ItemRepository12___find_by_idNtB6_11Expectation12returning_stpEBe_
FNDA:0,_RINvMs6_NtNtNtNtCsaDmO1IsOFPn_6domain10repository15item_repository34___mock_MockItemRepo_ItemRepository12___find_by_idNtB6_11Expectation14return_once_stpEBe_
FNDA:0,_RINvMs6_NtNtNtNtCsaDmO1IsOFPn_6domain10repository15item_repository34___mock_MockItemRepo_ItemRepository12___find_by_idNtB6_11Expectation15return_const_stpEBe_
FNDA:0,_RINvMs6_NtNtNtNtCsaDmO1IsOFPn_6domain10repository15item_repository34___mock_MockItemRepo_ItemRepository12___find_by_idNtB6_11Expectation5timespEBe_
FNDA:0,_RINvMs6_NtNtNtNtCsaDmO1IsOFPn_6domain10repository15item_repository34___mock_MockItemRepo_ItemRepository12___find_by_idNtB6_11Expectation5withfpEBe_
FNDA:0,_RINvMs6_NtNtNtNtCsaDmO1IsOFPn_6domain10repository15item_repository34___mock_MockItemRepo_ItemRepository12___find_by_idNtB6_11Expectation8withf_stpEBe_
FNDA:0,_RINvMs6_NtNtNtNtCsaDmO1IsOFPn_6domain10repository15item_repository34___mock_MockItemRepo_ItemRepository12___find_by_idNtB6_11Expectation9returningpEBe_
FNDA:0,_RINvMs6_NtNtNtNtCsaDmO1IsOFPn_6domain10repository15item_repository34___mock_MockItemRepo_ItemRepository8___createNtB6_11Expectation12return_constpEBe_
FNDA:0,_RINvMs6_NtNtNtNtCsaDmO1IsOFPn_6domain10repository15item_repository34___mock_MockItemRepo_ItemRepository8___createNtB6_11Expectation12returning_stpEBe_
FNDA:0,_RINvMs6_NtNtNtNtCsaDmO1IsOFPn_6domain10repository15item_repository34___mock_MockItemRepo_ItemRepository8___createNtB6_11Expectation14return_once_stpEBe_
FNDA:0,_RINvMs6_NtNtNtNtCsaDmO1IsOFPn_6domain10repository15item_repository34___mock_MockItemRepo_ItemRepository8___createNtB6_11Expectation15return_const_stpEBe_
FNDA:0,_RINvMs6_NtNtNtNtCsaDmO1IsOFPn_6domain10repository15item_repository34___mock_MockItemRepo_ItemRepository8___createNtB6_11Expectation5timespEBe_
FNDA:0,_RINvMs6_NtNtNtNtCsaDmO1IsOFPn_6domain10repository15item_repository34___mock_MockItemRepo_ItemRepository8___createNtB6_11Expectation5withfpEBe_
FNDA:0,_RINvMs6_NtNtNtNtCsaDmO1IsOFPn_6domain10repository15item_repository34___mock_MockItemRepo_ItemRepository8___createNtB6_11Expectation8withf_stpEBe_
FNDA:0,_RINvMs6_NtNtNtNtCsaDmO1IsOFPn_6domain10repository15item_repository34___mock_MockItemRepo_ItemRepository8___createNtB6_11Expectation9returningpEBe_
FNDA:0,_RINvMs6_NtNtNtNtCsaDmO1IsOFPn_6domain10repository15item_repository34___mock_MockItemRepo_ItemRepository8___deleteNtB6_11Expectation12return_constpEBe_
FNDA:0,_RINvMs6_NtNtNtNtCsaDmO1IsOFPn_6domain10repository15item_repository34___mock_MockItemRepo_ItemRepository8___deleteNtB6_11Expectation12returning_stpEBe_
FNDA:0,_RINvMs6_NtNtNtNtCsaDmO1IsOFPn_6domain10repository15item_repository34___mock_MockItemRepo_ItemRepository8___deleteNtB6_11Expectation14return_once_stpEBe_
FNDA:0,_RINvMs6_NtNtNtNtCsaDmO1IsOFPn_6domain10repository15item_repository34___mock_MockItemRepo_ItemRepository8___deleteNtB6_11Expectation15return_const_stpEBe_
FNDA:0,_RINvMs6_NtNtNtNtCsaDmO1IsOFPn_6domain10repository15item_repository34___mock_MockItemRepo_ItemRepository8___deleteNtB6_11Expectation5timespEBe_
FNDA:0,_RINvMs6_NtNtNtNtCsaDmO1IsOFPn_6domain10repository15item_repository34___mock_MockItemRepo_ItemRepository8___deleteNtB6_11Expectation5withfpEBe_
FNDA:0,_RINvMs6_NtNtNtNtCsaDmO1IsOFPn_6domain10repository15item_repository34___mock_MockItemRepo_ItemRepository8___deleteNtB6_11Expectation8withf_stpEBe_
FNDA:0,_RINvMs6_NtNtNtNtCsaDmO1IsOFPn_6domain10repository15item_repository34___mock_MockItemRepo_ItemRepository8___deleteNtB6_11Expectation9returningpEBe_
FNDA:0,_RINvMs6_NtNtNtNtCsaDmO1IsOFPn_6domain10repository15item_repository34___mock_MockItemRepo_ItemRepository8___updateNtB6_11Expectation12return_constpEBe_
FNDA:0,_RINvMs6_NtNtNtNtCsaDmO1IsOFPn_6domain10repository15item_repository34___mock_MockItemRepo_ItemRepository8___updateNtB6_11Expectation12returning_stpEBe_
FNDA:0,_RINvMs6_NtNtNtNtCsaDmO1IsOFPn_6domain10repository15item_repository34___mock_MockItemRepo_ItemRepository8___updateNtB6_11Expectation14return_once_stpEBe_
FNDA:0,_RINvMs6_NtNtNtNtCsaDmO1IsOFPn_6domain10repository15item_repository34___mock_MockItemRepo_ItemRepository8___updateNtB6_11Expectation15return_const_stpEBe_
FNDA:0,_RINvMs6_NtNtNtNtCsaDmO1IsOFPn_6domain10repository15item_repository34___mock_MockItemRepo_ItemRepository8___updateNtB6_11Expectation5timespEBe_
FNDA:0,_RINvMs6_NtNtNtNtCsaDmO1IsOFPn_6domain10repository15item_repository34___mock_MockItemRepo_ItemRepository8___updateNtB6_11Expectation5withfpEBe_
FNDA:0,_RINvMs6_NtNtNtNtCsaDmO1IsOFPn_6domain10repository15item_repository34___mock_MockItemRepo_ItemRepository8___updateNtB6_11Expectation8withf_stpEBe_
FNDA:0,_RINvMs6_NtNtNtNtCsaDmO1IsOFPn_6domain10repository15item_repository34___mock_MockItemRepo_ItemRepository8___updateNtB6_11Expectation9returningpEBe_
FNDA:0,_RNCINvMs6_NtNtNtNtCsaDmO1IsOFPn_6domain10repository15item_repository34___mock_MockItemRepo_ItemRepository10___find_allNtB8_11Expectation12return_constpE0Bg_
FNDA:0,_RNCINvMs6_NtNtNtNtCsaDmO1IsOFPn_6domain10repository15item_repository34___mock_MockItemRepo_ItemRepository10___find_allNtB8_11Expectation15return_const_stpE0Bg_
FNDA:0,_RNCINvMs6_NtNtNtNtCsaDmO1IsOFPn_6domain10repository15item_repository34___mock_MockItemRepo_ItemRepository12___find_by_idNtB8_11Expectation12return_constpE0Bg_
FNDA:0,_RNCINvMs6_NtNtNtNtCsaDmO1IsOFPn_6domain10repository15item_repository34___mock_MockItemRepo_ItemRepository12___find_by_idNtB8_11Expectation15return_const_stpE0Bg_
FNDA:0,_RNCINvMs6_NtNtNtNtCsaDmO1IsOFPn_6domain10repository15item_repository34___mock_MockItemRepo_ItemRepository8___createNtB8_11Expectation12return_constpE0Bg_
FNDA:0,_RNCINvMs6_NtNtNtNtCsaDmO1IsOFPn_6domain10repository15item_repository34___mock_MockItemRepo_ItemRepository8___createNtB8_11Expectation15return_const_stpE0Bg_
FNDA:0,_RNCINvMs6_NtNtNtNtCsaDmO1IsOFPn_6domain10repository15item_repository34___mock_MockItemRepo_ItemRepository8___deleteNtB8_11Expectation12return_constpE0Bg_
FNDA:0,_RNCINvMs6_NtNtNtNtCsaDmO1IsOFPn_6domain10repository15item_repository34___mock_MockItemRepo_ItemRepository8___deleteNtB8_11Expectation15return_const_stpE0Bg_
FNDA:0,_RNCINvMs6_NtNtNtNtCsaDmO1IsOFPn_6domain10repository15item_repository34___mock_MockItemRepo_ItemRepository8___updateNtB8_11Expectation12return_constpE0Bg_
FNDA:0,_RNCINvMs6_NtNtNtNtCsaDmO1IsOFPn_6domain10repository15item_repository34___mock_MockItemRepo_ItemRepository8___updateNtB8_11Expectation15return_const_stpE0Bg_
FNDA:0,_RNvMs0_NtNtCsaDmO1IsOFPn_6domain10repository15item_repositoryNtB5_27MockItemRepo_ItemRepository10checkpoint
FNDA:0,_RNvMs1_NtNtCsaDmO1IsOFPn_6domain10repository15item_repositoryNtB5_12MockItemRepo10checkpoint
FNDA:0,_RNvMs4_NtNtNtNtCsaDmO1IsOFPn_6domain10repository15item_repository34___mock_MockItemRepo_ItemRepository10___find_allNtB5_6Common11in_sequence
FNDA:0,_RNvMs4_NtNtNtNtCsaDmO1IsOFPn_6domain10repository15item_repository34___mock_MockItemRepo_ItemRepository10___find_allNtB5_6Common4with
FNDA:0,_RNvMs4_NtNtNtNtCsaDmO1IsOFPn_6domain10repository15item_repository34___mock_MockItemRepo_ItemRepository10___find_allNtB5_6Common5never
FNDA:0,_RNvMs4_NtNtNtNtCsaDmO1IsOFPn_6domain10repository15item_repository34___mock_MockItemRepo_ItemRepository12___find_by_idNtB5_6Common11in_sequence
FNDA:0,_RNvMs4_NtNtNtNtCsaDmO1IsOFPn_6domain10repository15item_repository34___mock_MockItemRepo_ItemRepository12___find_by_idNtB5_6Common5never
FNDA:0,_RNvMs4_NtNtNtNtCsaDmO1IsOFPn_6domain10repository15item_repository34___mock_MockItemRepo_ItemRepository8___createNtB5_6Common11in_sequence
FNDA:0,_RNvMs4_NtNtNtNtCsaDmO1IsOFPn_6domain10repository15item_repository34___mock_MockItemRepo_ItemRepository8___createNtB5_6Common5never
FNDA:0,_RNvMs4_NtNtNtNtCsaDmO1IsOFPn_6domain10repository15item_repository34___mock_MockItemRepo_ItemRepository8___deleteNtB5_6Common11in_sequence
FNDA:0,_RNvMs4_NtNtNtNtCsaDmO1IsOFPn_6domain10repository15item_repository34___mock_MockItemRepo_ItemRepository8___deleteNtB5_6Common5never
FNDA:0,_RNvMs4_NtNtNtNtCsaDmO1IsOFPn_6domain10repository15item_repository34___mock_MockItemRepo_ItemRepository8___updateNtB5_6Common11in_sequence
FNDA:0,_RNvMs4_NtNtNtNtCsaDmO1IsOFPn_6domain10repository15item_repository34___mock_MockItemRepo_ItemRepository8___updateNtB5_6Common5never
FNDA:0,_RNvMs6_NtNtNtNtCsaDmO1IsOFPn_6domain10repository15item_repository34___mock_MockItemRepo_ItemRepository10___find_allNtB5_11Expectation11in_sequence
FNDA:0,_RNvMs6_NtNtNtNtCsaDmO1IsOFPn_6domain10repository15item_repository34___mock_MockItemRepo_ItemRepository10___find_allNtB5_11Expectation3new
FNDA:0,_RNvMs6_NtNtNtNtCsaDmO1IsOFPn_6domain10repository15item_repository34___mock_MockItemRepo_ItemRepository10___find_allNtB5_11Expectation4once
FNDA:0,_RNvMs6_NtNtNtNtCsaDmO1IsOFPn_6domain10repository15item_repository34___mock_MockItemRepo_ItemRepository10___find_allNtB5_11Expectation4with
FNDA:0,_RNvMs6_NtNtNtNtCsaDmO1IsOFPn_6domain10repository15item_repository34___mock_MockItemRepo_ItemRepository10___find_allNtB5_11Expectation5never
FNDA:0,_RNvMs6_NtNtNtNtCsaDmO1IsOFPn_6domain10repository15item_repository34___mock_MockItemRepo_ItemRepository12___find_by_idNtB5_11Expectation11in_sequence
FNDA:0,_RNvMs6_NtNtNtNtCsaDmO1IsOFPn_6domain10repository15item_repository34___mock_MockItemRepo_ItemRepository12___find_by_idNtB5_11Expectation3new
FNDA:0,_RNvMs6_NtNtNtNtCsaDmO1IsOFPn_6domain10repository15item_repository34___mock_MockItemRepo_ItemRepository12___find_by_idNtB5_11Expectation4once
FNDA:0,_RNvMs6_NtNtNtNtCsaDmO1IsOFPn_6domain10repository15item_repository34___mock_MockItemRepo_ItemRepository12___find_by_idNtB5_11Expectation5never
FNDA:0,_RNvMs6_NtNtNtNtCsaDmO1IsOFPn_6domain10repository15item_repository34___mock_MockItemRepo_ItemRepository8___createNtB5_11Expectation11in_sequence
FNDA:0,_RNvMs6_NtNtNtNtCsaDmO1IsOFPn_6domain10repository15item_repository34___mock_MockItemRepo_ItemRepository8___createNtB5_11Expectation3new
FNDA:0,_RNvMs6_NtNtNtNtCsaDmO1IsOFPn_6domain10repository15item_repository34___mock_MockItemRepo_ItemRepository8___createNtB5_11Expectation4once
FNDA:0,_RNvMs6_NtNtNtNtCsaDmO1IsOFPn_6domain10repository15item_repository34___mock_MockItemRepo_ItemRepository8___createNtB5_11Expectation5never
FNDA:0,_RNvMs6_NtNtNtNtCsaDmO1IsOFPn_6domain10repository15item_repository34___mock_MockItemRepo_ItemRepository8___deleteNtB5_11Expectation11in_sequence
FNDA:0,_RNvMs6_NtNtNtNtCsaDmO1IsOFPn_6domain10repository15item_repository34___mock_MockItemRepo_ItemRepository8___deleteNtB5_11Expectation3new
FNDA:0,_RNvMs6_NtNtNtNtCsaDmO1IsOFPn_6domain10repository15item_repository34___mock_MockItemRepo_ItemRepository8___deleteNtB5_11Expectation4once
FNDA:0,_RNvMs6_NtNtNtNtCsaDmO1IsOFPn_6domain10repository15item_repository34___mock_MockItemRepo_ItemRepository8___deleteNtB5_11Expectation5never
FNDA:0,_RNvMs6_NtNtNtNtCsaDmO1IsOFPn_6domain10repository15item_repository34___mock_MockItemRepo_ItemRepository8___updateNtB5_11Expectation11in_sequence
FNDA:0,_RNvMs6_NtNtNtNtCsaDmO1IsOFPn_6domain10repository15item_repository34___mock_MockItemRepo_ItemRepository8___updateNtB5_11Expectation3new
FNDA:0,_RNvMs6_NtNtNtNtCsaDmO1IsOFPn_6domain10repository15item_repository34___mock_MockItemRepo_ItemRepository8___updateNtB5_11Expectation4once
FNDA:0,_RNvMs6_NtNtNtNtCsaDmO1IsOFPn_6domain10repository15item_repository34___mock_MockItemRepo_ItemRepository8___updateNtB5_11Expectation5never
FNDA:0,_RNvMs8_NtNtNtNtCsaDmO1IsOFPn_6domain10repository15item_repository34___mock_MockItemRepo_ItemRepository10___find_allNtB5_12Expectations10checkpoint
FNDA:0,_RNvMs8_NtNtNtNtCsaDmO1IsOFPn_6domain10repository15item_repository34___mock_MockItemRepo_ItemRepository10___find_allNtB5_12Expectations3new
FNDA:0,_RNvMs8_NtNtNtNtCsaDmO1IsOFPn_6domain10repository15item_repository34___mock_MockItemRepo_ItemRepository12___find_by_idNtB5_12Expectations10checkpoint
FNDA:0,_RNvMs8_NtNtNtNtCsaDmO1IsOFPn_6domain10repository15item_repository34___mock_MockItemRepo_ItemRepository12___find_by_idNtB5_12Expectations3new
FNDA:0,_RNvMs8_NtNtNtNtCsaDmO1IsOFPn_6domain10repository15item_repository34___mock_MockItemRepo_ItemRepository8___createNtB5_12Expectations10checkpoint
FNDA:0,_RNvMs8_NtNtNtNtCsaDmO1IsOFPn_6domain10repository15item_repository34___mock_MockItemRepo_ItemRepository8___createNtB5_12Expectations3new
FNDA:0,_RNvMs8_NtNtNtNtCsaDmO1IsOFPn_6domain10repository15item_repository34___mock_MockItemRepo_ItemRepository8___deleteNtB5_12Expectations10checkpoint
FNDA:0,_RNvMs8_NtNtNtNtCsaDmO1IsOFPn_6domain10repository15item_repository34___mock_MockItemRepo_ItemRepository8___deleteNtB5_12Expectations3new
FNDA:0,_RNvMs8_NtNtNtNtCsaDmO1IsOFPn_6domain10repository15item_repository34___mock_MockItemRepo_ItemRepository8___updateNtB5_12Expectations10checkpoint
FNDA:0,_RNvMs8_NtNtNtNtCsaDmO1IsOFPn_6domain10repository15item_repository34___mock_MockItemRepo_ItemRepository8___updateNtB5_12Expectations3new
FNDA:1,_RINvMs4_NtNtNtNtCsaDmO1IsOFPn_6domain10repository15item_repository34___mock_MockItemRepo_ItemRepository8___deleteNtB6_6Common4withINtNtCs9l2CZqY40TY_10predicates3ord11EqPredicateyEEBe_
FNDA:1,_RINvMs6_NtNtNtNtCsaDmO1IsOFPn_6domain10repository15item_repository34___mock_MockItemRepo_ItemRepository8___deleteNtB6_11Expectation11return_onceNCNCNvNtBa_5testss_19test_delete_success00EBe_
FNDA:1,_RINvMs6_NtNtNtNtCsaDmO1IsOFPn_6domain10repository15item_repository34___mock_MockItemRepo_ItemRepository8___deleteNtB6_11Expectation4withINtNtCs9l2CZqY40TY_10predicates3ord11EqPredicateyEEBe_
FNDA:1,_RNCNvMs0_NtNtNtNtCsaDmO1IsOFPn_6domain10repository15item_repository34___mock_MockItemRepo_ItemRepository8___deleteNtB7_7Matcher7matches0Bf_
FNDA:1,_RNCNvMsa_NtNtNtNtCsaDmO1IsOFPn_6domain10repository15item_repository34___mock_MockItemRepo_ItemRepository8___deleteNtB7_12Expectations4call0Bf_
FNDA:1,_RNCNvMsa_NtNtNtNtCsaDmO1IsOFPn_6domain10repository15item_repository34___mock_MockItemRepo_ItemRepository8___deleteNtB7_12Expectations4calls_0Bf_
FNDA:1,_RINvMs6_NtNtNtNtCsaDmO1IsOFPn_6domain10repository15item_repository34___mock_MockItemRepo_ItemRepository10___find_allNtB6_11Expectation11return_onceNCNCNvNtBa_5testss_21test_find_all_success00EBe_
FNDA:0,_RNCNvMs0_NtNtNtNtCsaDmO1IsOFPn_6domain10repository15item_repository34___mock_MockItemRepo_ItemRepository10___find_allNtB7_7Matcher7matches0Bf_
FNDA:1,_RNCNvMsa_NtNtNtNtCsaDmO1IsOFPn_6domain10repository15item_repository34___mock_MockItemRepo_ItemRepository10___find_allNtB7_12Expectations4call0Bf_
FNDA:1,_RNCNvMsa_NtNtNtNtCsaDmO1IsOFPn_6domain10repository15item_repository34___mock_MockItemRepo_ItemRepository10___find_allNtB7_12Expectations4calls_0Bf_
FNDA:6,_RNvMs1_NtNtCsaDmO1IsOFPn_6domain10repository15item_repositoryNtB5_12MockItemRepo3new
FNDA:1,_RNvMs2_NtNtCsaDmO1IsOFPn_6domain10repository15item_repositoryNtB5_12MockItemRepo13expect_create
FNDA:1,_RNvMs2_NtNtCsaDmO1IsOFPn_6domain10repository15item_repositoryNtB5_12MockItemRepo13expect_delete
FNDA:1,_RNvMs2_NtNtCsaDmO1IsOFPn_6domain10repository15item_repositoryNtB5_12MockItemRepo13expect_update
FNDA:1,_RNvMs2_NtNtCsaDmO1IsOFPn_6domain10repository15item_repositoryNtB5_12MockItemRepo15expect_find_all
FNDA:2,_RNvMs2_NtNtCsaDmO1IsOFPn_6domain10repository15item_repositoryNtB5_12MockItemRepo17expect_find_by_id
FNDA:6,_RNvXNtNtCsaDmO1IsOFPn_6domain10repository15item_repositoryNtB2_12MockItemRepoNtNtCsfvfooZQ3Axs_4core7default7Default7default
FNDA:2,_RNvXs3_NtNtCsaDmO1IsOFPn_6domain10repository15item_repositoryNtB5_12MockItemRepoNtB5_14ItemRepository10find_by_id
FNDA:1,_RNvXs3_NtNtCsaDmO1IsOFPn_6domain10repository15item_repositoryNtB5_12MockItemRepoNtB5_14ItemRepository6create
FNDA:1,_RNvXs3_NtNtCsaDmO1IsOFPn_6domain10repository15item_repositoryNtB5_12MockItemRepoNtB5_14ItemRepository6delete
FNDA:1,_RNvXs3_NtNtCsaDmO1IsOFPn_6domain10repository15item_repositoryNtB5_12MockItemRepoNtB5_14ItemRepository6update
FNDA:1,_RNvXs3_NtNtCsaDmO1IsOFPn_6domain10repository15item_repositoryNtB5_12MockItemRepoNtB5_14ItemRepository8find_all
FNDA:6,_RNvXs_NtNtCsaDmO1IsOFPn_6domain10repository15item_repositoryNtB4_27MockItemRepo_ItemRepositoryNtNtCsfvfooZQ3Axs_4core7default7Default7default
FNDA:1,_RNvMNtNtNtNtCsaDmO1IsOFPn_6domain10repository15item_repository34___mock_MockItemRepo_ItemRepository8___updateNtB2_5Rfunc8call_mut
FNDA:1,_RNvMs0_NtNtNtNtCsaDmO1IsOFPn_6domain10repository15item_repository34___mock_MockItemRepo_ItemRepository8___updateNtB5_7Matcher7matches
FNDA:1,_RNvMs4_NtNtNtNtCsaDmO1IsOFPn_6domain10repository15item_repository34___mock_MockItemRepo_ItemRepository8___updateNtB5_6Common15verify_sequence
FNDA:1,_RNvMs4_NtNtNtNtCsaDmO1IsOFPn_6domain10repository15item_repository34___mock_MockItemRepo_ItemRepository8___updateNtB5_6Common16satisfy_sequence
FNDA:1,_RNvMs4_NtNtNtNtCsaDmO1IsOFPn_6domain10repository15item_repository34___mock_MockItemRepo_ItemRepository8___updateNtB5_6Common4call
FNDA:1,_RNvMs4_NtNtNtNtCsaDmO1IsOFPn_6domain10repository15item_repository34___mock_MockItemRepo_ItemRepository8___updateNtB5_6Common7is_done
FNDA:1,_RNvMs4_NtNtNtNtCsaDmO1IsOFPn_6domain10repository15item_repository34___mock_MockItemRepo_ItemRepository8___updateNtB5_6Common7matches
FNDA:1,_RNvMs6_NtNtNtNtCsaDmO1IsOFPn_6domain10repository15item_repository34___mock_MockItemRepo_ItemRepository8___updateNtB5_11Expectation4call
FNDA:1,_RNvMs6_NtNtNtNtCsaDmO1IsOFPn_6domain10repository15item_repository34___mock_MockItemRepo_ItemRepository8___updateNtB5_11Expectation7is_done
FNDA:1,_RNvMs6_NtNtNtNtCsaDmO1IsOFPn_6domain10repository15item_repository34___mock_MockItemRepo_ItemRepository8___updateNtB5_11Expectation7matches
FNDA:1,_RNvMs8_NtNtNtNtCsaDmO1IsOFPn_6domain10repository15item_repository34___mock_MockItemRepo_ItemRepository8___updateNtB5_12Expectations6expect
FNDA:1,_RNvMsa_NtNtNtNtCsaDmO1IsOFPn_6domain10repository15item_repository34___mock_MockItemRepo_ItemRepository8___updateNtB5_12Expectations4call
FNDA:1,_RNvXs1_NtNtNtNtCsaDmO1IsOFPn_6domain10repository15item_repository34___mock_MockItemRepo_ItemRepository8___updateNtB5_7MatcherNtNtCsfvfooZQ3Axs_4core7default7Default7default
FNDA:1,_RNvXs2_NtNtNtNtCsaDmO1IsOFPn_6domain10repository15item_repository34___mock_MockItemRepo_ItemRepository8___updateNtB5_7MatcherNtNtCsfvfooZQ3Axs_4core3fmt7Display3fmt
FNDA:1,_RNvXs3_NtNtNtNtCsaDmO1IsOFPn_6domain10repository15item_repository34___mock_MockItemRepo_ItemRepository8___updateNtB5_6CommonNtNtCsfvfooZQ3Axs_4core7default7Default7default
FNDA:1,_RNvXs7_NtNtNtNtCsaDmO1IsOFPn_6domain10repository15item_repository34___mock_MockItemRepo_ItemRepository8___updateNtB5_11ExpectationNtNtCsfvfooZQ3Axs_4core7default7Default7default
FNDA:6,_RNvXs9_NtNtNtNtCsaDmO1IsOFPn_6domain10repository15item_repository34___mock_MockItemRepo_ItemRepository8___updateNtB5_12ExpectationsNtNtCsfvfooZQ3Axs_4core7default7Default7default
FNDA:1,_RNvXs_NtNtNtNtCsaDmO1IsOFPn_6domain10repository15item_repository34___mock_MockItemRepo_ItemRepository8___updateNtB4_5RfuncNtNtCsfvfooZQ3Axs_4core7default7Default7default
FNDA:1,_RNvMNtNtNtNtCsaDmO1IsOFPn_6domain10repository15item_repository34___mock_MockItemRepo_ItemRepository10___find_allNtB2_5Rfunc8call_mut
FNDA:1,_RNvMs0_NtNtNtNtCsaDmO1IsOFPn_6domain10repository15item_repository34___mock_MockItemRepo_ItemRepository10___find_allNtB5_7Matcher7matches
FNDA:1,_RNvMs4_NtNtNtNtCsaDmO1IsOFPn_6domain10repository15item_repository34___mock_MockItemRepo_ItemRepository10___find_allNtB5_6Common15verify_sequence
FNDA:1,_RNvMs4_NtNtNtNtCsaDmO1IsOFPn_6domain10repository15item_repository34___mock_MockItemRepo_ItemRepository10___find_allNtB5_6Common16satisfy_sequence
FNDA:1,_RNvMs4_NtNtNtNtCsaDmO1IsOFPn_6domain10repository15item_repository34___mock_MockItemRepo_ItemRepository10___find_allNtB5_6Common4call
FNDA:1,_RNvMs4_NtNtNtNtCsaDmO1IsOFPn_6domain10repository15item_repository34___mock_MockItemRepo_ItemRepository10___find_allNtB5_6Common7is_done
FNDA:1,_RNvMs4_NtNtNtNtCsaDmO1IsOFPn_6domain10repository15item_repository34___mock_MockItemRepo_ItemRepository10___find_allNtB5_6Common7matches
FNDA:1,_RNvMs6_NtNtNtNtCsaDmO1IsOFPn_6domain10repository15item_repository34___mock_MockItemRepo_ItemRepository10___find_allNtB5_11Expectation4call
FNDA:1,_RNvMs6_NtNtNtNtCsaDmO1IsOFPn_6domain10repository15item_repository34___mock_MockItemRepo_ItemRepository10___find_allNtB5_11Expectation7is_done
FNDA:1,_RNvMs6_NtNtNtNtCsaDmO1IsOFPn_6domain10repository15item_repository34___mock_MockItemRepo_ItemRepository10___find_allNtB5_11Expectation7matches
FNDA:1,_RNvMs8_NtNtNtNtCsaDmO1IsOFPn_6domain10repository15item_repository34___mock_MockItemRepo_ItemRepository10___find_allNtB5_12Expectations6expect
FNDA:1,_RNvMsa_NtNtNtNtCsaDmO1IsOFPn_6domain10repository15item_repository34___mock_MockItemRepo_ItemRepository10___find_allNtB5_12Expectations4call
FNDA:1,_RNvXs1_NtNtNtNtCsaDmO1IsOFPn_6domain10repository15item_repository34___mock_MockItemRepo_ItemRepository10___find_allNtB5_7MatcherNtNtCsfvfooZQ3Axs_4core7default7Default7default
FNDA:1,_RNvXs2_NtNtNtNtCsaDmO1IsOFPn_6domain10repository15item_repository34___mock_MockItemRepo_ItemRepository10___find_allNtB5_7MatcherNtNtCsfvfooZQ3Axs_4core3fmt7Display3fmt
FNDA:1,_RNvXs3_NtNtNtNtCsaDmO1IsOFPn_6domain10repository15item_repository34___mock_MockItemRepo_ItemRepository10___find_allNtB5_6CommonNtNtCsfvfooZQ3Axs_4core7default7Default7default
FNDA:1,_RNvXs7_NtNtNtNtCsaDmO1IsOFPn_6domain10repository15item_repository34___mock_MockItemRepo_ItemRepository10___find_allNtB5_11ExpectationNtNtCsfvfooZQ3Axs_4core7default7Default7default
FNDA:6,_RNvXs9_NtNtNtNtCsaDmO1IsOFPn_6domain10repository15item_repository34___mock_MockItemRepo_ItemRepository10___find_allNtB5_12ExpectationsNtNtCsfvfooZQ3Axs_4core7default7Default7default
FNDA:1,_RNvXs_NtNtNtNtCsaDmO1IsOFPn_6domain10repository15item_repository34___mock_MockItemRepo_ItemRepository10___find_allNtB4_5RfuncNtNtCsfvfooZQ3Axs_4core7default7Default7default
FNDA:2,_RNvMNtNtNtNtCsaDmO1IsOFPn_6domain10repository15item_repository34___mock_MockItemRepo_ItemRepository12___find_by_idNtB2_5Rfunc8call_mut
FNDA:2,_RNvMs0_NtNtNtNtCsaDmO1IsOFPn_6domain10repository15item_repository34___mock_MockItemRepo_ItemRepository12___find_by_idNtB5_7Matcher7matches
FNDA:2,_RNvMs4_NtNtNtNtCsaDmO1IsOFPn_6domain10repository15item_repository34___mock_MockItemRepo_ItemRepository12___find_by_idNtB5_6Common15verify_sequence
FNDA:2,_RNvMs4_NtNtNtNtCsaDmO1IsOFPn_6domain10repository15item_repository34___mock_MockItemRepo_ItemRepository12___find_by_idNtB5_6Common16satisfy_sequence
FNDA:2,_RNvMs4_NtNtNtNtCsaDmO1IsOFPn_6domain10repository15item_repository34___mock_MockItemRepo_ItemRepository12___find_by_idNtB5_6Common4call
FNDA:2,_RNvMs4_NtNtNtNtCsaDmO1IsOFPn_6domain10repository15item_repository34___mock_MockItemRepo_ItemRepository12___find_by_idNtB5_6Common7is_done
FNDA:2,_RNvMs4_NtNtNtNtCsaDmO1IsOFPn_6domain10repository15item_repository34___mock_MockItemRepo_ItemRepository12___find_by_idNtB5_6Common7matches
FNDA:2,_RNvMs6_NtNtNtNtCsaDmO1IsOFPn_6domain10repository15item_repository34___mock_MockItemRepo_ItemRepository12___find_by_idNtB5_11Expectation4call
FNDA:2,_RNvMs6_NtNtNtNtCsaDmO1IsOFPn_6domain10repository15item_repository34___mock_MockItemRepo_ItemRepository12___find_by_idNtB5_11Expectation7is_done
FNDA:2,_RNvMs6_NtNtNtNtCsaDmO1IsOFPn_6domain10repository15item_repository34___mock_MockItemRepo_ItemRepository12___find_by_idNtB5_11Expectation7matches
FNDA:2,_RNvMs8_NtNtNtNtCsaDmO1IsOFPn_6domain10repository15item_repository34___mock_MockItemRepo_ItemRepository12___find_by_idNtB5_12Expectations6expect
FNDA:2,_RNvMsa_NtNtNtNtCsaDmO1IsOFPn_6domain10repository15item_repository34___mock_MockItemRepo_ItemRepository12___find_by_idNtB5_12Expectations4call
FNDA:2,_RNvXs1_NtNtNtNtCsaDmO1IsOFPn_6domain10repository15item_repository34___mock_MockItemRepo_ItemRepository12___find_by_idNtB5_7MatcherNtNtCsfvfooZQ3Axs_4core7default7Default7default
FNDA:2,_RNvXs2_NtNtNtNtCsaDmO1IsOFPn_6domain10repository15item_repository34___mock_MockItemRepo_ItemRepository12___find_by_idNtB5_7MatcherNtNtCsfvfooZQ3Axs_4core3fmt7Display3fmt
FNDA:2,_RNvXs3_NtNtNtNtCsaDmO1IsOFPn_6domain10repository15item_repository34___mock_MockItemRepo_ItemRepository12___find_by_idNtB5_6CommonNtNtCsfvfooZQ3Axs_4core7default7Default7default
FNDA:2,_RNvXs7_NtNtNtNtCsaDmO1IsOFPn_6domain10repository15item_repository34___mock_MockItemRepo_ItemRepository12___find_by_idNtB5_11ExpectationNtNtCsfvfooZQ3Axs_4core7default7Default7default
FNDA:6,_RNvXs9_NtNtNtNtCsaDmO1IsOFPn_6domain10repository15item_repository34___mock_MockItemRepo_ItemRepository12___find_by_idNtB5_12ExpectationsNtNtCsfvfooZQ3Axs_4core7default7Default7default
FNDA:2,_RNvXs_NtNtNtNtCsaDmO1IsOFPn_6domain10repository15item_repository34___mock_MockItemRepo_ItemRepository12___find_by_idNtB4_5RfuncNtNtCsfvfooZQ3Axs_4core7default7Default7default
FNDA:1,_RINvMs4_NtNtNtNtCsaDmO1IsOFPn_6domain10repository15item_repository34___mock_MockItemRepo_ItemRepository8___createNtB6_6Common4withINtNtCs9l2CZqY40TY_10predicates8function11FnPredicateNCNCNvNtBa_5testss_19test_create_success00NtNtNtBe_5model4item4ItemEEBe_
FNDA:1,_RINvMs6_NtNtNtNtCsaDmO1IsOFPn_6domain10repository15item_repository34___mock_MockItemRepo_ItemRepository8___createNtB6_11Expectation11return_onceNCNCNvNtBa_5testss_19test_create_success0s_0EBe_
FNDA:1,_RINvMs6_NtNtNtNtCsaDmO1IsOFPn_6domain10repository15item_repository34___mock_MockItemRepo_ItemRepository8___createNtB6_11Expectation4withINtNtCs9l2CZqY40TY_10predicates8function11FnPredicateNCNCNvNtBa_5testss_19test_create_success00NtNtNtBe_5model4item4ItemEEBe_
FNDA:1,_RNCNvMs0_NtNtNtNtCsaDmO1IsOFPn_6domain10repository15item_repository34___mock_MockItemRepo_ItemRepository8___createNtB7_7Matcher7matches0Bf_
FNDA:1,_RNCNvMsa_NtNtNtNtCsaDmO1IsOFPn_6domain10repository15item_repository34___mock_MockItemRepo_ItemRepository8___createNtB7_12Expectations4call0Bf_
FNDA:1,_RNCNvMsa_NtNtNtNtCsaDmO1IsOFPn_6domain10repository15item_repository34___mock_MockItemRepo_ItemRepository8___createNtB7_12Expectations4calls_0Bf_
FNDA:1,_RNvNtNtNtCsaDmO1IsOFPn_6domain10repository15item_repository5testss_19test_create_success
FNDA:1,_RNvNtNtNtCsaDmO1IsOFPn_6domain10repository15item_repository5testss_19test_delete_success
FNDA:1,_RNvNtNtNtCsaDmO1IsOFPn_6domain10repository15item_repository5testss_19test_update_success
FNDA:1,_RNvNtNtNtCsaDmO1IsOFPn_6domain10repository15item_repository5testss_21test_find_all_success
FNDA:1,_RNvNtNtNtCsaDmO1IsOFPn_6domain10repository15item_repository5testss_21test_find_by_id_found
FNDA:1,_RNvNtNtNtCsaDmO1IsOFPn_6domain10repository15item_repository5testss_25test_find_by_id_not_found
FNDA:1,_RNvMNtNtNtNtCsaDmO1IsOFPn_6domain10repository15item_repository34___mock_MockItemRepo_ItemRepository8___deleteNtB2_5Rfunc8call_mut
FNDA:1,_RNvMs0_NtNtNtNtCsaDmO1IsOFPn_6domain10repository15item_repository34___mock_MockItemRepo_ItemRepository8___deleteNtB5_7Matcher7matches
FNDA:1,_RNvMs4_NtNtNtNtCsaDmO1IsOFPn_6domain10repository15item_repository34___mock_MockItemRepo_ItemRepository8___deleteNtB5_6Common15verify_sequence
FNDA:1,_RNvMs4_NtNtNtNtCsaDmO1IsOFPn_6domain10repository15item_repository34___mock_MockItemRepo_ItemRepository8___deleteNtB5_6Common16satisfy_sequence
FNDA:1,_RNvMs4_NtNtNtNtCsaDmO1IsOFPn_6domain10repository15item_repository34___mock_MockItemRepo_ItemRepository8___deleteNtB5_6Common4call
FNDA:1,_RNvMs4_NtNtNtNtCsaDmO1IsOFPn_6domain10repository15item_repository34___mock_MockItemRepo_ItemRepository8___deleteNtB5_6Common7is_done
FNDA:1,_RNvMs4_NtNtNtNtCsaDmO1IsOFPn_6domain10repository15item_repository34___mock_MockItemRepo_ItemRepository8___deleteNtB5_6Common7matches
FNDA:1,_RNvMs6_NtNtNtNtCsaDmO1IsOFPn_6domain10repository15item_repository34___mock_MockItemRepo_ItemRepository8___deleteNtB5_11Expectation4call
FNDA:1,_RNvMs6_NtNtNtNtCsaDmO1IsOFPn_6domain10repository15item_repository34___mock_MockItemRepo_ItemRepository8___deleteNtB5_11Expectation7is_done
FNDA:1,_RNvMs6_NtNtNtNtCsaDmO1IsOFPn_6domain10repository15item_repository34___mock_MockItemRepo_ItemRepository8___deleteNtB5_11Expectation7matches
FNDA:1,_RNvMs8_NtNtNtNtCsaDmO1IsOFPn_6domain10repository15item_repository34___mock_MockItemRepo_ItemRepository8___deleteNtB5_12Expectations6expect
FNDA:1,_RNvMsa_NtNtNtNtCsaDmO1IsOFPn_6domain10repository15item_repository34___mock_MockItemRepo_ItemRepository8___deleteNtB5_12Expectations4call
FNDA:1,_RNvXs1_NtNtNtNtCsaDmO1IsOFPn_6domain10repository15item_repository34___mock_MockItemRepo_ItemRepository8___deleteNtB5_7MatcherNtNtCsfvfooZQ3Axs_4core7default7Default7default
FNDA:1,_RNvXs2_NtNtNtNtCsaDmO1IsOFPn_6domain10repository15item_repository34___mock_MockItemRepo_ItemRepository8___deleteNtB5_7MatcherNtNtCsfvfooZQ3Axs_4core3fmt7Display3fmt
FNDA:1,_RNvXs3_NtNtNtNtCsaDmO1IsOFPn_6domain10repository15item_repository34___mock_MockItemRepo_ItemRepository8___deleteNtB5_6CommonNtNtCsfvfooZQ3Axs_4core7default7Default7default
FNDA:1,_RNvXs7_NtNtNtNtCsaDmO1IsOFPn_6domain10repository15item_repository34___mock_MockItemRepo_ItemRepository8___deleteNtB5_11ExpectationNtNtCsfvfooZQ3Axs_4core7default7Default7default
FNDA:6,_RNvXs9_NtNtNtNtCsaDmO1IsOFPn_6domain10repository15item_repository34___mock_MockItemRepo_ItemRepository8___deleteNtB5_12ExpectationsNtNtCsfvfooZQ3Axs_4core7default7Default7default
FNDA:1,_RNvXs_NtNtNtNtCsaDmO1IsOFPn_6domain10repository15item_repository34___mock_MockItemRepo_ItemRepository8___deleteNtB4_5RfuncNtNtCsfvfooZQ3Axs_4core7default7Default7default
FNDA:1,_RNCNCNvNtNtNtCsaDmO1IsOFPn_6domain10repository15item_repository5testss_19test_create_success00Bb_
FNDA:1,_RNCNCNvNtNtNtCsaDmO1IsOFPn_6domain10repository15item_repository5testss_19test_create_success0s_0Bb_
FNDA:1,_RNCNCNvNtNtNtCsaDmO1IsOFPn_6domain10repository15item_repository5testss_19test_delete_success00Bb_
FNDA:1,_RNCNCNvNtNtNtCsaDmO1IsOFPn_6domain10repository15item_repository5testss_19test_update_success00Bb_
FNDA:1,_RNCNCNvNtNtNtCsaDmO1IsOFPn_6domain10repository15item_repository5testss_19test_update_success0s_0Bb_
FNDA:1,_RNCNCNvNtNtNtCsaDmO1IsOFPn_6domain10repository15item_repository5testss_21test_find_all_success00Bb_
FNDA:1,_RNCNCNvNtNtNtCsaDmO1IsOFPn_6domain10repository15item_repository5testss_21test_find_by_id_found00Bb_
FNDA:1,_RNCNCNvNtNtNtCsaDmO1IsOFPn_6domain10repository15item_repository5testss_25test_find_by_id_not_found00Bb_
FNDA:1,_RNCNvNtNtNtCsaDmO1IsOFPn_6domain10repository15item_repository5testss_19test_create_success0B9_
FNDA:1,_RNCNvNtNtNtCsaDmO1IsOFPn_6domain10repository15item_repository5testss_19test_delete_success0B9_
FNDA:1,_RNCNvNtNtNtCsaDmO1IsOFPn_6domain10repository15item_repository5testss_19test_update_success0B9_
FNDA:1,_RNCNvNtNtNtCsaDmO1IsOFPn_6domain10repository15item_repository5testss_21test_find_all_success0B9_
FNDA:1,_RNCNvNtNtNtCsaDmO1IsOFPn_6domain10repository15item_repository5testss_21test_find_by_id_found0B9_
FNDA:1,_RNCNvNtNtNtCsaDmO1IsOFPn_6domain10repository15item_repository5testss_25test_find_by_id_not_found0B9_
FNDA:2,_RNCNvXs3_NtNtCsaDmO1IsOFPn_6domain10repository15item_repositoryNtB7_12MockItemRepoNtB7_14ItemRepository10find_by_id0Bb_
FNDA:1,_RNCNvXs3_NtNtCsaDmO1IsOFPn_6domain10repository15item_repositoryNtB7_12MockItemRepoNtB7_14ItemRepository6create0Bb_
FNDA:1,_RNCNvXs3_NtNtCsaDmO1IsOFPn_6domain10repository15item_repositoryNtB7_12MockItemRepoNtB7_14ItemRepository6delete0Bb_
FNDA:1,_RNCNvXs3_NtNtCsaDmO1IsOFPn_6domain10repository15item_repositoryNtB7_12MockItemRepoNtB7_14ItemRepository6update0Bb_
FNDA:1,_RNCNvXs3_NtNtCsaDmO1IsOFPn_6domain10repository15item_repositoryNtB7_12MockItemRepoNtB7_14ItemRepository8find_all0Bb_
FNDA:1,_RNvXs5_NtNtNtNtCsaDmO1IsOFPn_6domain10repository15item_repository34___mock_MockItemRepo_ItemRepository10___find_allNtB5_6CommonNtNtNtCsfvfooZQ3Axs_4core3ops4drop4Drop4drop
FNDA:2,_RNvXs5_NtNtNtNtCsaDmO1IsOFPn_6domain10repository15item_repository34___mock_MockItemRepo_ItemRepository12___find_by_idNtB5_6CommonNtNtNtCsfvfooZQ3Axs_4core3ops4drop4Drop4drop
FNDA:1,_RNvXs5_NtNtNtNtCsaDmO1IsOFPn_6domain10repository15item_repository34___mock_MockItemRepo_ItemRepository8___createNtB5_6CommonNtNtNtCsfvfooZQ3Axs_4core3ops4drop4Drop4drop
FNDA:1,_RNvXs5_NtNtNtNtCsaDmO1IsOFPn_6domain10repository15item_repository34___mock_MockItemRepo_ItemRepository8___deleteNtB5_6CommonNtNtNtCsfvfooZQ3Axs_4core3ops4drop4Drop4drop
FNDA:1,_RNvXs5_NtNtNtNtCsaDmO1IsOFPn_6domain10repository15item_repository34___mock_MockItemRepo_ItemRepository8___updateNtB5_6CommonNtNtNtCsfvfooZQ3Axs_4core3ops4drop4Drop4drop
FNDA:2,_RINvMs4_NtNtNtNtCsaDmO1IsOFPn_6domain10repository15item_repository34___mock_MockItemRepo_ItemRepository12___find_by_idNtB6_6Common4withINtNtCs9l2CZqY40TY_10predicates3ord11EqPredicateyEEBe_
FNDA:1,_RINvMs6_NtNtNtNtCsaDmO1IsOFPn_6domain10repository15item_repository34___mock_MockItemRepo_ItemRepository12___find_by_idNtB6_11Expectation11return_onceNCNCNvNtBa_5testss_21test_find_by_id_found00EBe_
FNDA:1,_RINvMs6_NtNtNtNtCsaDmO1IsOFPn_6domain10repository15item_repository34___mock_MockItemRepo_ItemRepository12___find_by_idNtB6_11Expectation11return_onceNCNCNvNtBa_5testss_25test_find_by_id_not_found00EBe_
FNDA:2,_RINvMs6_NtNtNtNtCsaDmO1IsOFPn_6domain10repository15item_repository34___mock_MockItemRepo_ItemRepository12___find_by_idNtB6_11Expectation4withINtNtCs9l2CZqY40TY_10predicates3ord11EqPredicateyEEBe_
FNDA:2,_RNCNvMs0_NtNtNtNtCsaDmO1IsOFPn_6domain10repository15item_repository34___mock_MockItemRepo_ItemRepository12___find_by_idNtB7_7Matcher7matches0Bf_
FNDA:2,_RNCNvMsa_NtNtNtNtCsaDmO1IsOFPn_6domain10repository15item_repository34___mock_MockItemRepo_ItemRepository12___find_by_idNtB7_12Expectations4call0Bf_
FNDA:2,_RNCNvMsa_NtNtNtNtCsaDmO1IsOFPn_6domain10repository15item_repository34___mock_MockItemRepo_ItemRepository12___find_by_idNtB7_12Expectations4calls_0Bf_
FNDA:1,_RINvMs4_NtNtNtNtCsaDmO1IsOFPn_6domain10repository15item_repository34___mock_MockItemRepo_ItemRepository8___updateNtB6_6Common4withINtNtCs9l2CZqY40TY_10predicates8function11FnPredicateNCNCNvNtBa_5testss_19test_update_success00NtNtNtBe_5model4item4ItemEEBe_
FNDA:1,_RINvMs6_NtNtNtNtCsaDmO1IsOFPn_6domain10repository15item_repository34___mock_MockItemRepo_ItemRepository8___updateNtB6_11Expectation11return_onceNCNCNvNtBa_5testss_19test_update_success0s_0EBe_
FNDA:1,_RINvMs6_NtNtNtNtCsaDmO1IsOFPn_6domain10repository15item_repository34___mock_MockItemRepo_ItemRepository8___updateNtB6_11Expectation4withINtNtCs9l2CZqY40TY_10predicates8function11FnPredicateNCNCNvNtBa_5testss_19test_update_success00NtNtNtBe_5model4item4ItemEEBe_
FNDA:1,_RNCNvMs0_NtNtNtNtCsaDmO1IsOFPn_6domain10repository15item_repository34___mock_MockItemRepo_ItemRepository8___updateNtB7_7Matcher7matches0Bf_
FNDA:1,_RNCNvMsa_NtNtNtNtCsaDmO1IsOFPn_6domain10repository15item_repository34___mock_MockItemRepo_ItemRepository8___updateNtB7_12Expectations4call0Bf_
FNDA:1,_RNCNvMsa_NtNtNtNtCsaDmO1IsOFPn_6domain10repository15item_repository34___mock_MockItemRepo_ItemRepository8___updateNtB7_12Expectations4calls_0Bf_
FNDA:1,_RNvMNtNtNtNtCsaDmO1IsOFPn_6domain10repository15item_repository34___mock_MockItemRepo_ItemRepository8___createNtB2_5Rfunc8call_mut
FNDA:1,_RNvMs0_NtNtNtNtCsaDmO1IsOFPn_6domain10repository15item_repository34___mock_MockItemRepo_ItemRepository8___createNtB5_7Matcher7matches
FNDA:1,_RNvMs4_NtNtNtNtCsaDmO1IsOFPn_6domain10repository15item_repository34___mock_MockItemRepo_ItemRepository8___createNtB5_6Common15verify_sequence
FNDA:1,_RNvMs4_NtNtNtNtCsaDmO1IsOFPn_6domain10repository15item_repository34___mock_MockItemRepo_ItemRepository8___createNtB5_6Common16satisfy_sequence
FNDA:1,_RNvMs4_NtNtNtNtCsaDmO1IsOFPn_6domain10repository15item_repository34___mock_MockItemRepo_ItemRepository8___createNtB5_6Common4call
FNDA:1,_RNvMs4_NtNtNtNtCsaDmO1IsOFPn_6domain10repository15item_repository34___mock_MockItemRepo_ItemRepository8___createNtB5_6Common7is_done
FNDA:1,_RNvMs4_NtNtNtNtCsaDmO1IsOFPn_6domain10repository15item_repository34___mock_MockItemRepo_ItemRepository8___createNtB5_6Common7matches
FNDA:1,_RNvMs6_NtNtNtNtCsaDmO1IsOFPn_6domain10repository15item_repository34___mock_MockItemRepo_ItemRepository8___createNtB5_11Expectation4call
FNDA:1,_RNvMs6_NtNtNtNtCsaDmO1IsOFPn_6domain10repository15item_repository34___mock_MockItemRepo_ItemRepository8___createNtB5_11Expectation7is_done
FNDA:1,_RNvMs6_NtNtNtNtCsaDmO1IsOFPn_6domain10repository15item_repository34___mock_MockItemRepo_ItemRepository8___createNtB5_11Expectation7matches
FNDA:1,_RNvMs8_NtNtNtNtCsaDmO1IsOFPn_6domain10repository15item_repository34___mock_MockItemRepo_ItemRepository8___createNtB5_12Expectations6expect
FNDA:1,_RNvMsa_NtNtNtNtCsaDmO1IsOFPn_6domain10repository15item_repository34___mock_MockItemRepo_ItemRepository8___createNtB5_12Expectations4call
FNDA:1,_RNvXs1_NtNtNtNtCsaDmO1IsOFPn_6domain10repository15item_repository34___mock_MockItemRepo_ItemRepository8___createNtB5_7MatcherNtNtCsfvfooZQ3Axs_4core7default7Default7default
FNDA:1,_RNvXs2_NtNtNtNtCsaDmO1IsOFPn_6domain10repository15item_repository34___mock_MockItemRepo_ItemRepository8___createNtB5_7MatcherNtNtCsfvfooZQ3Axs_4core3fmt7Display3fmt
FNDA:1,_RNvXs3_NtNtNtNtCsaDmO1IsOFPn_6domain10repository15item_repository34___mock_MockItemRepo_ItemRepository8___createNtB5_6CommonNtNtCsfvfooZQ3Axs_4core7default7Default7default
FNDA:1,_RNvXs7_NtNtNtNtCsaDmO1IsOFPn_6domain10repository15item_repository34___mock_MockItemRepo_ItemRepository8___createNtB5_11ExpectationNtNtCsfvfooZQ3Axs_4core7default7Default7default
FNDA:6,_RNvXs9_NtNtNtNtCsaDmO1IsOFPn_6domain10repository15item_repository34___mock_MockItemRepo_ItemRepository8___createNtB5_12ExpectationsNtNtCsfvfooZQ3Axs_4core7default7Default7default
FNDA:1,_RNvXs_NtNtNtNtCsaDmO1IsOFPn_6domain10repository15item_repository34___mock_MockItemRepo_ItemRepository8___createNtB4_5RfuncNtNtCsfvfooZQ3Axs_4core7default7Default7default
FNF:22
FNH:22
DA:22,135
DA:23,135
DA:24,135
DA:25,135
DA:26,135
DA:27,135
DA:28,135
DA:29,135
DA:30,135
DA:31,135
DA:32,135
DA:39,1
DA:40,1
DA:41,1
DA:42,1
DA:43,1
DA:44,1
DA:45,1
DA:46,1
DA:47,1
DA:48,1
DA:49,1
DA:50,1
DA:51,1
DA:52,1
DA:53,1
DA:54,1
DA:55,1
DA:56,1
DA:57,1
DA:58,1
DA:59,1
DA:60,1
DA:61,1
DA:62,1
DA:63,1
DA:64,1
DA:67,1
DA:68,1
DA:69,1
DA:70,1
DA:71,1
DA:72,1
DA:73,1
DA:74,1
DA:75,1
DA:76,1
DA:77,1
DA:78,1
DA:79,1
DA:80,1
DA:81,1
DA:82,1
DA:83,1
DA:84,1
DA:85,1
DA:86,1
DA:89,1
DA:90,1
DA:91,1
DA:92,1
DA:93,1
DA:94,1
DA:95,1
DA:96,1
DA:97,1
DA:98,1
DA:101,1
DA:102,1
DA:103,1
DA:104,1
DA:105,1
DA:106,1
DA:107,1
DA:108,1
DA:109,1
DA:110,1
DA:111,1
DA:112,1
DA:113,1
DA:114,1
DA:115,1
DA:116,1
DA:117,1
DA:118,1
DA:119,1
DA:120,1
DA:123,1
DA:124,1
DA:125,1
DA:126,1
DA:127,1
DA:128,1
DA:129,1
DA:130,1
DA:131,1
DA:132,1
DA:133,1
DA:134,1
DA:135,1
DA:136,1
DA:137,1
DA:138,1
DA:139,1
DA:140,1
DA:141,1
DA:142,1
DA:143,1
DA:144,1
DA:147,1
DA:148,1
DA:149,1
DA:150,1
DA:151,1
DA:152,1
DA:153,1
DA:154,1
DA:155,1
DA:156,1
BRF:0
BRH:0
LF:220
LH:220
end_of_record
SF:/Users/kentishi/rust_webapi/src/application/dto/item_dto.rs
FN:65,_RNvNtNtNtNtCs1B75dzsrioZ_11rust_webapi11application3dto8item_dto5testss_18test_item_response
FN:27,_RNvNtNtNtNtCs1B75dzsrioZ_11rust_webapi11application3dto8item_dto5testss_24test_create_item_request
FN:46,_RNvNtNtNtNtCs1B75dzsrioZ_11rust_webapi11application3dto8item_dto5testss_24test_update_item_request
FNDA:1,_RNvNtNtNtNtCs1B75dzsrioZ_11rust_webapi11application3dto8item_dto5testss_18test_item_response
FNDA:1,_RNvNtNtNtNtCs1B75dzsrioZ_11rust_webapi11application3dto8item_dto5testss_24test_create_item_request
FNDA:1,_RNvNtNtNtNtCs1B75dzsrioZ_11rust_webapi11application3dto8item_dto5testss_24test_update_item_request
FNF:3
FNH:3
DA:27,1
DA:28,1
DA:29,1
DA:30,1
DA:31,1
DA:32,1
DA:33,1
DA:34,1
DA:36,1
DA:37,1
DA:38,1
DA:39,1
DA:40,1
DA:41,1
DA:42,1
DA:43,1
DA:46,1
DA:47,1
DA:48,1
DA:49,1
DA:50,1
DA:51,1
DA:52,1
DA:53,1
DA:55,1
DA:56,1
DA:57,1
DA:58,1
DA:59,1
DA:60,1
DA:61,1
DA:62,1
DA:65,1
DA:66,1
DA:67,1
DA:68,1
DA:69,1
DA:70,1
DA:71,1
DA:72,1
DA:73,1
DA:74,1
DA:75,1
BRF:0
BRH:0
LF:43
LH:43
end_of_record
SF:/Users/kentishi/rust_webapi/src/application/service/item_service.rs
FN:176,_RNCNCNvNtNtNtNtCs1B75dzsrioZ_11rust_webapi11application7service12item_service5testss_11test_create00Bd_
FN:180,_RNCNCNvNtNtNtNtCs1B75dzsrioZ_11rust_webapi11application7service12item_service5testss_11test_create0s_0Bd_
FN:114,_RNCNCNvNtNtNtNtCs1B75dzsrioZ_11rust_webapi11application7service12item_service5testss_13test_find_all00Bd_
FN:212,_RNCNCNvNtNtNtNtCs1B75dzsrioZ_11rust_webapi11application7service12item_service5testss_17test_update_found00Bd_
FN:220,_RNCNCNvNtNtNtNtCs1B75dzsrioZ_11rust_webapi11application7service12item_service5testss_17test_update_found0s0_0Bd_
FN:215,_RNCNCNvNtNtNtNtCs1B75dzsrioZ_11rust_webapi11application7service12item_service5testss_17test_update_found0s_0Bd_
FN:255,_RNCNCNvNtNtNtNtCs1B75dzsrioZ_11rust_webapi11application7service12item_service5testss_19test_delete_success00Bd_
FN:268,_RNCNCNvNtNtNtNtCs1B75dzsrioZ_11rust_webapi11application7service12item_service5testss_21test_delete_not_found00Bd_
FN:137,_RNCNCNvNtNtNtNtCs1B75dzsrioZ_11rust_webapi11application7service12item_service5testss_21test_find_by_id_found00Bd_
FN:242,_RNCNCNvNtNtNtNtCs1B75dzsrioZ_11rust_webapi11application7service12item_service5testss_21test_update_not_found00Bd_
FN:153,_RNCNCNvNtNtNtNtCs1B75dzsrioZ_11rust_webapi11application7service12item_service5testss_25test_find_by_id_not_found00Bd_
FN:162,_RNCNvNtNtNtNtCs1B75dzsrioZ_11rust_webapi11application7service12item_service5testss_11test_create0Bb_
FN:98,_RNCNvNtNtNtNtCs1B75dzsrioZ_11rust_webapi11application7service12item_service5testss_13test_find_all0Bb_
FN:191,_RNCNvNtNtNtNtCs1B75dzsrioZ_11rust_webapi11application7service12item_service5testss_17test_update_found0Bb_
FN:251,_RNCNvNtNtNtNtCs1B75dzsrioZ_11rust_webapi11application7service12item_service5testss_19test_delete_success0Bb_
FN:264,_RNCNvNtNtNtNtCs1B75dzsrioZ_11rust_webapi11application7service12item_service5testss_21test_delete_not_found0Bb_
FN:127,_RNCNvNtNtNtNtCs1B75dzsrioZ_11rust_webapi11application7service12item_service5testss_21test_find_by_id_found0Bb_
FN:233,_RNCNvNtNtNtNtCs1B75dzsrioZ_11rust_webapi11application7service12item_service5testss_21test_update_not_found0Bb_
FN:149,_RNCNvNtNtNtNtCs1B75dzsrioZ_11rust_webapi11application7service12item_service5testss_25test_find_by_id_not_found0Bb_
FN:95,_RNCNvXs3_NtNtNtNtCs1B75dzsrioZ_11rust_webapi11application7service12item_service5testsNtB7_11MockItemRepNtNtNtCs8Y1garwNj5t_6domain10repository15item_repository14ItemRepository10find_by_id0Bf_
FN:95,_RNCNvXs3_NtNtNtNtCs1B75dzsrioZ_11rust_webapi11application7service12item_service5testsNtB7_11MockItemRepNtNtNtCs8Y1garwNj5t_6domain10repository15item_repository14ItemRepository6create0Bf_
FN:95,_RNCNvXs3_NtNtNtNtCs1B75dzsrioZ_11rust_webapi11application7service12item_service5testsNtB7_11MockItemRepNtNtNtCs8Y1garwNj5t_6domain10repository15item_repository14ItemRepository6delete0Bf_
FN:95,_RNCNvXs3_NtNtNtNtCs1B75dzsrioZ_11rust_webapi11application7service12item_service5testsNtB7_11MockItemRepNtNtNtCs8Y1garwNj5t_6domain10repository15item_repository14ItemRepository6update0Bf_
FN:95,_RNCNvXs3_NtNtNtNtCs1B75dzsrioZ_11rust_webapi11application7service12item_service5testsNtB7_11MockItemRepNtNtNtCs8Y1garwNj5t_6domain10repository15item_repository14ItemRepository8find_all0Bf_
FN:85,_RINvMs4_NtNtNtNtNtNtCs1B75dzsrioZ_11rust_webapi11application7service12item_service5tests33___mock_MockItemRep_ItemRepository10___find_allNtB6_6Common5timespEBi_
FN:85,_RINvMs4_NtNtNtNtNtNtCs1B75dzsrioZ_11rust_webapi11application7service12item_service5tests33___mock_MockItemRep_ItemRepository10___find_allNtB6_6Common5withfpEBi_
FN:85,_RINvMs4_NtNtNtNtNtNtCs1B75dzsrioZ_11rust_webapi11application7service12item_service5tests33___mock_MockItemRep_ItemRepository10___find_allNtB6_6Common8withf_stpEBi_
FN:85,_RINvMs4_NtNtNtNtNtNtCs1B75dzsrioZ_11rust_webapi11application7service12item_service5tests33___mock_MockItemRep_ItemRepository12___find_by_idNtB6_6Common5timespEBi_
FN:85,_RINvMs4_NtNtNtNtNtNtCs1B75dzsrioZ_11rust_webapi11application7service12item_service5tests33___mock_MockItemRep_ItemRepository12___find_by_idNtB6_6Common5withfpEBi_
FN:85,_RINvMs4_NtNtNtNtNtNtCs1B75dzsrioZ_11rust_webapi11application7service12item_service5tests33___mock_MockItemRep_ItemRepository12___find_by_idNtB6_6Common8withf_stpEBi_
FN:85,_RINvMs4_NtNtNtNtNtNtCs1B75dzsrioZ_11rust_webapi11application7service12item_service5tests33___mock_MockItemRep_ItemRepository8___createNtB6_6Common5timespEBi_
FN:85,_RINvMs4_NtNtNtNtNtNtCs1B75dzsrioZ_11rust_webapi11application7service12item_service5tests33___mock_MockItemRep_ItemRepository8___createNtB6_6Common5withfpEBi_
FN:85,_RINvMs4_NtNtNtNtNtNtCs1B75dzsrioZ_11rust_webapi11application7service12item_service5tests33___mock_MockItemRep_ItemRepository8___createNtB6_6Common8withf_stpEBi_
FN:85,_RINvMs4_NtNtNtNtNtNtCs1B75dzsrioZ_11rust_webapi11application7service12item_service5tests33___mock_MockItemRep_ItemRepository8___deleteNtB6_6Common5timespEBi_
FN:85,_RINvMs4_NtNtNtNtNtNtCs1B75dzsrioZ_11rust_webapi11application7service12item_service5tests33___mock_MockItemRep_ItemRepository8___deleteNtB6_6Common5withfpEBi_
FN:85,_RINvMs4_NtNtNtNtNtNtCs1B75dzsrioZ_11rust_webapi11application7service12item_service5tests33___mock_MockItemRep_ItemRepository8___deleteNtB6_6Common8withf_stpEBi_
FN:85,_RINvMs4_NtNtNtNtNtNtCs1B75dzsrioZ_11rust_webapi11application7service12item_service5tests33___mock_MockItemRep_ItemRepository8___updateNtB6_6Common5timespEBi_
FN:85,_RINvMs4_NtNtNtNtNtNtCs1B75dzsrioZ_11rust_webapi11application7service12item_service5tests33___mock_MockItemRep_ItemRepository8___updateNtB6_6Common5withfpEBi_
FN:85,_RINvMs4_NtNtNtNtNtNtCs1B75dzsrioZ_11rust_webapi11application7service12item_service5tests33___mock_MockItemRep_ItemRepository8___updateNtB6_6Common8withf_stpEBi_
FN:95,_RINvMs6_NtNtNtNtNtNtCs1B75dzsrioZ_11rust_webapi11application7service12item_service5tests33___mock_MockItemRep_ItemRepository10___find_allNtB6_11Expectation12return_constpEBi_
FN:85,_RINvMs6_NtNtNtNtNtNtCs1B75dzsrioZ_11rust_webapi11application7service12item_service5tests33___mock_MockItemRep_ItemRepository10___find_allNtB6_11Expectation12returning_stpEBi_
FN:85,_RINvMs6_NtNtNtNtNtNtCs1B75dzsrioZ_11rust_webapi11application7service12item_service5tests33___mock_MockItemRep_ItemRepository10___find_allNtB6_11Expectation14return_once_stpEBi_
FN:95,_RINvMs6_NtNtNtNtNtNtCs1B75dzsrioZ_11rust_webapi11application7service12item_service5tests33___mock_MockItemRep_ItemRepository10___find_allNtB6_11Expectation15return_const_stpEBi_
FN:85,_RINvMs6_NtNtNtNtNtNtCs1B75dzsrioZ_11rust_webapi11application7service12item_service5tests33___mock_MockItemRep_ItemRepository10___find_allNtB6_11Expectation5timespEBi_
FN:85,_RINvMs6_NtNtNtNtNtNtCs1B75dzsrioZ_11rust_webapi11application7service12item_service5tests33___mock_MockItemRep_ItemRepository10___find_allNtB6_11Expectation5withfpEBi_
FN:85,_RINvMs6_NtNtNtNtNtNtCs1B75dzsrioZ_11rust_webapi11application7service12item_service5tests33___mock_MockItemRep_ItemRepository10___find_allNtB6_11Expectation8withf_stpEBi_
FN:85,_RINvMs6_NtNtNtNtNtNtCs1B75dzsrioZ_11rust_webapi11application7service12item_service5tests33___mock_MockItemRep_ItemRepository10___find_allNtB6_11Expectation9returningpEBi_
FN:95,_RINvMs6_NtNtNtNtNtNtCs1B75dzsrioZ_11rust_webapi11application7service12item_service5tests33___mock_MockItemRep_ItemRepository12___find_by_idNtB6_11Expectation12return_constpEBi_
FN:85,_RINvMs6_NtNtNtNtNtNtCs1B75dzsrioZ_11rust_webapi11application7service12item_service5tests33___mock_MockItemRep_ItemRepository12___find_by_idNtB6_11Expectation12returning_stpEBi_
FN:85,_RINvMs6_NtNtNtNtNtNtCs1B75dzsrioZ_11rust_webapi11application7service12item_service5tests33___mock_MockItemRep_ItemRepository12___find_by_idNtB6_11Expectation14return_once_stpEBi_
FN:95,_RINvMs6_NtNtNtNtNtNtCs1B75dzsrioZ_11rust_webapi11application7service12item_service5tests33___mock_MockItemRep_ItemRepository12___find_by_idNtB6_11Expectation15return_const_stpEBi_
FN:85,_RINvMs6_NtNtNtNtNtNtCs1B75dzsrioZ_11rust_webapi11application7service12item_service5tests33___mock_MockItemRep_ItemRepository12___find_by_idNtB6_11Expectation5timespEBi_
FN:85,_RINvMs6_NtNtNtNtNtNtCs1B75dzsrioZ_11rust_webapi11application7service12item_service5tests33___mock_MockItemRep_ItemRepository12___find_by_idNtB6_11Expectation5withfpEBi_
FN:85,_RINvMs6_NtNtNtNtNtNtCs1B75dzsrioZ_11rust_webapi11application7service12item_service5tests33___mock_MockItemRep_ItemRepository12___find_by_idNtB6_11Expectation8withf_stpEBi_
FN:85,_RINvMs6_NtNtNtNtNtNtCs1B75dzsrioZ_11rust_webapi11application7service12item_service5tests33___mock_MockItemRep_ItemRepository12___find_by_idNtB6_11Expectation9returningpEBi_
FN:95,_RINvMs6_NtNtNtNtNtNtCs1B75dzsrioZ_11rust_webapi11application7service12item_service5tests33___mock_MockItemRep_ItemRepository8___createNtB6_11Expectation12return_constpEBi_
FN:85,_RINvMs6_NtNtNtNtNtNtCs1B75dzsrioZ_11rust_webapi11application7service12item_service5tests33___mock_MockItemRep_ItemRepository8___createNtB6_11Expectation12returning_stpEBi_
FN:85,_RINvMs6_NtNtNtNtNtNtCs1B75dzsrioZ_11rust_webapi11application7service12item_service5tests33___mock_MockItemRep_ItemRepository8___createNtB6_11Expectation14return_once_stpEBi_
FN:95,_RINvMs6_NtNtNtNtNtNtCs1B75dzsrioZ_11rust_webapi11application7service12item_service5tests33___mock_MockItemRep_ItemRepository8___createNtB6_11Expectation15return_const_stpEBi_
FN:85,_RINvMs6_NtNtNtNtNtNtCs1B75dzsrioZ_11rust_webapi11application7service12item_service5tests33___mock_MockItemRep_ItemRepository8___createNtB6_11Expectation5timespEBi_
FN:85,_RINvMs6_NtNtNtNtNtNtCs1B75dzsrioZ_11rust_webapi11application7service12item_service5tests33___mock_MockItemRep_ItemRepository8___createNtB6_11Expectation5withfpEBi_
FN:85,_RINvMs6_NtNtNtNtNtNtCs1B75dzsrioZ_11rust_webapi11application7service12item_service5tests33___mock_MockItemRep_ItemRepository8___createNtB6_11Expectation8withf_stpEBi_
FN:85,_RINvMs6_NtNtNtNtNtNtCs1B75dzsrioZ_11rust_webapi11application7service12item_service5tests33___mock_MockItemRep_ItemRepository8___createNtB6_11Expectation9returningpEBi_
FN:95,_RINvMs6_NtNtNtNtNtNtCs1B75dzsrioZ_11rust_webapi11application7service12item_service5tests33___mock_MockItemRep_ItemRepository8___deleteNtB6_11Expectation12return_constpEBi_
FN:85,_RINvMs6_NtNtNtNtNtNtCs1B75dzsrioZ_11rust_webapi11application7service12item_service5tests33___mock_MockItemRep_ItemRepository8___deleteNtB6_11Expectation12returning_stpEBi_
FN:85,_RINvMs6_NtNtNtNtNtNtCs1B75dzsrioZ_11rust_webapi11application7service12item_service5tests33___mock_MockItemRep_ItemRepository8___deleteNtB6_11Expectation14return_once_stpEBi_
FN:95,_RINvMs6_NtNtNtNtNtNtCs1B75dzsrioZ_11rust_webapi11application7service12item_service5tests33___mock_MockItemRep_ItemRepository8___deleteNtB6_11Expectation15return_const_stpEBi_
FN:85,_RINvMs6_NtNtNtNtNtNtCs1B75dzsrioZ_11rust_webapi11application7service12item_service5tests33___mock_MockItemRep_ItemRepository8___deleteNtB6_11Expectation5timespEBi_
FN:85,_RINvMs6_NtNtNtNtNtNtCs1B75dzsrioZ_11rust_webapi11application7service12item_service5tests33___mock_MockItemRep_ItemRepository8___deleteNtB6_11Expectation5withfpEBi_
FN:85,_RINvMs6_NtNtNtNtNtNtCs1B75dzsrioZ_11rust_webapi11application7service12item_service5tests33___mock_MockItemRep_ItemRepository8___deleteNtB6_11Expectation8withf_stpEBi_
FN:85,_RINvMs6_NtNtNtNtNtNtCs1B75dzsrioZ_11rust_webapi11application7service12item_service5tests33___mock_MockItemRep_ItemRepository8___deleteNtB6_11Expectation9returningpEBi_
FN:95,_RINvMs6_NtNtNtNtNtNtCs1B75dzsrioZ_11rust_webapi11application7service12item_service5tests33___mock_MockItemRep_ItemRepository8___updateNtB6_11Expectation12return_constpEBi_
FN:85,_RINvMs6_NtNtNtNtNtNtCs1B75dzsrioZ_11rust_webapi11application7service12item_service5tests33___mock_MockItemRep_ItemRepository8___updateNtB6_11Expectation12returning_stpEBi_
FN:85,_RINvMs6_NtNtNtNtNtNtCs1B75dzsrioZ_11rust_webapi11application7service12item_service5tests33___mock_MockItemRep_ItemRepository8___updateNtB6_11Expectation14return_once_stpEBi_
FN:95,_RINvMs6_NtNtNtNtNtNtCs1B75dzsrioZ_11rust_webapi11application7service12item_service5tests33___mock_MockItemRep_ItemRepository8___updateNtB6_11Expectation15return_const_stpEBi_
FN:85,_RINvMs6_NtNtNtNtNtNtCs1B75dzsrioZ_11rust_webapi11application7service12item_service5tests33___mock_MockItemRep_ItemRepository8___updateNtB6_11Expectation5timespEBi_
FN:85,_RINvMs6_NtNtNtNtNtNtCs1B75dzsrioZ_11rust_webapi11application7service12item_service5tests33___mock_MockItemRep_ItemRepository8___updateNtB6_11Expectation5withfpEBi_
FN:85,_RINvMs6_NtNtNtNtNtNtCs1B75dzsrioZ_11rust_webapi11application7service12item_service5tests33___mock_MockItemRep_ItemRepository8___updateNtB6_11Expectation8withf_stpEBi_
FN:85,_RINvMs6_NtNtNtNtNtNtCs1B75dzsrioZ_11rust_webapi11application7service12item_service5tests33___mock_MockItemRep_ItemRepository8___updateNtB6_11Expectation9returningpEBi_
FN:85,_RNCINvMs6_NtNtNtNtNtNtCs1B75dzsrioZ_11rust_webapi11application7service12item_service5tests33___mock_MockItemRep_ItemRepository10___find_allNtB8_11Expectation12return_constpE0Bk_
FN:85,_RNCINvMs6_NtNtNtNtNtNtCs1B75dzsrioZ_11rust_webapi11application7service12item_service5tests33___mock_MockItemRep_ItemRepository10___find_allNtB8_11Expectation15return_const_stpE0Bk_
FN:85,_RNCINvMs6_NtNtNtNtNtNtCs1B75dzsrioZ_11rust_webapi11application7service12item_service5tests33___mock_MockItemRep_ItemRepository12___find_by_idNtB8_11Expectation12return_constpE0Bk_
FN:85,_RNCINvMs6_NtNtNtNtNtNtCs1B75dzsrioZ_11rust_webapi11application7service12item_service5tests33___mock_MockItemRep_ItemRepository12___find_by_idNtB8_11Expectation15return_const_stpE0Bk_
FN:85,_RNCINvMs6_NtNtNtNtNtNtCs1B75dzsrioZ_11rust_webapi11application7service12item_service5tests33___mock_MockItemRep_ItemRepository8___createNtB8_11Expectation12return_constpE0Bk_
FN:85,_RNCINvMs6_NtNtNtNtNtNtCs1B75dzsrioZ_11rust_webapi11application7service12item_service5tests33___mock_MockItemRep_ItemRepository8___createNtB8_11Expectation15return_const_stpE0Bk_
FN:85,_RNCINvMs6_NtNtNtNtNtNtCs1B75dzsrioZ_11rust_webapi11application7service12item_service5tests33___mock_MockItemRep_ItemRepository8___deleteNtB8_11Expectation12return_constpE0Bk_
FN:85,_RNCINvMs6_NtNtNtNtNtNtCs1B75dzsrioZ_11rust_webapi11application7service12item_service5tests33___mock_MockItemRep_ItemRepository8___deleteNtB8_11Expectation15return_const_stpE0Bk_
FN:85,_RNCINvMs6_NtNtNtNtNtNtCs1B75dzsrioZ_11rust_webapi11application7service12item_service5tests33___mock_MockItemRep_ItemRepository8___updateNtB8_11Expectation12return_constpE0Bk_
FN:85,_RNCINvMs6_NtNtNtNtNtNtCs1B75dzsrioZ_11rust_webapi11application7service12item_service5tests33___mock_MockItemRep_ItemRepository8___updateNtB8_11Expectation15return_const_stpE0Bk_
FN:85,_RNvMs0_NtNtNtNtCs1B75dzsrioZ_11rust_webapi11application7service12item_service5testsNtB5_26MockItemRep_ItemRepository10checkpoint
FN:85,_RNvMs1_NtNtNtNtCs1B75dzsrioZ_11rust_webapi11application7service12item_service5testsNtB5_11MockItemRep10checkpoint
FN:95,_RNvMs4_NtNtNtNtNtNtCs1B75dzsrioZ_11rust_webapi11application7service12item_service5tests33___mock_MockItemRep_ItemRepository10___find_allNtB5_6Common11in_sequence
FN:85,_RNvMs4_NtNtNtNtNtNtCs1B75dzsrioZ_11rust_webapi11application7service12item_service5tests33___mock_MockItemRep_ItemRepository10___find_allNtB5_6Common4with
FN:85,_RNvMs4_NtNtNtNtNtNtCs1B75dzsrioZ_11rust_webapi11application7service12item_service5tests33___mock_MockItemRep_ItemRepository10___find_allNtB5_6Common5never
FN:95,_RNvMs4_NtNtNtNtNtNtCs1B75dzsrioZ_11rust_webapi11application7service12item_service5tests33___mock_MockItemRep_ItemRepository12___find_by_idNtB5_6Common11in_sequence
FN:85,_RNvMs4_NtNtNtNtNtNtCs1B75dzsrioZ_11rust_webapi11application7service12item_service5tests33___mock_MockItemRep_ItemRepository12___find_by_idNtB5_6Common5never
FN:95,_RNvMs4_NtNtNtNtNtNtCs1B75dzsrioZ_11rust_webapi11application7service12item_service5tests33___mock_MockItemRep_ItemRepository8___createNtB5_6Common11in_sequence
FN:85,_RNvMs4_NtNtNtNtNtNtCs1B75dzsrioZ_11rust_webapi11application7service12item_service5tests33___mock_MockItemRep_ItemRepository8___createNtB5_6Common5never
FN:95,_RNvMs4_NtNtNtNtNtNtCs1B75dzsrioZ_11rust_webapi11application7service12item_service5tests33___mock_MockItemRep_ItemRepository8___deleteNtB5_6Common11in_sequence
FN:85,_RNvMs4_NtNtNtNtNtNtCs1B75dzsrioZ_11rust_webapi11application7service12item_service5tests33___mock_MockItemRep_ItemRepository8___deleteNtB5_6Common5never
FN:95,_RNvMs4_NtNtNtNtNtNtCs1B75dzsrioZ_11rust_webapi11application7service12item_service5tests33___mock_MockItemRep_ItemRepository8___updateNtB5_6Common11in_sequence
FN:85,_RNvMs4_NtNtNtNtNtNtCs1B75dzsrioZ_11rust_webapi11application7service12item_service5tests33___mock_MockItemRep_ItemRepository8___updateNtB5_6Common5never
FN:85,_RNvMs6_NtNtNtNtNtNtCs1B75dzsrioZ_11rust_webapi11application7service12item_service5tests33___mock_MockItemRep_ItemRepository10___find_allNtB5_11Expectation11in_sequence
FN:85,_RNvMs6_NtNtNtNtNtNtCs1B75dzsrioZ_11rust_webapi11application7service12item_service5tests33___mock_MockItemRep_ItemRepository10___find_allNtB5_11Expectation3new
FN:85,_RNvMs6_NtNtNtNtNtNtCs1B75dzsrioZ_11rust_webapi11application7service12item_service5tests33___mock_MockItemRep_ItemRepository10___find_allNtB5_11Expectation4once
FN:85,_RNvMs6_NtNtNtNtNtNtCs1B75dzsrioZ_11rust_webapi11application7service12item_service5tests33___mock_MockItemRep_ItemRepository10___find_allNtB5_11Expectation4with
FN:85,_RNvMs6_NtNtNtNtNtNtCs1B75dzsrioZ_11rust_webapi11application7service12item_service5tests33___mock_MockItemRep_ItemRepository10___find_allNtB5_11Expectation5never
FN:85,_RNvMs6_NtNtNtNtNtNtCs1B75dzsrioZ_11rust_webapi11application7service12item_service5tests33___mock_MockItemRep_ItemRepository12___find_by_idNtB5_11Expectation11in_sequence
FN:85,_RNvMs6_NtNtNtNtNtNtCs1B75dzsrioZ_11rust_webapi11application7service12item_service5tests33___mock_MockItemRep_ItemRepository12___find_by_idNtB5_11Expectation3new
FN:85,_RNvMs6_NtNtNtNtNtNtCs1B75dzsrioZ_11rust_webapi11application7service12item_service5tests33___mock_MockItemRep_ItemRepository12___find_by_idNtB5_11Expectation4once
FN:85,_RNvMs6_NtNtNtNtNtNtCs1B75dzsrioZ_11rust_webapi11application7service12item_service5tests33___mock_MockItemRep_ItemRepository12___find_by_idNtB5_11Expectation5never
FN:85,_RNvMs6_NtNtNtNtNtNtCs1B75dzsrioZ_11rust_webapi11application7service12item_service5tests33___mock_MockItemRep_ItemRepository8___createNtB5_11Expectation11in_sequence
FN:85,_RNvMs6_NtNtNtNtNtNtCs1B75dzsrioZ_11rust_webapi11application7service12item_service5tests33___mock_MockItemRep_ItemRepository8___createNtB5_11Expectation3new
FN:85,_RNvMs6_NtNtNtNtNtNtCs1B75dzsrioZ_11rust_webapi11application7service12item_service5tests33___mock_MockItemRep_ItemRepository8___createNtB5_11Expectation4once
FN:85,_RNvMs6_NtNtNtNtNtNtCs1B75dzsrioZ_11rust_webapi11application7service12item_service5tests33___mock_MockItemRep_ItemRepository8___createNtB5_11Expectation5never
FN:85,_RNvMs6_NtNtNtNtNtNtCs1B75dzsrioZ_11rust_webapi11application7service12item_service5tests33___mock_MockItemRep_ItemRepository8___deleteNtB5_11Expectation11in_sequence
FN:85,_RNvMs6_NtNtNtNtNtNtCs1B75dzsrioZ_11rust_webapi11application7service12item_service5tests33___mock_MockItemRep_ItemRepository8___deleteNtB5_11Expectation3new
FN:85,_RNvMs6_NtNtNtNtNtNtCs1B75dzsrioZ_11rust_webapi11application7service12item_service5tests33___mock_MockItemRep_ItemRepository8___deleteNtB5_11Expectation4once
FN:85,_RNvMs6_NtNtNtNtNtNtCs1B75dzsrioZ_11rust_webapi11application7service12item_service5tests33___mock_MockItemRep_ItemRepository8___deleteNtB5_11Expectation5never
FN:85,_RNvMs6_NtNtNtNtNtNtCs1B75dzsrioZ_11rust_webapi11application7service12item_service5tests33___mock_MockItemRep_ItemRepository8___updateNtB5_11Expectation11in_sequence
FN:85,_RNvMs6_NtNtNtNtNtNtCs1B75dzsrioZ_11rust_webapi11application7service12item_service5tests33___mock_MockItemRep_ItemRepository8___updateNtB5_11Expectation3new
FN:85,_RNvMs6_NtNtNtNtNtNtCs1B75dzsrioZ_11rust_webapi11application7service12item_service5tests33___mock_MockItemRep_ItemRepository8___updateNtB5_11Expectation4once
FN:85,_RNvMs6_NtNtNtNtNtNtCs1B75dzsrioZ_11rust_webapi11application7service12item_service5tests33___mock_MockItemRep_ItemRepository8___updateNtB5_11Expectation5never
FN:85,_RNvMs8_NtNtNtNtNtNtCs1B75dzsrioZ_11rust_webapi11application7service12item_service5tests33___mock_MockItemRep_ItemRepository10___find_allNtB5_12Expectations10checkpoint
FN:85,_RNvMs8_NtNtNtNtNtNtCs1B75dzsrioZ_11rust_webapi11application7service12item_service5tests33___mock_MockItemRep_ItemRepository10___find_allNtB5_12Expectations3new
FN:85,_RNvMs8_NtNtNtNtNtNtCs1B75dzsrioZ_11rust_webapi11application7service12item_service5tests33___mock_MockItemRep_ItemRepository12___find_by_idNtB5_12Expectations10checkpoint
FN:85,_RNvMs8_NtNtNtNtNtNtCs1B75dzsrioZ_11rust_webapi11application7service12item_service5tests33___mock_MockItemRep_ItemRepository12___find_by_idNtB5_12Expectations3new
FN:85,_RNvMs8_NtNtNtNtNtNtCs1B75dzsrioZ_11rust_webapi11application7service12item_service5tests33___mock_MockItemRep_ItemRepository8___createNtB5_12Expectations10checkpoint
FN:85,_RNvMs8_NtNtNtNtNtNtCs1B75dzsrioZ_11rust_webapi11application7service12item_service5tests33___mock_MockItemRep_ItemRepository8___createNtB5_12Expectations3new
FN:85,_RNvMs8_NtNtNtNtNtNtCs1B75dzsrioZ_11rust_webapi11application7service12item_service5tests33___mock_MockItemRep_ItemRepository8___deleteNtB5_12Expectations10checkpoint
FN:85,_RNvMs8_NtNtNtNtNtNtCs1B75dzsrioZ_11rust_webapi11application7service12item_service5tests33___mock_MockItemRep_ItemRepository8___deleteNtB5_12Expectations3new
FN:85,_RNvMs8_NtNtNtNtNtNtCs1B75dzsrioZ_11rust_webapi11application7service12item_service5tests33___mock_MockItemRep_ItemRepository8___updateNtB5_12Expectations10checkpoint
FN:85,_RNvMs8_NtNtNtNtNtNtCs1B75dzsrioZ_11rust_webapi11application7service12item_service5tests33___mock_MockItemRep_ItemRepository8___updateNtB5_12Expectations3new
FN:25,_RNCNvMNtNtNtCs1B75dzsrioZ_11rust_webapi11application7service12item_serviceNtB4_11ItemService10find_by_id0Ba_
FN:35,_RNCNvMNtNtNtCs1B75dzsrioZ_11rust_webapi11application7service12item_serviceNtB4_11ItemService6create0Ba_
FN:66,_RNCNvMNtNtNtCs1B75dzsrioZ_11rust_webapi11application7service12item_serviceNtB4_11ItemService6delete0Ba_
FN:51,_RNCNvMNtNtNtCs1B75dzsrioZ_11rust_webapi11application7service12item_serviceNtB4_11ItemService6update0Ba_
FN:19,_RNCNvMNtNtNtCs1B75dzsrioZ_11rust_webapi11application7service12item_serviceNtB4_11ItemService8find_all0Ba_
FN:85,_RINvMs4_NtNtNtNtNtNtCs1B75dzsrioZ_11rust_webapi11application7service12item_service5tests33___mock_MockItemRep_ItemRepository8___createNtB6_6Common4withINtNtCs9l2CZqY40TY_10predicates8function11FnPredicateNCNCNvBa_s_11test_create00NtNtNtCs8Y1garwNj5t_6domain5model4item4ItemEEBi_
FN:85,_RINvMs6_NtNtNtNtNtNtCs1B75dzsrioZ_11rust_webapi11application7service12item_service5tests33___mock_MockItemRep_ItemRepository8___createNtB6_11Expectation11return_onceNCNCNvBa_s_11test_create0s_0EBi_
FN:85,_RINvMs6_NtNtNtNtNtNtCs1B75dzsrioZ_11rust_webapi11application7service12item_service5tests33___mock_MockItemRep_ItemRepository8___createNtB6_11Expectation4withINtNtCs9l2CZqY40TY_10predicates8function11FnPredicateNCNCNvBa_s_11test_create00NtNtNtCs8Y1garwNj5t_6domain5model4item4ItemEEBi_
FN:85,_RNCNvMs0_NtNtNtNtNtNtCs1B75dzsrioZ_11rust_webapi11application7service12item_service5tests33___mock_MockItemRep_ItemRepository8___createNtB7_7Matcher7matches0Bj_
FN:95,_RNCNvMsa_NtNtNtNtNtNtCs1B75dzsrioZ_11rust_webapi11application7service12item_service5tests33___mock_MockItemRep_ItemRepository8___createNtB7_12Expectations4call0Bj_
FN:85,_RNCNvMsa_NtNtNtNtNtNtCs1B75dzsrioZ_11rust_webapi11application7service12item_service5tests33___mock_MockItemRep_ItemRepository8___createNtB7_12Expectations4calls_0Bj_
FN:85,_RINvMs6_NtNtNtNtNtNtCs1B75dzsrioZ_11rust_webapi11application7service12item_service5tests33___mock_MockItemRep_ItemRepository10___find_allNtB6_11Expectation11return_onceNCNCNvBa_s_13test_find_all00EBi_
FN:85,_RNCNvMs0_NtNtNtNtNtNtCs1B75dzsrioZ_11rust_webapi11application7service12item_service5tests33___mock_MockItemRep_ItemRepository10___find_allNtB7_7Matcher7matches0Bj_
FN:95,_RNCNvMsa_NtNtNtNtNtNtCs1B75dzsrioZ_11rust_webapi11application7service12item_service5tests33___mock_MockItemRep_ItemRepository10___find_allNtB7_12Expectations4call0Bj_
FN:85,_RNCNvMsa_NtNtNtNtNtNtCs1B75dzsrioZ_11rust_webapi11application7service12item_service5tests33___mock_MockItemRep_ItemRepository10___find_allNtB7_12Expectations4calls_0Bj_
FN:95,_RNvXs5_NtNtNtNtNtNtCs1B75dzsrioZ_11rust_webapi11application7service12item_service5tests33___mock_MockItemRep_ItemRepository10___find_allNtB5_6CommonNtNtNtCsfvfooZQ3Axs_4core3ops4drop4Drop4drop
FN:95,_RNvXs5_NtNtNtNtNtNtCs1B75dzsrioZ_11rust_webapi11application7service12item_service5tests33___mock_MockItemRep_ItemRepository12___find_by_idNtB5_6CommonNtNtNtCsfvfooZQ3Axs_4core3ops4drop4Drop4drop
FN:95,_RNvXs5_NtNtNtNtNtNtCs1B75dzsrioZ_11rust_webapi11application7service12item_service5tests33___mock_MockItemRep_ItemRepository8___createNtB5_6CommonNtNtNtCsfvfooZQ3Axs_4core3ops4drop4Drop4drop
FN:95,_RNvXs5_NtNtNtNtNtNtCs1B75dzsrioZ_11rust_webapi11application7service12item_service5tests33___mock_MockItemRep_ItemRepository8___deleteNtB5_6CommonNtNtNtCsfvfooZQ3Axs_4core3ops4drop4Drop4drop
FN:95,_RNvXs5_NtNtNtNtNtNtCs1B75dzsrioZ_11rust_webapi11application7service12item_service5tests33___mock_MockItemRep_ItemRepository8___updateNtB5_6CommonNtNtNtCsfvfooZQ3Axs_4core3ops4drop4Drop4drop
FN:85,_RINvMs4_NtNtNtNtNtNtCs1B75dzsrioZ_11rust_webapi11application7service12item_service5tests33___mock_MockItemRep_ItemRepository8___deleteNtB6_6Common4withINtNtCs9l2CZqY40TY_10predicates3ord11EqPredicateyEEBi_
FN:85,_RINvMs6_NtNtNtNtNtNtCs1B75dzsrioZ_11rust_webapi11application7service12item_service5tests33___mock_MockItemRep_ItemRepository8___deleteNtB6_11Expectation11return_onceNCNCNvBa_s_19test_delete_success00EBi_
FN:85,_RINvMs6_NtNtNtNtNtNtCs1B75dzsrioZ_11rust_webapi11application7service12item_service5tests33___mock_MockItemRep_ItemRepository8___deleteNtB6_11Expectation11return_onceNCNCNvBa_s_21test_delete_not_found00EBi_
FN:85,_RINvMs6_NtNtNtNtNtNtCs1B75dzsrioZ_11rust_webapi11application7service12item_service5tests33___mock_MockItemRep_ItemRepository8___deleteNtB6_11Expectation4withINtNtCs9l2CZqY40TY_10predicates3ord11EqPredicateyEEBi_
FN:85,_RNCNvMs0_NtNtNtNtNtNtCs1B75dzsrioZ_11rust_webapi11application7service12item_service5tests33___mock_MockItemRep_ItemRepository8___deleteNtB7_7Matcher7matches0Bj_
FN:95,_RNCNvMsa_NtNtNtNtNtNtCs1B75dzsrioZ_11rust_webapi11application7service12item_service5tests33___mock_MockItemRep_ItemRepository8___deleteNtB7_12Expectations4call0Bj_
FN:85,_RNCNvMsa_NtNtNtNtNtNtCs1B75dzsrioZ_11rust_webapi11application7service12item_service5tests33___mock_MockItemRep_ItemRepository8___deleteNtB7_12Expectations4calls_0Bj_
FN:95,_RNvMNtNtNtNtNtNtCs1B75dzsrioZ_11rust_webapi11application7service12item_service5tests33___mock_MockItemRep_ItemRepository8___deleteNtB2_5Rfunc8call_mut
FN:95,_RNvMs0_NtNtNtNtNtNtCs1B75dzsrioZ_11rust_webapi11application7service12item_service5tests33___mock_MockItemRep_ItemRepository8___deleteNtB5_7Matcher7matches
FN:95,_RNvMs4_NtNtNtNtNtNtCs1B75dzsrioZ_11rust_webapi11application7service12item_service5tests33___mock_MockItemRep_ItemRepository8___deleteNtB5_6Common15verify_sequence
FN:95,_RNvMs4_NtNtNtNtNtNtCs1B75dzsrioZ_11rust_webapi11application7service12item_service5tests33___mock_MockItemRep_ItemRepository8___deleteNtB5_6Common16satisfy_sequence
FN:95,_RNvMs4_NtNtNtNtNtNtCs1B75dzsrioZ_11rust_webapi11application7service12item_service5tests33___mock_MockItemRep_ItemRepository8___deleteNtB5_6Common4call
FN:85,_RNvMs4_NtNtNtNtNtNtCs1B75dzsrioZ_11rust_webapi11application7service12item_service5tests33___mock_MockItemRep_ItemRepository8___deleteNtB5_6Common7is_done
FN:85,_RNvMs4_NtNtNtNtNtNtCs1B75dzsrioZ_11rust_webapi11application7service12item_service5tests33___mock_MockItemRep_ItemRepository8___deleteNtB5_6Common7matches
FN:95,_RNvMs6_NtNtNtNtNtNtCs1B75dzsrioZ_11rust_webapi11application7service12item_service5tests33___mock_MockItemRep_ItemRepository8___deleteNtB5_11Expectation4call
FN:85,_RNvMs6_NtNtNtNtNtNtCs1B75dzsrioZ_11rust_webapi11application7service12item_service5tests33___mock_MockItemRep_ItemRepository8___deleteNtB5_11Expectation7is_done
FN:85,_RNvMs6_NtNtNtNtNtNtCs1B75dzsrioZ_11rust_webapi11application7service12item_service5tests33___mock_MockItemRep_ItemRepository8___deleteNtB5_11Expectation7matches
FN:85,_RNvMs8_NtNtNtNtNtNtCs1B75dzsrioZ_11rust_webapi11application7service12item_service5tests33___mock_MockItemRep_ItemRepository8___deleteNtB5_12Expectations6expect
FN:95,_RNvMsa_NtNtNtNtNtNtCs1B75dzsrioZ_11rust_webapi11application7service12item_service5tests33___mock_MockItemRep_ItemRepository8___deleteNtB5_12Expectations4call
FN:85,_RNvXs1_NtNtNtNtNtNtCs1B75dzsrioZ_11rust_webapi11application7service12item_service5tests33___mock_MockItemRep_ItemRepository8___deleteNtB5_7MatcherNtNtCsfvfooZQ3Axs_4core7default7Default7default
FN:95,_RNvXs2_NtNtNtNtNtNtCs1B75dzsrioZ_11rust_webapi11application7service12item_service5tests33___mock_MockItemRep_ItemRepository8___deleteNtB5_7MatcherNtNtCsfvfooZQ3Axs_4core3fmt7Display3fmt
FN:85,_RNvXs3_NtNtNtNtNtNtCs1B75dzsrioZ_11rust_webapi11application7service12item_service5tests33___mock_MockItemRep_ItemRepository8___deleteNtB5_6CommonNtNtCsfvfooZQ3Axs_4core7default7Default7default
FN:85,_RNvXs7_NtNtNtNtNtNtCs1B75dzsrioZ_11rust_webapi11application7service12item_service5tests33___mock_MockItemRep_ItemRepository8___deleteNtB5_11ExpectationNtNtCsfvfooZQ3Axs_4core7default7Default7default
FN:85,_RNvXs9_NtNtNtNtNtNtCs1B75dzsrioZ_11rust_webapi11application7service12item_service5tests33___mock_MockItemRep_ItemRepository8___deleteNtB5_12ExpectationsNtNtCsfvfooZQ3Axs_4core7default7Default7default
FN:85,_RNvXs_NtNtNtNtNtNtCs1B75dzsrioZ_11rust_webapi11application7service12item_service5tests33___mock_MockItemRep_ItemRepository8___deleteNtB4_5RfuncNtNtCsfvfooZQ3Axs_4core7default7Default7default
FN:85,_RINvMs4_NtNtNtNtNtNtCs1B75dzsrioZ_11rust_webapi11application7service12item_service5tests33___mock_MockItemRep_ItemRepository12___find_by_idNtB6_6Common4withINtNtCs9l2CZqY40TY_10predicates3ord11EqPredicateyEEBi_
FN:85,_RINvMs6_NtNtNtNtNtNtCs1B75dzsrioZ_11rust_webapi11application7service12item_service5tests33___mock_MockItemRep_ItemRepository12___find_by_idNtB6_11Expectation11return_onceNCNCNvBa_s_17test_update_found00EBi_
FN:85,_RINvMs6_NtNtNtNtNtNtCs1B75dzsrioZ_11rust_webapi11application7service12item_service5tests33___mock_MockItemRep_ItemRepository12___find_by_idNtB6_11Expectation11return_onceNCNCNvBa_s_21test_find_by_id_found00EBi_
FN:85,_RINvMs6_NtNtNtNtNtNtCs1B75dzsrioZ_11rust_webapi11application7service12item_service5tests33___mock_MockItemRep_ItemRepository12___find_by_idNtB6_11Expectation11return_onceNCNCNvBa_s_21test_update_not_found00EBi_
FN:85,_RINvMs6_NtNtNtNtNtNtCs1B75dzsrioZ_11rust_webapi11application7service12item_service5tests33___mock_MockItemRep_ItemRepository12___find_by_idNtB6_11Expectation11return_onceNCNCNvBa_s_25test_find_by_id_not_found00EBi_
FN:85,_RINvMs6_NtNtNtNtNtNtCs1B75dzsrioZ_11rust_webapi11application7service12item_service5tests33___mock_MockItemRep_ItemRepository12___find_by_idNtB6_11Expectation4withINtNtCs9l2CZqY40TY_10predicates3ord11EqPredicateyEEBi_
FN:85,_RNCNvMs0_NtNtNtNtNtNtCs1B75dzsrioZ_11rust_webapi11application7service12item_service5tests33___mock_MockItemRep_ItemRepository12___find_by_idNtB7_7Matcher7matches0Bj_
FN:95,_RNCNvMsa_NtNtNtNtNtNtCs1B75dzsrioZ_11rust_webapi11application7service12item_service5tests33___mock_MockItemRep_ItemRepository12___find_by_idNtB7_12Expectations4call0Bj_
FN:85,_RNCNvMsa_NtNtNtNtNtNtCs1B75dzsrioZ_11rust_webapi11application7service12item_service5tests33___mock_MockItemRep_ItemRepository12___find_by_idNtB7_12Expectations4calls_0Bj_
FN:95,_RNvMNtNtNtNtNtNtCs1B75dzsrioZ_11rust_webapi11application7service12item_service5tests33___mock_MockItemRep_ItemRepository12___find_by_idNtB2_5Rfunc8call_mut
FN:95,_RNvMs0_NtNtNtNtNtNtCs1B75dzsrioZ_11rust_webapi11application7service12item_service5tests33___mock_MockItemRep_ItemRepository12___find_by_idNtB5_7Matcher7matches
FN:95,_RNvMs4_NtNtNtNtNtNtCs1B75dzsrioZ_11rust_webapi11application7service12item_service5tests33___mock_MockItemRep_ItemRepository12___find_by_idNtB5_6Common15verify_sequence
FN:95,_RNvMs4_NtNtNtNtNtNtCs1B75dzsrioZ_11rust_webapi11application7service12item_service5tests33___mock_MockItemRep_ItemRepository12___find_by_idNtB5_6Common16satisfy_sequence
FN:95,_RNvMs4_NtNtNtNtNtNtCs1B75dzsrioZ_11rust_webapi11application7service12item_service5tests33___mock_MockItemRep_ItemRepository12___find_by_idNtB5_6Common4call
FN:85,_RNvMs4_NtNtNtNtNtNtCs1B75dzsrioZ_11rust_webapi11application7service12item_service5tests33___mock_MockItemRep_ItemRepository12___find_by_idNtB5_6Common7is_done
FN:85,_RNvMs4_NtNtNtNtNtNtCs1B75dzsrioZ_11rust_webapi11application7service12item_service5tests33___mock_MockItemRep_ItemRepository12___find_by_idNtB5_6Common7matches
FN:95,_RNvMs6_NtNtNtNtNtNtCs1B75dzsrioZ_11rust_webapi11application7service12item_service5tests33___mock_MockItemRep_ItemRepository12___find_by_idNtB5_11Expectation4call
FN:85,_RNvMs6_NtNtNtNtNtNtCs1B75dzsrioZ_11rust_webapi11application7service12item_service5tests33___mock_MockItemRep_ItemRepository12___find_by_idNtB5_11Expectation7is_done
FN:85,_RNvMs6_NtNtNtNtNtNtCs1B75dzsrioZ_11rust_webapi11application7service12item_service5tests33___mock_MockItemRep_ItemRepository12___find_by_idNtB5_11Expectation7matches
FN:85,_RNvMs8_NtNtNtNtNtNtCs1B75dzsrioZ_11rust_webapi11application7service12item_service5tests33___mock_MockItemRep_ItemRepository12___find_by_idNtB5_12Expectations6expect
FN:95,_RNvMsa_NtNtNtNtNtNtCs1B75dzsrioZ_11rust_webapi11application7service12item_service5tests33___mock_MockItemRep_ItemRepository12___find_by_idNtB5_12Expectations4call
FN:85,_RNvXs1_NtNtNtNtNtNtCs1B75dzsrioZ_11rust_webapi11application7service12item_service5tests33___mock_MockItemRep_ItemRepository12___find_by_idNtB5_7MatcherNtNtCsfvfooZQ3Axs_4core7default7Default7default
FN:95,_RNvXs2_NtNtNtNtNtNtCs1B75dzsrioZ_11rust_webapi11application7service12item_service5tests33___mock_MockItemRep_ItemRepository12___find_by_idNtB5_7MatcherNtNtCsfvfooZQ3Axs_4core3fmt7Display3fmt
FN:85,_RNvXs3_NtNtNtNtNtNtCs1B75dzsrioZ_11rust_webapi11application7service12item_service5tests33___mock_MockItemRep_ItemRepository12___find_by_idNtB5_6CommonNtNtCsfvfooZQ3Axs_4core7default7Default7default
FN:85,_RNvXs7_NtNtNtNtNtNtCs1B75dzsrioZ_11rust_webapi11application7service12item_service5tests33___mock_MockItemRep_ItemRepository12___find_by_idNtB5_11ExpectationNtNtCsfvfooZQ3Axs_4core7default7Default7default
FN:85,_RNvXs9_NtNtNtNtNtNtCs1B75dzsrioZ_11rust_webapi11application7service12item_service5tests33___mock_MockItemRep_ItemRepository12___find_by_idNtB5_12ExpectationsNtNtCsfvfooZQ3Axs_4core7default7Default7default
FN:85,_RNvXs_NtNtNtNtNtNtCs1B75dzsrioZ_11rust_webapi11application7service12item_service5tests33___mock_MockItemRep_ItemRepository12___find_by_idNtB4_5RfuncNtNtCsfvfooZQ3Axs_4core7default7Default7default
FN:85,_RINvMs4_NtNtNtNtNtNtCs1B75dzsrioZ_11rust_webapi11application7service12item_service5tests33___mock_MockItemRep_ItemRepository8___updateNtB6_6Common4withINtNtCs9l2CZqY40TY_10predicates8function11FnPredicateNCNCNvBa_s_17test_update_found0s_0NtNtNtCs8Y1garwNj5t_6domain5model4item4ItemEEBi_
FN:85,_RINvMs6_NtNtNtNtNtNtCs1B75dzsrioZ_11rust_webapi11application7service12item_service5tests33___mock_MockItemRep_ItemRepository8___updateNtB6_11Expectation11return_onceNCNCNvBa_s_17test_update_found0s0_0EBi_
FN:85,_RINvMs6_NtNtNtNtNtNtCs1B75dzsrioZ_11rust_webapi11application7service12item_service5tests33___mock_MockItemRep_ItemRepository8___updateNtB6_11Expectation4withINtNtCs9l2CZqY40TY_10predicates8function11FnPredicateNCNCNvBa_s_17test_update_found0s_0NtNtNtCs8Y1garwNj5t_6domain5model4item4ItemEEBi_
FN:85,_RNCNvMs0_NtNtNtNtNtNtCs1B75dzsrioZ_11rust_webapi11application7service12item_service5tests33___mock_MockItemRep_ItemRepository8___updateNtB7_7Matcher7matches0Bj_
FN:95,_RNCNvMsa_NtNtNtNtNtNtCs1B75dzsrioZ_11rust_webapi11application7service12item_service5tests33___mock_MockItemRep_ItemRepository8___updateNtB7_12Expectations4call0Bj_
FN:85,_RNCNvMsa_NtNtNtNtNtNtCs1B75dzsrioZ_11rust_webapi11application7service12item_service5tests33___mock_MockItemRep_ItemRepository8___updateNtB7_12Expectations4calls_0Bj_
FN:95,_RNvMNtNtNtNtNtNtCs1B75dzsrioZ_11rust_webapi11application7service12item_service5tests33___mock_MockItemRep_ItemRepository8___createNtB2_5Rfunc8call_mut
FN:95,_RNvMs0_NtNtNtNtNtNtCs1B75dzsrioZ_11rust_webapi11application7service12item_service5tests33___mock_MockItemRep_ItemRepository8___createNtB5_7Matcher7matches
FN:95,_RNvMs4_NtNtNtNtNtNtCs1B75dzsrioZ_11rust_webapi11application7service12item_service5tests33___mock_MockItemRep_ItemRepository8___createNtB5_6Common15verify_sequence
FN:95,_RNvMs4_NtNtNtNtNtNtCs1B75dzsrioZ_11rust_webapi11application7service12item_service5tests33___mock_MockItemRep_ItemRepository8___createNtB5_6Common16satisfy_sequence
FN:95,_RNvMs4_NtNtNtNtNtNtCs1B75dzsrioZ_11rust_webapi11application7service12item_service5tests33___mock_MockItemRep_ItemRepository8___createNtB5_6Common4call
FN:85,_RNvMs4_NtNtNtNtNtNtCs1B75dzsrioZ_11rust_webapi11application7service12item_service5tests33___mock_MockItemRep_ItemRepository8___createNtB5_6Common7is_done
FN:85,_RNvMs4_NtNtNtNtNtNtCs1B75dzsrioZ_11rust_webapi11application7service12item_service5tests33___mock_MockItemRep_ItemRepository8___createNtB5_6Common7matches
FN:95,_RNvMs6_NtNtNtNtNtNtCs1B75dzsrioZ_11rust_webapi11application7service12item_service5tests33___mock_MockItemRep_ItemRepository8___createNtB5_11Expectation4call
FN:85,_RNvMs6_NtNtNtNtNtNtCs1B75dzsrioZ_11rust_webapi11application7service12item_service5tests33___mock_MockItemRep_ItemRepository8___createNtB5_11Expectation7is_done
FN:85,_RNvMs6_NtNtNtNtNtNtCs1B75dzsrioZ_11rust_webapi11application7service12item_service5tests33___mock_MockItemRep_ItemRepository8___createNtB5_11Expectation7matches
FN:85,_RNvMs8_NtNtNtNtNtNtCs1B75dzsrioZ_11rust_webapi11application7service12item_service5tests33___mock_MockItemRep_ItemRepository8___createNtB5_12Expectations6expect
FN:95,_RNvMsa_NtNtNtNtNtNtCs1B75dzsrioZ_11rust_webapi11application7service12item_service5tests33___mock_MockItemRep_ItemRepository8___createNtB5_12Expectations4call
FN:85,_RNvXs1_NtNtNtNtNtNtCs1B75dzsrioZ_11rust_webapi11application7service12item_service5tests33___mock_MockItemRep_ItemRepository8___createNtB5_7MatcherNtNtCsfvfooZQ3Axs_4core7default7Default7default
FN:95,_RNvXs2_NtNtNtNtNtNtCs1B75dzsrioZ_11rust_webapi11application7service12item_service5tests33___mock_MockItemRep_ItemRepository8___createNtB5_7MatcherNtNtCsfvfooZQ3Axs_4core3fmt7Display3fmt
FN:85,_RNvXs3_NtNtNtNtNtNtCs1B75dzsrioZ_11rust_webapi11application7service12item_service5tests33___mock_MockItemRep_ItemRepository8___createNtB5_6CommonNtNtCsfvfooZQ3Axs_4core7default7Default7default
FN:85,_RNvXs7_NtNtNtNtNtNtCs1B75dzsrioZ_11rust_webapi11application7service12item_service5tests33___mock_MockItemRep_ItemRepository8___createNtB5_11ExpectationNtNtCsfvfooZQ3Axs_4core7default7Default7default
FN:85,_RNvXs9_NtNtNtNtNtNtCs1B75dzsrioZ_11rust_webapi11application7service12item_service5tests33___mock_MockItemRep_ItemRepository8___createNtB5_12ExpectationsNtNtCsfvfooZQ3Axs_4core7default7Default7default
FN:85,_RNvXs_NtNtNtNtNtNtCs1B75dzsrioZ_11rust_webapi11application7service12item_service5tests33___mock_MockItemRep_ItemRepository8___createNtB4_5RfuncNtNtCsfvfooZQ3Axs_4core7default7Default7default
FN:95,_RNvMNtNtNtNtNtNtCs1B75dzsrioZ_11rust_webapi11application7service12item_service5tests33___mock_MockItemRep_ItemRepository8___updateNtB2_5Rfunc8call_mut
FN:95,_RNvMs0_NtNtNtNtNtNtCs1B75dzsrioZ_11rust_webapi11application7service12item_service5tests33___mock_MockItemRep_ItemRepository8___updateNtB5_7Matcher7matches
FN:95,_RNvMs4_NtNtNtNtNtNtCs1B75dzsrioZ_11rust_webapi11application7service12item_service5tests33___mock_MockItemRep_ItemRepository8___updateNtB5_6Common15verify_sequence
FN:95,_RNvMs4_NtNtNtNtNtNtCs1B75dzsrioZ_11rust_webapi11application7service12item_service5tests33___mock_MockItemRep_ItemRepository8___updateNtB5_6Common16satisfy_sequence
FN:95,_RNvMs4_NtNtNtNtNtNtCs1B75dzsrioZ_11rust_webapi11application7service12item_service5tests33___mock_MockItemRep_ItemRepository8___updateNtB5_6Common4call
FN:85,_RNvMs4_NtNtNtNtNtNtCs1B75dzsrioZ_11rust_webapi11application7service12item_service5tests33___mock_MockItemRep_ItemRepository8___updateNtB5_6Common7is_done
FN:85,_RNvMs4_NtNtNtNtNtNtCs1B75dzsrioZ_11rust_webapi11application7service12item_service5tests33___mock_MockItemRep_ItemRepository8___updateNtB5_6Common7matches
FN:95,_RNvMs6_NtNtNtNtNtNtCs1B75dzsrioZ_11rust_webapi11application7service12item_service5tests33___mock_MockItemRep_ItemRepository8___updateNtB5_11Expectation4call
FN:85,_RNvMs6_NtNtNtNtNtNtCs1B75dzsrioZ_11rust_webapi11application7service12item_service5tests33___mock_MockItemRep_ItemRepository8___updateNtB5_11Expectation7is_done
FN:85,_RNvMs6_NtNtNtNtNtNtCs1B75dzsrioZ_11rust_webapi11application7service12item_service5tests33___mock_MockItemRep_ItemRepository8___updateNtB5_11Expectation7matches
FN:85,_RNvMs8_NtNtNtNtNtNtCs1B75dzsrioZ_11rust_webapi11application7service12item_service5tests33___mock_MockItemRep_ItemRepository8___updateNtB5_12Expectations6expect
FN:95,_RNvMsa_NtNtNtNtNtNtCs1B75dzsrioZ_11rust_webapi11application7service12item_service5tests33___mock_MockItemRep_ItemRepository8___updateNtB5_12Expectations4call
FN:85,_RNvXs1_NtNtNtNtNtNtCs1B75dzsrioZ_11rust_webapi11application7service12item_service5tests33___mock_MockItemRep_ItemRepository8___updateNtB5_7MatcherNtNtCsfvfooZQ3Axs_4core7default7Default7default
FN:95,_RNvXs2_NtNtNtNtNtNtCs1B75dzsrioZ_11rust_webapi11application7service12item_service5tests33___mock_MockItemRep_ItemRepository8___updateNtB5_7MatcherNtNtCsfvfooZQ3Axs_4core3fmt7Display3fmt
FN:85,_RNvXs3_NtNtNtNtNtNtCs1B75dzsrioZ_11rust_webapi11application7service12item_service5tests33___mock_MockItemRep_ItemRepository8___updateNtB5_6CommonNtNtCsfvfooZQ3Axs_4core7default7Default7default
FN:85,_RNvXs7_NtNtNtNtNtNtCs1B75dzsrioZ_11rust_webapi11application7service12item_service5tests33___mock_MockItemRep_ItemRepository8___updateNtB5_11ExpectationNtNtCsfvfooZQ3Axs_4core7default7Default7default
FN:85,_RNvXs9_NtNtNtNtNtNtCs1B75dzsrioZ_11rust_webapi11application7service12item_service5tests33___mock_MockItemRep_ItemRepository8___updateNtB5_12ExpectationsNtNtCsfvfooZQ3Axs_4core7default7Default7default
FN:85,_RNvXs_NtNtNtNtNtNtCs1B75dzsrioZ_11rust_webapi11application7service12item_service5tests33___mock_MockItemRep_ItemRepository8___updateNtB4_5RfuncNtNtCsfvfooZQ3Axs_4core7default7Default7default
FN:85,_RNvMs1_NtNtNtNtCs1B75dzsrioZ_11rust_webapi11application7service12item_service5testsNtB5_11MockItemRep3new
FN:85,_RNvMs2_NtNtNtNtCs1B75dzsrioZ_11rust_webapi11application7service12item_service5testsNtB5_11MockItemRep13expect_create
FN:85,_RNvMs2_NtNtNtNtCs1B75dzsrioZ_11rust_webapi11application7service12item_service5testsNtB5_11MockItemRep13expect_delete
FN:85,_RNvMs2_NtNtNtNtCs1B75dzsrioZ_11rust_webapi11application7service12item_service5testsNtB5_11MockItemRep13expect_update
FN:85,_RNvMs2_NtNtNtNtCs1B75dzsrioZ_11rust_webapi11application7service12item_service5testsNtB5_11MockItemRep15expect_find_all
FN:85,_RNvMs2_NtNtNtNtCs1B75dzsrioZ_11rust_webapi11application7service12item_service5testsNtB5_11MockItemRep17expect_find_by_id
FN:162,_RNvNtNtNtNtCs1B75dzsrioZ_11rust_webapi11application7service12item_service5testss_11test_create
FN:98,_RNvNtNtNtNtCs1B75dzsrioZ_11rust_webapi11application7service12item_service5testss_13test_find_all
FN:191,_RNvNtNtNtNtCs1B75dzsrioZ_11rust_webapi11application7service12item_service5testss_17test_update_found
FN:251,_RNvNtNtNtNtCs1B75dzsrioZ_11rust_webapi11application7service12item_service5testss_19test_delete_success
FN:264,_RNvNtNtNtNtCs1B75dzsrioZ_11rust_webapi11application7service12item_service5testss_21test_delete_not_found
FN:127,_RNvNtNtNtNtCs1B75dzsrioZ_11rust_webapi11application7service12item_service5testss_21test_find_by_id_found
FN:233,_RNvNtNtNtNtCs1B75dzsrioZ_11rust_webapi11application7service12item_service5testss_21test_update_not_found
FN:149,_RNvNtNtNtNtCs1B75dzsrioZ_11rust_webapi11application7service12item_service5testss_25test_find_by_id_not_found
FN:85,_RNvXNtNtNtNtCs1B75dzsrioZ_11rust_webapi11application7service12item_service5testsNtB2_11MockItemRepNtNtCsfvfooZQ3Axs_4core7default7Default7default
FN:95,_RNvXs3_NtNtNtNtCs1B75dzsrioZ_11rust_webapi11application7service12item_service5testsNtB5_11MockItemRepNtNtNtCs8Y1garwNj5t_6domain10repository15item_repository14ItemRepository10find_by_id
FN:95,_RNvXs3_NtNtNtNtCs1B75dzsrioZ_11rust_webapi11application7service12item_service5testsNtB5_11MockItemRepNtNtNtCs8Y1garwNj5t_6domain10repository15item_repository14ItemRepository6create
FN:95,_RNvXs3_NtNtNtNtCs1B75dzsrioZ_11rust_webapi11application7service12item_service5testsNtB5_11MockItemRepNtNtNtCs8Y1garwNj5t_6domain10repository15item_repository14ItemRepository6delete
FN:95,_RNvXs3_NtNtNtNtCs1B75dzsrioZ_11rust_webapi11application7service12item_service5testsNtB5_11MockItemRepNtNtNtCs8Y1garwNj5t_6domain10repository15item_repository14ItemRepository6update
FN:95,_RNvXs3_NtNtNtNtCs1B75dzsrioZ_11rust_webapi11application7service12item_service5testsNtB5_11MockItemRepNtNtNtCs8Y1garwNj5t_6domain10repository15item_repository14ItemRepository8find_all
FN:85,_RNvXs_NtNtNtNtCs1B75dzsrioZ_11rust_webapi11application7service12item_service5testsNtB4_26MockItemRep_ItemRepositoryNtNtCsfvfooZQ3Axs_4core7default7Default7default
FN:25,_RNvMNtNtNtCs1B75dzsrioZ_11rust_webapi11application7service12item_serviceNtB2_11ItemService10find_by_id
FN:12,_RNvMNtNtNtCs1B75dzsrioZ_11rust_webapi11application7service12item_serviceNtB2_11ItemService3new
FN:35,_RNvMNtNtNtCs1B75dzsrioZ_11rust_webapi11application7service12item_serviceNtB2_11ItemService6create
FN:66,_RNvMNtNtNtCs1B75dzsrioZ_11rust_webapi11application7service12item_serviceNtB2_11ItemService6delete
FN:51,_RNvMNtNtNtCs1B75dzsrioZ_11rust_webapi11application7service12item_serviceNtB2_11ItemService6update
FN:19,_RNvMNtNtNtCs1B75dzsrioZ_11rust_webapi11application7service12item_serviceNtB2_11ItemService8find_all
FN:95,_RNvMNtNtNtNtNtNtCs1B75dzsrioZ_11rust_webapi11application7service12item_service5tests33___mock_MockItemRep_ItemRepository10___find_allNtB2_5Rfunc8call_mut
FN:95,_RNvMs0_NtNtNtNtNtNtCs1B75dzsrioZ_11rust_webapi11application7service12item_service5tests33___mock_MockItemRep_ItemRepository10___find_allNtB5_7Matcher7matches
FN:95,_RNvMs4_NtNtNtNtNtNtCs1B75dzsrioZ_11rust_webapi11application7service12item_service5tests33___mock_MockItemRep_ItemRepository10___find_allNtB5_6Common15verify_sequence
FN:95,_RNvMs4_NtNtNtNtNtNtCs1B75dzsrioZ_11rust_webapi11application7service12item_service5tests33___mock_MockItemRep_ItemRepository10___find_allNtB5_6Common16satisfy_sequence
FN:95,_RNvMs4_NtNtNtNtNtNtCs1B75dzsrioZ_11rust_webapi11application7service12item_service5tests33___mock_MockItemRep_ItemRepository10___find_allNtB5_6Common4call
FN:85,_RNvMs4_NtNtNtNtNtNtCs1B75dzsrioZ_11rust_webapi11application7service12item_service5tests33___mock_MockItemRep_ItemRepository10___find_allNtB5_6Common7is_done
FN:85,_RNvMs4_NtNtNtNtNtNtCs1B75dzsrioZ_11rust_webapi11application7service12item_service5tests33___mock_MockItemRep_ItemRepository10___find_allNtB5_6Common7matches
FN:95,_RNvMs6_NtNtNtNtNtNtCs1B75dzsrioZ_11rust_webapi11application7service12item_service5tests33___mock_MockItemRep_ItemRepository10___find_allNtB5_11Expectation4call
FN:85,_RNvMs6_NtNtNtNtNtNtCs1B75dzsrioZ_11rust_webapi11application7service12item_service5tests33___mock_MockItemRep_ItemRepository10___find_allNtB5_11Expectation7is_done
FN:85,_RNvMs6_NtNtNtNtNtNtCs1B75dzsrioZ_11rust_webapi11application7service12item_service5tests33___mock_MockItemRep_ItemRepository10___find_allNtB5_11Expectation7matches
FN:85,_RNvMs8_NtNtNtNtNtNtCs1B75dzsrioZ_11rust_webapi11application7service12item_service5tests33___mock_MockItemRep_ItemRepository10___find_allNtB5_12Expectations6expect
FN:95,_RNvMsa_NtNtNtNtNtNtCs1B75dzsrioZ_11rust_webapi11application7service12item_service5tests33___mock_MockItemRep_ItemRepository10___find_allNtB5_12Expectations4call
FN:85,_RNvXs1_NtNtNtNtNtNtCs1B75dzsrioZ_11rust_webapi11application7service12item_service5tests33___mock_MockItemRep_ItemRepository10___find_allNtB5_7MatcherNtNtCsfvfooZQ3Axs_4core7default7Default7default
FN:95,_RNvXs2_NtNtNtNtNtNtCs1B75dzsrioZ_11rust_webapi11application7service12item_service5tests33___mock_MockItemRep_ItemRepository10___find_allNtB5_7MatcherNtNtCsfvfooZQ3Axs_4core3fmt7Display3fmt
FN:85,_RNvXs3_NtNtNtNtNtNtCs1B75dzsrioZ_11rust_webapi11application7service12item_service5tests33___mock_MockItemRep_ItemRepository10___find_allNtB5_6CommonNtNtCsfvfooZQ3Axs_4core7default7Default7default
FN:85,_RNvXs7_NtNtNtNtNtNtCs1B75dzsrioZ_11rust_webapi11application7service12item_service5tests33___mock_MockItemRep_ItemRepository10___find_allNtB5_11ExpectationNtNtCsfvfooZQ3Axs_4core7default7Default7default
FN:85,_RNvXs9_NtNtNtNtNtNtCs1B75dzsrioZ_11rust_webapi11application7service12item_service5tests33___mock_MockItemRep_ItemRepository10___find_allNtB5_12ExpectationsNtNtCsfvfooZQ3Axs_4core7default7Default7default
FN:85,_RNvXs_NtNtNtNtNtNtCs1B75dzsrioZ_11rust_webapi11application7service12item_service5tests33___mock_MockItemRep_ItemRepository10___find_allNtB4_5RfuncNtNtCsfvfooZQ3Axs_4core7default7Default7default
FNDA:1,_RNCNCNvNtNtNtNtCs1B75dzsrioZ_11rust_webapi11application7service12item_service5testss_11test_create00Bd_
FNDA:1,_RNCNCNvNtNtNtNtCs1B75dzsrioZ_11rust_webapi11application7service12item_service5testss_11test_create0s_0Bd_
FNDA:1,_RNCNCNvNtNtNtNtCs1B75dzsrioZ_11rust_webapi11application7service12item_service5testss_13test_find_all00Bd_
FNDA:1,_RNCNCNvNtNtNtNtCs1B75dzsrioZ_11rust_webapi11application7service12item_service5testss_17test_update_found00Bd_
FNDA:1,_RNCNCNvNtNtNtNtCs1B75dzsrioZ_11rust_webapi11application7service12item_service5testss_17test_update_found0s0_0Bd_
FNDA:1,_RNCNCNvNtNtNtNtCs1B75dzsrioZ_11rust_webapi11application7service12item_service5testss_17test_update_found0s_0Bd_
FNDA:1,_RNCNCNvNtNtNtNtCs1B75dzsrioZ_11rust_webapi11application7service12item_service5testss_19test_delete_success00Bd_
FNDA:1,_RNCNCNvNtNtNtNtCs1B75dzsrioZ_11rust_webapi11application7service12item_service5testss_21test_delete_not_found00Bd_
FNDA:1,_RNCNCNvNtNtNtNtCs1B75dzsrioZ_11rust_webapi11application7service12item_service5testss_21test_find_by_id_found00Bd_
FNDA:1,_RNCNCNvNtNtNtNtCs1B75dzsrioZ_11rust_webapi11application7service12item_service5testss_21test_update_not_found00Bd_
FNDA:1,_RNCNCNvNtNtNtNtCs1B75dzsrioZ_11rust_webapi11application7service12item_service5testss_25test_find_by_id_not_found00Bd_
FNDA:1,_RNCNvNtNtNtNtCs1B75dzsrioZ_11rust_webapi11application7service12item_service5testss_11test_create0Bb_
FNDA:1,_RNCNvNtNtNtNtCs1B75dzsrioZ_11rust_webapi11application7service12item_service5testss_13test_find_all0Bb_
FNDA:1,_RNCNvNtNtNtNtCs1B75dzsrioZ_11rust_webapi11application7service12item_service5testss_17test_update_found0Bb_
FNDA:1,_RNCNvNtNtNtNtCs1B75dzsrioZ_11rust_webapi11application7service12item_service5testss_19test_delete_success0Bb_
FNDA:1,_RNCNvNtNtNtNtCs1B75dzsrioZ_11rust_webapi11application7service12item_service5testss_21test_delete_not_found0Bb_
FNDA:1,_RNCNvNtNtNtNtCs1B75dzsrioZ_11rust_webapi11application7service12item_service5testss_21test_find_by_id_found0Bb_
FNDA:1,_RNCNvNtNtNtNtCs1B75dzsrioZ_11rust_webapi11application7service12item_service5testss_21test_update_not_found0Bb_
FNDA:1,_RNCNvNtNtNtNtCs1B75dzsrioZ_11rust_webapi11application7service12item_service5testss_25test_find_by_id_not_found0Bb_
FNDA:4,_RNCNvXs3_NtNtNtNtCs1B75dzsrioZ_11rust_webapi11application7service12item_service5testsNtB7_11MockItemRepNtNtNtCs8Y1garwNj5t_6domain10repository15item_repository14ItemRepository10find_by_id0Bf_
FNDA:1,_RNCNvXs3_NtNtNtNtCs1B75dzsrioZ_11rust_webapi11application7service12item_service5testsNtB7_11MockItemRepNtNtNtCs8Y1garwNj5t_6domain10repository15item_repository14ItemRepository6create0Bf_
FNDA:2,_RNCNvXs3_NtNtNtNtCs1B75dzsrioZ_11rust_webapi11application7service12item_service5testsNtB7_11MockItemRepNtNtNtCs8Y1garwNj5t_6domain10repository15item_repository14ItemRepository6delete0Bf_
FNDA:1,_RNCNvXs3_NtNtNtNtCs1B75dzsrioZ_11rust_webapi11application7service12item_service5testsNtB7_11MockItemRepNtNtNtCs8Y1garwNj5t_6domain10repository15item_repository14ItemRepository6update0Bf_
FNDA:1,_RNCNvXs3_NtNtNtNtCs1B75dzsrioZ_11rust_webapi11application7service12item_service5testsNtB7_11MockItemRepNtNtNtCs8Y1garwNj5t_6domain10repository15item_repository14ItemRepository8find_all0Bf_
FNDA:0,_RINvMs4_NtNtNtNtNtNtCs1B75dzsrioZ_11rust_webapi11application7service12item_service5tests33___mock_MockItemRep_ItemRepository10___find_allNtB6_6Common5timespEBi_
FNDA:0,_RINvMs4_NtNtNtNtNtNtCs1B75dzsrioZ_11rust_webapi11application7service12item_service5tests33___mock_MockItemRep_ItemRepository10___find_allNtB6_6Common5withfpEBi_
FNDA:0,_RINvMs4_NtNtNtNtNtNtCs1B75dzsrioZ_11rust_webapi11application7service12item_service5tests33___mock_MockItemRep_ItemRepository10___find_allNtB6_6Common8withf_stpEBi_
FNDA:0,_RINvMs4_NtNtNtNtNtNtCs1B75dzsrioZ_11rust_webapi11application7service12item_service5tests33___mock_MockItemRep_ItemRepository12___find_by_idNtB6_6Common5timespEBi_
FNDA:0,_RINvMs4_NtNtNtNtNtNtCs1B75dzsrioZ_11rust_webapi11application7service12item_service5tests33___mock_MockItemRep_ItemRepository12___find_by_idNtB6_6Common5withfpEBi_
FNDA:0,_RINvMs4_NtNtNtNtNtNtCs1B75dzsrioZ_11rust_webapi11application7service12item_service5tests33___mock_MockItemRep_ItemRepository12___find_by_idNtB6_6Common8withf_stpEBi_
FNDA:0,_RINvMs4_NtNtNtNtNtNtCs1B75dzsrioZ_11rust_webapi11application7service12item_service5tests33___mock_MockItemRep_ItemRepository8___createNtB6_6Common5timespEBi_
FNDA:0,_RINvMs4_NtNtNtNtNtNtCs1B75dzsrioZ_11rust_webapi11application7service12item_service5tests33___mock_MockItemRep_ItemRepository8___createNtB6_6Common5withfpEBi_
FNDA:0,_RINvMs4_NtNtNtNtNtNtCs1B75dzsrioZ_11rust_webapi11application7service12item_service5tests33___mock_MockItemRep_ItemRepository8___createNtB6_6Common8withf_stpEBi_
FNDA:0,_RINvMs4_NtNtNtNtNtNtCs1B75dzsrioZ_11rust_webapi11application7service12item_service5tests33___mock_MockItemRep_ItemRepository8___deleteNtB6_6Common5timespEBi_
FNDA:0,_RINvMs4_NtNtNtNtNtNtCs1B75dzsrioZ_11rust_webapi11application7service12item_service5tests33___mock_MockItemRep_ItemRepository8___deleteNtB6_6Common5withfpEBi_
FNDA:0,_RINvMs4_NtNtNtNtNtNtCs1B75dzsrioZ_11rust_webapi11application7service12item_service5tests33___mock_MockItemRep_ItemRepository8___deleteNtB6_6Common8withf_stpEBi_
FNDA:0,_RINvMs4_NtNtNtNtNtNtCs1B75dzsrioZ_11rust_webapi11application7service12item_service5tests33___mock_MockItemRep_ItemRepository8___updateNtB6_6Common5timespEBi_
FNDA:0,_RINvMs4_NtNtNtNtNtNtCs1B75dzsrioZ_11rust_webapi11application7service12item_service5tests33___mock_MockItemRep_ItemRepository8___updateNtB6_6Common5withfpEBi_
FNDA:0,_RINvMs4_NtNtNtNtNtNtCs1B75dzsrioZ_11rust_webapi11application7service12item_service5tests33___mock_MockItemRep_ItemRepository8___updateNtB6_6Common8withf_stpEBi_
FNDA:0,_RINvMs6_NtNtNtNtNtNtCs1B75dzsrioZ_11rust_webapi11application7service12item_service5tests33___mock_MockItemRep_ItemRepository10___find_allNtB6_11Expectation12return_constpEBi_
FNDA:0,_RINvMs6_NtNtNtNtNtNtCs1B75dzsrioZ_11rust_webapi11application7service12item_service5tests33___mock_MockItemRep_ItemRepository10___find_allNtB6_11Expectation12returning_stpEBi_
FNDA:0,_RINvMs6_NtNtNtNtNtNtCs1B75dzsrioZ_11rust_webapi11application7service12item_service5tests33___mock_MockItemRep_ItemRepository10___find_allNtB6_11Expectation14return_once_stpEBi_
FNDA:0,_RINvMs6_NtNtNtNtNtNtCs1B75dzsrioZ_11rust_webapi11application7service12item_service5tests33___mock_MockItemRep_ItemRepository10___find_allNtB6_11Expectation15return_const_stpEBi_
FNDA:0,_RINvMs6_NtNtNtNtNtNtCs1B75dzsrioZ_11rust_webapi11application7service12item_service5tests33___mock_MockItemRep_ItemRepository10___find_allNtB6_11Expectation5timespEBi_
FNDA:0,_RINvMs6_NtNtNtNtNtNtCs1B75dzsrioZ_11rust_webapi11application7service12item_service5tests33___mock_MockItemRep_ItemRepository10___find_allNtB6_11Expectation5withfpEBi_
FNDA:0,_RINvMs6_NtNtNtNtNtNtCs1B75dzsrioZ_11rust_webapi11application7service12item_service5tests33___mock_MockItemRep_ItemRepository10___find_allNtB6_11Expectation8withf_stpEBi_
FNDA:0,_RINvMs6_NtNtNtNtNtNtCs1B75dzsrioZ_11rust_webapi11application7service12item_service5tests33___mock_MockItemRep_ItemRepository10___find_allNtB6_11Expectation9returningpEBi_
FNDA:0,_RINvMs6_NtNtNtNtNtNtCs1B75dzsrioZ_11rust_webapi11application7service12item_service5tests33___mock_MockItemRep_ItemRepository12___find_by_idNtB6_11Expectation12return_constpEBi_
FNDA:0,_RINvMs6_NtNtNtNtNtNtCs1B75dzsrioZ_11rust_webapi11application7service12item_service5tests33___mock_MockItemRep_ItemRepository12___find_by_idNtB6_11Expectation12returning_stpEBi_
FNDA:0,_RINvMs6_NtNtNtNtNtNtCs1B75dzsrioZ_11rust_webapi11application7service12item_service5tests33___mock_MockItemRep_ItemRepository12___find_by_idNtB6_11Expectation14return_once_stpEBi_
FNDA:0,_RINvMs6_NtNtNtNtNtNtCs1B75dzsrioZ_11rust_webapi11application7service12item_service5tests33___mock_MockItemRep_ItemRepository12___find_by_idNtB6_11Expectation15return_const_stpEBi_
FNDA:0,_RINvMs6_NtNtNtNtNtNtCs1B75dzsrioZ_11rust_webapi11application7service12item_service5tests33___mock_MockItemRep_ItemRepository12___find_by_idNtB6_11Expectation5timespEBi_
FNDA:0,_RINvMs6_NtNtNtNtNtNtCs1B75dzsrioZ_11rust_webapi11application7service12item_service5tests33___mock_MockItemRep_ItemRepository12___find_by_idNtB6_11Expectation5withfpEBi_
FNDA:0,_RINvMs6_NtNtNtNtNtNtCs1B75dzsrioZ_11rust_webapi11application7service12item_service5tests33___mock_MockItemRep_ItemRepository12___find_by_idNtB6_11Expectation8withf_stpEBi_
FNDA:0,_RINvMs6_NtNtNtNtNtNtCs1B75dzsrioZ_11rust_webapi11application7service12item_service5tests33___mock_MockItemRep_ItemRepository12___find_by_idNtB6_11Expectation9returningpEBi_
FNDA:0,_RINvMs6_NtNtNtNtNtNtCs1B75dzsrioZ_11rust_webapi11application7service12item_service5tests33___mock_MockItemRep_ItemRepository8___createNtB6_11Expectation12return_constpEBi_
FNDA:0,_RINvMs6_NtNtNtNtNtNtCs1B75dzsrioZ_11rust_webapi11application7service12item_service5tests33___mock_MockItemRep_ItemRepository8___createNtB6_11Expectation12returning_stpEBi_
FNDA:0,_RINvMs6_NtNtNtNtNtNtCs1B75dzsrioZ_11rust_webapi11application7service12item_service5tests33___mock_MockItemRep_ItemRepository8___createNtB6_11Expectation14return_once_stpEBi_
FNDA:0,_RINvMs6_NtNtNtNtNtNtCs1B75dzsrioZ_11rust_webapi11application7service12item_service5tests33___mock_MockItemRep_ItemRepository8___createNtB6_11Expectation15return_const_stpEBi_
FNDA:0,_RINvMs6_NtNtNtNtNtNtCs1B75dzsrioZ_11rust_webapi11application7service12item_service5tests33___mock_MockItemRep_ItemRepository8___createNtB6_11Expectation5timespEBi_
FNDA:0,_RINvMs6_NtNtNtNtNtNtCs1B75dzsrioZ_11rust_webapi11application7service12item_service5tests33___mock_MockItemRep_ItemRepository8___createNtB6_11Expectation5withfpEBi_
FNDA:0,_RINvMs6_NtNtNtNtNtNtCs1B75dzsrioZ_11rust_webapi11application7service12item_service5tests33___mock_MockItemRep_ItemRepository8___createNtB6_11Expectation8withf_stpEBi_
FNDA:0,_RINvMs6_NtNtNtNtNtNtCs1B75dzsrioZ_11rust_webapi11application7service12item_service5tests33___mock_MockItemRep_ItemRepository8___createNtB6_11Expectation9returningpEBi_
FNDA:0,_RINvMs6_NtNtNtNtNtNtCs1B75dzsrioZ_11rust_webapi11application7service12item_service5tests33___mock_MockItemRep_ItemRepository8___deleteNtB6_11Expectation12return_constpEBi_
FNDA:0,_RINvMs6_NtNtNtNtNtNtCs1B75dzsrioZ_11rust_webapi11application7service12item_service5tests33___mock_MockItemRep_ItemRepository8___deleteNtB6_11Expectation12returning_stpEBi_
FNDA:0,_RINvMs6_NtNtNtNtNtNtCs1B75dzsrioZ_11rust_webapi11application7service12item_service5tests33___mock_MockItemRep_ItemRepository8___deleteNtB6_11Expectation14return_once_stpEBi_
FNDA:0,_RINvMs6_NtNtNtNtNtNtCs1B75dzsrioZ_11rust_webapi11application7service12item_service5tests33___mock_MockItemRep_ItemRepository8___deleteNtB6_11Expectation15return_const_stpEBi_
FNDA:0,_RINvMs6_NtNtNtNtNtNtCs1B75dzsrioZ_11rust_webapi11application7service12item_service5tests33___mock_MockItemRep_ItemRepository8___deleteNtB6_11Expectation5timespEBi_
FNDA:0,_RINvMs6_NtNtNtNtNtNtCs1B75dzsrioZ_11rust_webapi11application7service12item_service5tests33___mock_MockItemRep_ItemRepository8___deleteNtB6_11Expectation5withfpEBi_
FNDA:0,_RINvMs6_NtNtNtNtNtNtCs1B75dzsrioZ_11rust_webapi11application7service12item_service5tests33___mock_MockItemRep_ItemRepository8___deleteNtB6_11Expectation8withf_stpEBi_
FNDA:0,_RINvMs6_NtNtNtNtNtNtCs1B75dzsrioZ_11rust_webapi11application7service12item_service5tests33___mock_MockItemRep_ItemRepository8___deleteNtB6_11Expectation9returningpEBi_
FNDA:0,_RINvMs6_NtNtNtNtNtNtCs1B75dzsrioZ_11rust_webapi11application7service12item_service5tests33___mock_MockItemRep_ItemRepository8___updateNtB6_11Expectation12return_constpEBi_
FNDA:0,_RINvMs6_NtNtNtNtNtNtCs1B75dzsrioZ_11rust_webapi11application7service12item_service5tests33___mock_MockItemRep_ItemRepository8___updateNtB6_11Expectation12returning_stpEBi_
FNDA:0,_RINvMs6_NtNtNtNtNtNtCs1B75dzsrioZ_11rust_webapi11application7service12item_service5tests33___mock_MockItemRep_ItemRepository8___updateNtB6_11Expectation14return_once_stpEBi_
FNDA:0,_RINvMs6_NtNtNtNtNtNtCs1B75dzsrioZ_11rust_webapi11application7service12item_service5tests33___mock_MockItemRep_ItemRepository8___updateNtB6_11Expectation15return_const_stpEBi_
FNDA:0,_RINvMs6_NtNtNtNtNtNtCs1B75dzsrioZ_11rust_webapi11application7service12item_service5tests33___mock_MockItemRep_ItemRepository8___updateNtB6_11Expectation5timespEBi_
FNDA:0,_RINvMs6_NtNtNtNtNtNtCs1B75dzsrioZ_11rust_webapi11application7service12item_service5tests33___mock_MockItemRep_ItemRepository8___updateNtB6_11Expectation5withfpEBi_
FNDA:0,_RINvMs6_NtNtNtNtNtNtCs1B75dzsrioZ_11rust_webapi11application7service12item_service5tests33___mock_MockItemRep_ItemRepository8___updateNtB6_11Expectation8withf_stpEBi_
FNDA:0,_RINvMs6_NtNtNtNtNtNtCs1B75dzsrioZ_11rust_webapi11application7service12item_service5tests33___mock_MockItemRep_ItemRepository8___updateNtB6_11Expectation9returningpEBi_
FNDA:0,_RNCINvMs6_NtNtNtNtNtNtCs1B75dzsrioZ_11rust_webapi11application7service12item_service5tests33___mock_MockItemRep_ItemRepository10___find_allNtB8_11Expectation12return_constpE0Bk_
FNDA:0,_RNCINvMs6_NtNtNtNtNtNtCs1B75dzsrioZ_11rust_webapi11application7service12item_service5tests33___mock_MockItemRep_ItemRepository10___find_allNtB8_11Expectation15return_const_stpE0Bk_
FNDA:0,_RNCINvMs6_NtNtNtNtNtNtCs1B75dzsrioZ_11rust_webapi11application7service12item_service5tests33___mock_MockItemRep_ItemRepository12___find_by_idNtB8_11Expectation12return_constpE0Bk_
FNDA:0,_RNCINvMs6_NtNtNtNtNtNtCs1B75dzsrioZ_11rust_webapi11application7service12item_service5tests33___mock_MockItemRep_ItemRepository12___find_by_idNtB8_11Expectation15return_const_stpE0Bk_
FNDA:0,_RNCINvMs6_NtNtNtNtNtNtCs1B75dzsrioZ_11rust_webapi11application7service12item_service5tests33___mock_MockItemRep_ItemRepository8___createNtB8_11Expectation12return_constpE0Bk_
FNDA:0,_RNCINvMs6_NtNtNtNtNtNtCs1B75dzsrioZ_11rust_webapi11application7service12item_service5tests33___mock_MockItemRep_ItemRepository8___createNtB8_11Expectation15return_const_stpE0Bk_
FNDA:0,_RNCINvMs6_NtNtNtNtNtNtCs1B75dzsrioZ_11rust_webapi11application7service12item_service5tests33___mock_MockItemRep_ItemRepository8___deleteNtB8_11Expectation12return_constpE0Bk_
FNDA:0,_RNCINvMs6_NtNtNtNtNtNtCs1B75dzsrioZ_11rust_webapi11application7service12item_service5tests33___mock_MockItemRep_ItemRepository8___deleteNtB8_11Expectation15return_const_stpE0Bk_
FNDA:0,_RNCINvMs6_NtNtNtNtNtNtCs1B75dzsrioZ_11rust_webapi11application7service12item_service5tests33___mock_MockItemRep_ItemRepository8___updateNtB8_11Expectation12return_constpE0Bk_
FNDA:0,_RNCINvMs6_NtNtNtNtNtNtCs1B75dzsrioZ_11rust_webapi11application7service12item_service5tests33___mock_MockItemRep_ItemRepository8___updateNtB8_11Expectation15return_const_stpE0Bk_
FNDA:0,_RNvMs0_NtNtNtNtCs1B75dzsrioZ_11rust_webapi11application7service12item_service5testsNtB5_26MockItemRep_ItemRepository10checkpoint
FNDA:0,_RNvMs1_NtNtNtNtCs1B75dzsrioZ_11rust_webapi11application7service12item_service5testsNtB5_11MockItemRep10checkpoint
FNDA:0,_RNvMs4_NtNtNtNtNtNtCs1B75dzsrioZ_11rust_webapi11application7service12item_service5tests33___mock_MockItemRep_ItemRepository10___find_allNtB5_6Common11in_sequence
FNDA:0,_RNvMs4_NtNtNtNtNtNtCs1B75dzsrioZ_11rust_webapi11application7service12item_service5tests33___mock_MockItemRep_ItemRepository10___find_allNtB5_6Common4with
FNDA:0,_RNvMs4_NtNtNtNtNtNtCs1B75dzsrioZ_11rust_webapi11application7service12item_service5tests33___mock_MockItemRep_ItemRepository10___find_allNtB5_6Common5never
FNDA:0,_RNvMs4_NtNtNtNtNtNtCs1B75dzsrioZ_11rust_webapi11application7service12item_service5tests33___mock_MockItemRep_ItemRepository12___find_by_idNtB5_6Common11in_sequence
FNDA:0,_RNvMs4_NtNtNtNtNtNtCs1B75dzsrioZ_11rust_webapi11application7service12item_service5tests33___mock_MockItemRep_ItemRepository12___find_by_idNtB5_6Common5never
FNDA:0,_RNvMs4_NtNtNtNtNtNtCs1B75dzsrioZ_11rust_webapi11application7service12item_service5tests33___mock_MockItemRep_ItemRepository8___createNtB5_6Common11in_sequence
FNDA:0,_RNvMs4_NtNtNtNtNtNtCs1B75dzsrioZ_11rust_webapi11application7service12item_service5tests33___mock_MockItemRep_ItemRepository8___createNtB5_6Common5never
FNDA:0,_RNvMs4_NtNtNtNtNtNtCs1B75dzsrioZ_11rust_webapi11application7service12item_service5tests33___mock_MockItemRep_ItemRepository8___deleteNtB5_6Common11in_sequence
FNDA:0,_RNvMs4_NtNtNtNtNtNtCs1B75dzsrioZ_11rust_webapi11application7service12item_service5tests33___mock_MockItemRep_ItemRepository8___deleteNtB5_6Common5never
FNDA:0,_RNvMs4_NtNtNtNtNtNtCs1B75dzsrioZ_11rust_webapi11application7service12item_service5tests33___mock_MockItemRep_ItemRepository8___updateNtB5_6Common11in_sequence
FNDA:0,_RNvMs4_NtNtNtNtNtNtCs1B75dzsrioZ_11rust_webapi11application7service12item_service5tests33___mock_MockItemRep_ItemRepository8___updateNtB5_6Common5never
FNDA:0,_RNvMs6_NtNtNtNtNtNtCs1B75dzsrioZ_11rust_webapi11application7service12item_service5tests33___mock_MockItemRep_ItemRepository10___find_allNtB5_11Expectation11in_sequence
FNDA:0,_RNvMs6_NtNtNtNtNtNtCs1B75dzsrioZ_11rust_webapi11application7service12item_service5tests33___mock_MockItemRep_ItemRepository10___find_allNtB5_11Expectation3new
FNDA:0,_RNvMs6_NtNtNtNtNtNtCs1B75dzsrioZ_11rust_webapi11application7service12item_service5tests33___mock_MockItemRep_ItemRepository10___find_allNtB5_11Expectation4once
FNDA:0,_RNvMs6_NtNtNtNtNtNtCs1B75dzsrioZ_11rust_webapi11application7service12item_service5tests33___mock_MockItemRep_ItemRepository10___find_allNtB5_11Expectation4with
FNDA:0,_RNvMs6_NtNtNtNtNtNtCs1B75dzsrioZ_11rust_webapi11application7service12item_service5tests33___mock_MockItemRep_ItemRepository10___find_allNtB5_11Expectation5never
FNDA:0,_RNvMs6_NtNtNtNtNtNtCs1B75dzsrioZ_11rust_webapi11application7service12item_service5tests33___mock_MockItemRep_ItemRepository12___find_by_idNtB5_11Expectation11in_sequence
FNDA:0,_RNvMs6_NtNtNtNtNtNtCs1B75dzsrioZ_11rust_webapi11application7service12item_service5tests33___mock_MockItemRep_ItemRepository12___find_by_idNtB5_11Expectation3new
FNDA:0,_RNvMs6_NtNtNtNtNtNtCs1B75dzsrioZ_11rust_webapi11application7service12item_service5tests33___mock_MockItemRep_ItemRepository12___find_by_idNtB5_11Expectation4once
FNDA:0,_RNvMs6_NtNtNtNtNtNtCs1B75dzsrioZ_11rust_webapi11application7service12item_service5tests33___mock_MockItemRep_ItemRepository12___find_by_idNtB5_11Expectation5never
FNDA:0,_RNvMs6_NtNtNtNtNtNtCs1B75dzsrioZ_11rust_webapi11application7service12item_service5tests33___mock_MockItemRep_ItemRepository8___createNtB5_11Expectation11in_sequence
FNDA:0,_RNvMs6_NtNtNtNtNtNtCs1B75dzsrioZ_11rust_webapi11application7service12item_service5tests33___mock_MockItemRep_ItemRepository8___createNtB5_11Expectation3new
FNDA:0,_RNvMs6_NtNtNtNtNtNtCs1B75dzsrioZ_11rust_webapi11application7service12item_service5tests33___mock_MockItemRep_ItemRepository8___createNtB5_11Expectation4once
FNDA:0,_RNvMs6_NtNtNtNtNtNtCs1B75dzsrioZ_11rust_webapi11application7service12item_service5tests33___mock_MockItemRep_ItemRepository8___createNtB5_11Expectation5never
FNDA:0,_RNvMs6_NtNtNtNtNtNtCs1B75dzsrioZ_11rust_webapi11application7service12item_service5tests33___mock_MockItemRep_ItemRepository8___deleteNtB5_11Expectation11in_sequence
FNDA:0,_RNvMs6_NtNtNtNtNtNtCs1B75dzsrioZ_11rust_webapi11application7service12item_service5tests33___mock_MockItemRep_ItemRepository8___deleteNtB5_11Expectation3new
FNDA:0,_RNvMs6_NtNtNtNtNtNtCs1B75dzsrioZ_11rust_webapi11application7service12item_service5tests33___mock_MockItemRep_ItemRepository8___deleteNtB5_11Expectation4once
FNDA:0,_RNvMs6_NtNtNtNtNtNtCs1B75dzsrioZ_11rust_webapi11application7service12item_service5tests33___mock_MockItemRep_ItemRepository8___deleteNtB5_11Expectation5never
FNDA:0,_RNvMs6_NtNtNtNtNtNtCs1B75dzsrioZ_11rust_webapi11application7service12item_service5tests33___mock_MockItemRep_ItemRepository8___updateNtB5_11Expectation11in_sequence
FNDA:0,_RNvMs6_NtNtNtNtNtNtCs1B75dzsrioZ_11rust_webapi11application7service12item_service5tests33___mock_MockItemRep_ItemRepository8___updateNtB5_11Expectation3new
FNDA:0,_RNvMs6_NtNtNtNtNtNtCs1B75dzsrioZ_11rust_webapi11application7service12item_service5tests33___mock_MockItemRep_ItemRepository8___updateNtB5_11Expectation4once
FNDA:0,_RNvMs6_NtNtNtNtNtNtCs1B75dzsrioZ_11rust_webapi11application7service12item_service5tests33___mock_MockItemRep_ItemRepository8___updateNtB5_11Expectation5never
FNDA:0,_RNvMs8_NtNtNtNtNtNtCs1B75dzsrioZ_11rust_webapi11application7service12item_service5tests33___mock_MockItemRep_ItemRepository10___find_allNtB5_12Expectations10checkpoint
FNDA:0,_RNvMs8_NtNtNtNtNtNtCs1B75dzsrioZ_11rust_webapi11application7service12item_service5tests33___mock_MockItemRep_ItemRepository10___find_allNtB5_12Expectations3new
FNDA:0,_RNvMs8_NtNtNtNtNtNtCs1B75dzsrioZ_11rust_webapi11application7service12item_service5tests33___mock_MockItemRep_ItemRepository12___find_by_idNtB5_12Expectations10checkpoint
FNDA:0,_RNvMs8_NtNtNtNtNtNtCs1B75dzsrioZ_11rust_webapi11application7service12item_service5tests33___mock_MockItemRep_ItemRepository12___find_by_idNtB5_12Expectations3new
FNDA:0,_RNvMs8_NtNtNtNtNtNtCs1B75dzsrioZ_11rust_webapi11application7service12item_service5tests33___mock_MockItemRep_ItemRepository8___createNtB5_12Expectations10checkpoint
FNDA:0,_RNvMs8_NtNtNtNtNtNtCs1B75dzsrioZ_11rust_webapi11application7service12item_service5tests33___mock_MockItemRep_ItemRepository8___createNtB5_12Expectations3new
FNDA:0,_RNvMs8_NtNtNtNtNtNtCs1B75dzsrioZ_11rust_webapi11application7service12item_service5tests33___mock_MockItemRep_ItemRepository8___deleteNtB5_12Expectations10checkpoint
FNDA:0,_RNvMs8_NtNtNtNtNtNtCs1B75dzsrioZ_11rust_webapi11application7service12item_service5tests33___mock_MockItemRep_ItemRepository8___deleteNtB5_12Expectations3new
FNDA:0,_RNvMs8_NtNtNtNtNtNtCs1B75dzsrioZ_11rust_webapi11application7service12item_service5tests33___mock_MockItemRep_ItemRepository8___updateNtB5_12Expectations10checkpoint
FNDA:0,_RNvMs8_NtNtNtNtNtNtCs1B75dzsrioZ_11rust_webapi11application7service12item_service5tests33___mock_MockItemRep_ItemRepository8___updateNtB5_12Expectations3new
FNDA:4,_RNCNvMNtNtNtCs1B75dzsrioZ_11rust_webapi11application7service12item_serviceNtB4_11ItemService10find_by_id0Ba_
FNDA:2,_RNCNvMNtNtNtCs1B75dzsrioZ_11rust_webapi11application7service12item_serviceNtB4_11ItemService6create0Ba_
FNDA:4,_RNCNvMNtNtNtCs1B75dzsrioZ_11rust_webapi11application7service12item_serviceNtB4_11ItemService6delete0Ba_
FNDA:4,_RNCNvMNtNtNtCs1B75dzsrioZ_11rust_webapi11application7service12item_serviceNtB4_11ItemService6update0Ba_
FNDA:2,_RNCNvMNtNtNtCs1B75dzsrioZ_11rust_webapi11application7service12item_serviceNtB4_11ItemService8find_all0Ba_
FNDA:1,_RINvMs4_NtNtNtNtNtNtCs1B75dzsrioZ_11rust_webapi11application7service12item_service5tests33___mock_MockItemRep_ItemRepository8___createNtB6_6Common4withINtNtCs9l2CZqY40TY_10predicates8function11FnPredicateNCNCNvBa_s_11test_create00NtNtNtCs8Y1garwNj5t_6domain5model4item4ItemEEBi_
FNDA:1,_RINvMs6_NtNtNtNtNtNtCs1B75dzsrioZ_11rust_webapi11application7service12item_service5tests33___mock_MockItemRep_ItemRepository8___createNtB6_11Expectation11return_onceNCNCNvBa_s_11test_create0s_0EBi_
FNDA:1,_RINvMs6_NtNtNtNtNtNtCs1B75dzsrioZ_11rust_webapi11application7service12item_service5tests33___mock_MockItemRep_ItemRepository8___createNtB6_11Expectation4withINtNtCs9l2CZqY40TY_10predicates8function11FnPredicateNCNCNvBa_s_11test_create00NtNtNtCs8Y1garwNj5t_6domain5model4item4ItemEEBi_
FNDA:1,_RNCNvMs0_NtNtNtNtNtNtCs1B75dzsrioZ_11rust_webapi11application7service12item_service5tests33___mock_MockItemRep_ItemRepository8___createNtB7_7Matcher7matches0Bj_
FNDA:1,_RNCNvMsa_NtNtNtNtNtNtCs1B75dzsrioZ_11rust_webapi11application7service12item_service5tests33___mock_MockItemRep_ItemRepository8___createNtB7_12Expectations4call0Bj_
FNDA:1,_RNCNvMsa_NtNtNtNtNtNtCs1B75dzsrioZ_11rust_webapi11application7service12item_service5tests33___mock_MockItemRep_ItemRepository8___createNtB7_12Expectations4calls_0Bj_
FNDA:1,_RINvMs6_NtNtNtNtNtNtCs1B75dzsrioZ_11rust_webapi11application7service12item_service5tests33___mock_MockItemRep_ItemRepository10___find_allNtB6_11Expectation11return_onceNCNCNvBa_s_13test_find_all00EBi_
FNDA:0,_RNCNvMs0_NtNtNtNtNtNtCs1B75dzsrioZ_11rust_webapi11application7service12item_service5tests33___mock_MockItemRep_ItemRepository10___find_allNtB7_7Matcher7matches0Bj_
FNDA:1,_RNCNvMsa_NtNtNtNtNtNtCs1B75dzsrioZ_11rust_webapi11application7service12item_service5tests33___mock_MockItemRep_ItemRepository10___find_allNtB7_12Expectations4call0Bj_
FNDA:1,_RNCNvMsa_NtNtNtNtNtNtCs1B75dzsrioZ_11rust_webapi11application7service12item_service5tests33___mock_MockItemRep_ItemRepository10___find_allNtB7_12Expectations4calls_0Bj_
FNDA:1,_RNvXs5_NtNtNtNtNtNtCs1B75dzsrioZ_11rust_webapi11application7service12item_service5tests33___mock_MockItemRep_ItemRepository10___find_allNtB5_6CommonNtNtNtCsfvfooZQ3Axs_4core3ops4drop4Drop4drop
FNDA:4,_RNvXs5_NtNtNtNtNtNtCs1B75dzsrioZ_11rust_webapi11application7service12item_service5tests33___mock_MockItemRep_ItemRepository12___find_by_idNtB5_6CommonNtNtNtCsfvfooZQ3Axs_4core3ops4drop4Drop4drop
FNDA:1,_RNvXs5_NtNtNtNtNtNtCs1B75dzsrioZ_11rust_webapi11application7service12item_service5tests33___mock_MockItemRep_ItemRepository8___createNtB5_6CommonNtNtNtCsfvfooZQ3Axs_4core3ops4drop4Drop4drop
FNDA:2,_RNvXs5_NtNtNtNtNtNtCs1B75dzsrioZ_11rust_webapi11application7service12item_service5tests33___mock_MockItemRep_ItemRepository8___deleteNtB5_6CommonNtNtNtCsfvfooZQ3Axs_4core3ops4drop4Drop4drop
FNDA:1,_RNvXs5_NtNtNtNtNtNtCs1B75dzsrioZ_11rust_webapi11application7service12item_service5tests33___mock_MockItemRep_ItemRepository8___updateNtB5_6CommonNtNtNtCsfvfooZQ3Axs_4core3ops4drop4Drop4drop
FNDA:2,_RINvMs4_NtNtNtNtNtNtCs1B75dzsrioZ_11rust_webapi11application7service12item_service5tests33___mock_MockItemRep_ItemRepository8___deleteNtB6_6Common4withINtNtCs9l2CZqY40TY_10predicates3ord11EqPredicateyEEBi_
FNDA:1,_RINvMs6_NtNtNtNtNtNtCs1B75dzsrioZ_11rust_webapi11application7service12item_service5tests33___mock_MockItemRep_ItemRepository8___deleteNtB6_11Expectation11return_onceNCNCNvBa_s_19test_delete_success00EBi_
FNDA:1,_RINvMs6_NtNtNtNtNtNtCs1B75dzsrioZ_11rust_webapi11application7service12item_service5tests33___mock_MockItemRep_ItemRepository8___deleteNtB6_11Expectation11return_onceNCNCNvBa_s_21test_delete_not_found00EBi_
FNDA:2,_RINvMs6_NtNtNtNtNtNtCs1B75dzsrioZ_11rust_webapi11application7service12item_service5tests33___mock_MockItemRep_ItemRepository8___deleteNtB6_11Expectation4withINtNtCs9l2CZqY40TY_10predicates3ord11EqPredicateyEEBi_
FNDA:2,_RNCNvMs0_NtNtNtNtNtNtCs1B75dzsrioZ_11rust_webapi11application7service12item_service5tests33___mock_MockItemRep_ItemRepository8___deleteNtB7_7Matcher7matches0Bj_
FNDA:2,_RNCNvMsa_NtNtNtNtNtNtCs1B75dzsrioZ_11rust_webapi11application7service12item_service5tests33___mock_MockItemRep_ItemRepository8___deleteNtB7_12Expectations4call0Bj_
FNDA:2,_RNCNvMsa_NtNtNtNtNtNtCs1B75dzsrioZ_11rust_webapi11application7service12item_service5tests33___mock_MockItemRep_ItemRepository8___deleteNtB7_12Expectations4calls_0Bj_
FNDA:2,_RNvMNtNtNtNtNtNtCs1B75dzsrioZ_11rust_webapi11application7service12item_service5tests33___mock_MockItemRep_ItemRepository8___deleteNtB2_5Rfunc8call_mut
FNDA:2,_RNvMs0_NtNtNtNtNtNtCs1B75dzsrioZ_11rust_webapi11application7service12item_service5tests33___mock_MockItemRep_ItemRepository8___deleteNtB5_7Matcher7matches
FNDA:2,_RNvMs4_NtNtNtNtNtNtCs1B75dzsrioZ_11rust_webapi11application7service12item_service5tests33___mock_MockItemRep_ItemRepository8___deleteNtB5_6Common15verify_sequence
FNDA:2,_RNvMs4_NtNtNtNtNtNtCs1B75dzsrioZ_11rust_webapi11application7service12item_service5tests33___mock_MockItemRep_ItemRepository8___deleteNtB5_6Common16satisfy_sequence
FNDA:2,_RNvMs4_NtNtNtNtNtNtCs1B75dzsrioZ_11rust_webapi11application7service12item_service5tests33___mock_MockItemRep_ItemRepository8___deleteNtB5_6Common4call
FNDA:2,_RNvMs4_NtNtNtNtNtNtCs1B75dzsrioZ_11rust_webapi11application7service12item_service5tests33___mock_MockItemRep_ItemRepository8___deleteNtB5_6Common7is_done
FNDA:2,_RNvMs4_NtNtNtNtNtNtCs1B75dzsrioZ_11rust_webapi11application7service12item_service5tests33___mock_MockItemRep_ItemRepository8___deleteNtB5_6Common7matches
FNDA:2,_RNvMs6_NtNtNtNtNtNtCs1B75dzsrioZ_11rust_webapi11application7service12item_service5tests33___mock_MockItemRep_ItemRepository8___deleteNtB5_11Expectation4call
FNDA:2,_RNvMs6_NtNtNtNtNtNtCs1B75dzsrioZ_11rust_webapi11application7service12item_service5tests33___mock_MockItemRep_ItemRepository8___deleteNtB5_11Expectation7is_done
FNDA:2,_RNvMs6_NtNtNtNtNtNtCs1B75dzsrioZ_11rust_webapi11application7service12item_service5tests33___mock_MockItemRep_ItemRepository8___deleteNtB5_11Expectation7matches
FNDA:2,_RNvMs8_NtNtNtNtNtNtCs1B75dzsrioZ_11rust_webapi11application7service12item_service5tests33___mock_MockItemRep_ItemRepository8___deleteNtB5_12Expectations6expect
FNDA:2,_RNvMsa_NtNtNtNtNtNtCs1B75dzsrioZ_11rust_webapi11application7service12item_service5tests33___mock_MockItemRep_ItemRepository8___deleteNtB5_12Expectations4call
FNDA:2,_RNvXs1_NtNtNtNtNtNtCs1B75dzsrioZ_11rust_webapi11application7service12item_service5tests33___mock_MockItemRep_ItemRepository8___deleteNtB5_7MatcherNtNtCsfvfooZQ3Axs_4core7default7Default7default
FNDA:2,_RNvXs2_NtNtNtNtNtNtCs1B75dzsrioZ_11rust_webapi11application7service12item_service5tests33___mock_MockItemRep_ItemRepository8___deleteNtB5_7MatcherNtNtCsfvfooZQ3Axs_4core3fmt7Display3fmt
FNDA:2,_RNvXs3_NtNtNtNtNtNtCs1B75dzsrioZ_11rust_webapi11application7service12item_service5tests33___mock_MockItemRep_ItemRepository8___deleteNtB5_6CommonNtNtCsfvfooZQ3Axs_4core7default7Default7default
FNDA:2,_RNvXs7_NtNtNtNtNtNtCs1B75dzsrioZ_11rust_webapi11application7service12item_service5tests33___mock_MockItemRep_ItemRepository8___deleteNtB5_11ExpectationNtNtCsfvfooZQ3Axs_4core7default7Default7default
FNDA:8,_RNvXs9_NtNtNtNtNtNtCs1B75dzsrioZ_11rust_webapi11application7service12item_service5tests33___mock_MockItemRep_ItemRepository8___deleteNtB5_12ExpectationsNtNtCsfvfooZQ3Axs_4core7default7Default7default
FNDA:2,_RNvXs_NtNtNtNtNtNtCs1B75dzsrioZ_11rust_webapi11application7service12item_service5tests33___mock_MockItemRep_ItemRepository8___deleteNtB4_5RfuncNtNtCsfvfooZQ3Axs_4core7default7Default7default
FNDA:4,_RINvMs4_NtNtNtNtNtNtCs1B75dzsrioZ_11rust_webapi11application7service12item_service5tests33___mock_MockItemRep_ItemRepository12___find_by_idNtB6_6Common4withINtNtCs9l2CZqY40TY_10predicates3ord11EqPredicateyEEBi_
FNDA:1,_RINvMs6_NtNtNtNtNtNtCs1B75dzsrioZ_11rust_webapi11application7service12item_service5tests33___mock_MockItemRep_ItemRepository12___find_by_idNtB6_11Expectation11return_onceNCNCNvBa_s_17test_update_found00EBi_
FNDA:1,_RINvMs6_NtNtNtNtNtNtCs1B75dzsrioZ_11rust_webapi11application7service12item_service5tests33___mock_MockItemRep_ItemRepository12___find_by_idNtB6_11Expectation11return_onceNCNCNvBa_s_21test_find_by_id_found00EBi_
FNDA:1,_RINvMs6_NtNtNtNtNtNtCs1B75dzsrioZ_11rust_webapi11application7service12item_service5tests33___mock_MockItemRep_ItemRepository12___find_by_idNtB6_11Expectation11return_onceNCNCNvBa_s_21test_update_not_found00EBi_
FNDA:1,_RINvMs6_NtNtNtNtNtNtCs1B75dzsrioZ_11rust_webapi11application7service12item_service5tests33___mock_MockItemRep_ItemRepository12___find_by_idNtB6_11Expectation11return_onceNCNCNvBa_s_25test_find_by_id_not_found00EBi_
FNDA:4,_RINvMs6_NtNtNtNtNtNtCs1B75dzsrioZ_11rust_webapi11application7service12item_service5tests33___mock_MockItemRep_ItemRepository12___find_by_idNtB6_11Expectation4withINtNtCs9l2CZqY40TY_10predicates3ord11EqPredicateyEEBi_
FNDA:4,_RNCNvMs0_NtNtNtNtNtNtCs1B75dzsrioZ_11rust_webapi11application7service12item_service5tests33___mock_MockItemRep_ItemRepository12___find_by_idNtB7_7Matcher7matches0Bj_
FNDA:4,_RNCNvMsa_NtNtNtNtNtNtCs1B75dzsrioZ_11rust_webapi11application7service12item_service5tests33___mock_MockItemRep_ItemRepository12___find_by_idNtB7_12Expectations4call0Bj_
FNDA:4,_RNCNvMsa_NtNtNtNtNtNtCs1B75dzsrioZ_11rust_webapi11application7service12item_service5tests33___mock_MockItemRep_ItemRepository12___find_by_idNtB7_12Expectations4calls_0Bj_
FNDA:4,_RNvMNtNtNtNtNtNtCs1B75dzsrioZ_11rust_webapi11application7service12item_service5tests33___mock_MockItemRep_ItemRepository12___find_by_idNtB2_5Rfunc8call_mut
FNDA:4,_RNvMs0_NtNtNtNtNtNtCs1B75dzsrioZ_11rust_webapi11application7service12item_service5tests33___mock_MockItemRep_ItemRepository12___find_by_idNtB5_7Matcher7matches
FNDA:4,_RNvMs4_NtNtNtNtNtNtCs1B75dzsrioZ_11rust_webapi11application7service12item_service5tests33___mock_MockItemRep_ItemRepository12___find_by_idNtB5_6Common15verify_sequence
FNDA:4,_RNvMs4_NtNtNtNtNtNtCs1B75dzsrioZ_11rust_webapi11application7service12item_service5tests33___mock_MockItemRep_ItemRepository12___find_by_idNtB5_6Common16satisfy_sequence
FNDA:4,_RNvMs4_NtNtNtNtNtNtCs1B75dzsrioZ_11rust_webapi11application7service12item_service5tests33___mock_MockItemRep_ItemRepository12___find_by_idNtB5_6Common4call
FNDA:4,_RNvMs4_NtNtNtNtNtNtCs1B75dzsrioZ_11rust_webapi11application7service12item_service5tests33___mock_MockItemRep_ItemRepository12___find_by_idNtB5_6Common7is_done
FNDA:4,_RNvMs4_NtNtNtNtNtNtCs1B75dzsrioZ_11rust_webapi11application7service12item_service5tests33___mock_MockItemRep_ItemRepository12___find_by_idNtB5_6Common7matches
FNDA:4,_RNvMs6_NtNtNtNtNtNtCs1B75dzsrioZ_11rust_webapi11application7service12item_service5tests33___mock_MockItemRep_ItemRepository12___find_by_idNtB5_11Expectation4call
FNDA:4,_RNvMs6_NtNtNtNtNtNtCs1B75dzsrioZ_11rust_webapi11application7service12item_service5tests33___mock_MockItemRep_ItemRepository12___find_by_idNtB5_11Expectation7is_done
FNDA:4,_RNvMs6_NtNtNtNtNtNtCs1B75dzsrioZ_11rust_webapi11application7service12item_service5tests33___mock_MockItemRep_ItemRepository12___find_by_idNtB5_11Expectation7matches
FNDA:4,_RNvMs8_NtNtNtNtNtNtCs1B75dzsrioZ_11rust_webapi11application7service12item_service5tests33___mock_MockItemRep_ItemRepository12___find_by_idNtB5_12Expectations6expect
FNDA:4,_RNvMsa_NtNtNtNtNtNtCs1B75dzsrioZ_11rust_webapi11application7service12item_service5tests33___mock_MockItemRep_ItemRepository12___find_by_idNtB5_12Expectations4call
FNDA:4,_RNvXs1_NtNtNtNtNtNtCs1B75dzsrioZ_11rust_webapi11application7service12item_service5tests33___mock_MockItemRep_ItemRepository12___find_by_idNtB5_7MatcherNtNtCsfvfooZQ3Axs_4core7default7Default7default
FNDA:4,_RNvXs2_NtNtNtNtNtNtCs1B75dzsrioZ_11rust_webapi11application7service12item_service5tests33___mock_MockItemRep_ItemRepository12___find_by_idNtB5_7MatcherNtNtCsfvfooZQ3Axs_4core3fmt7Display3fmt
FNDA:4,_RNvXs3_NtNtNtNtNtNtCs1B75dzsrioZ_11rust_webapi11application7service12item_service5tests33___mock_MockItemRep_ItemRepository12___find_by_idNtB5_6CommonNtNtCsfvfooZQ3Axs_4core7default7Default7default
FNDA:4,_RNvXs7_NtNtNtNtNtNtCs1B75dzsrioZ_11rust_webapi11application7service12item_service5tests33___mock_MockItemRep_ItemRepository12___find_by_idNtB5_11ExpectationNtNtCsfvfooZQ3Axs_4core7default7Default7default
FNDA:8,_RNvXs9_NtNtNtNtNtNtCs1B75dzsrioZ_11rust_webapi11application7service12item_service5tests33___mock_MockItemRep_ItemRepository12___find_by_idNtB5_12ExpectationsNtNtCsfvfooZQ3Axs_4core7default7Default7default
FNDA:4,_RNvXs_NtNtNtNtNtNtCs1B75dzsrioZ_11rust_webapi11application7service12item_service5tests33___mock_MockItemRep_ItemRepository12___find_by_idNtB4_5RfuncNtNtCsfvfooZQ3Axs_4core7default7Default7default
FNDA:1,_RINvMs4_NtNtNtNtNtNtCs1B75dzsrioZ_11rust_webapi11application7service12item_service5tests33___mock_MockItemRep_ItemRepository8___updateNtB6_6Common4withINtNtCs9l2CZqY40TY_10predicates8function11FnPredicateNCNCNvBa_s_17test_update_found0s_0NtNtNtCs8Y1garwNj5t_6domain5model4item4ItemEEBi_
FNDA:1,_RINvMs6_NtNtNtNtNtNtCs1B75dzsrioZ_11rust_webapi11application7service12item_service5tests33___mock_MockItemRep_ItemRepository8___updateNtB6_11Expectation11return_onceNCNCNvBa_s_17test_update_found0s0_0EBi_
FNDA:1,_RINvMs6_NtNtNtNtNtNtCs1B75dzsrioZ_11rust_webapi11application7service12item_service5tests33___mock_MockItemRep_ItemRepository8___updateNtB6_11Expectation4withINtNtCs9l2CZqY40TY_10predicates8function11FnPredicateNCNCNvBa_s_17test_update_found0s_0NtNtNtCs8Y1garwNj5t_6domain5model4item4ItemEEBi_
FNDA:1,_RNCNvMs0_NtNtNtNtNtNtCs1B75dzsrioZ_11rust_webapi11application7service12item_service5tests33___mock_MockItemRep_ItemRepository8___updateNtB7_7Matcher7matches0Bj_
FNDA:1,_RNCNvMsa_NtNtNtNtNtNtCs1B75dzsrioZ_11rust_webapi11application7service12item_service5tests33___mock_MockItemRep_ItemRepository8___updateNtB7_12Expectations4call0Bj_
FNDA:1,_RNCNvMsa_NtNtNtNtNtNtCs1B75dzsrioZ_11rust_webapi11application7service12item_service5tests33___mock_MockItemRep_ItemRepository8___updateNtB7_12Expectations4calls_0Bj_
FNDA:1,_RNvMNtNtNtNtNtNtCs1B75dzsrioZ_11rust_webapi11application7service12item_service5tests33___mock_MockItemRep_ItemRepository8___createNtB2_5Rfunc8call_mut
FNDA:1,_RNvMs0_NtNtNtNtNtNtCs1B75dzsrioZ_11rust_webapi11application7service12item_service5tests33___mock_MockItemRep_ItemRepository8___createNtB5_7Matcher7matches
FNDA:1,_RNvMs4_NtNtNtNtNtNtCs1B75dzsrioZ_11rust_webapi11application7service12item_service5tests33___mock_MockItemRep_ItemRepository8___createNtB5_6Common15verify_sequence
FNDA:1,_RNvMs4_NtNtNtNtNtNtCs1B75dzsrioZ_11rust_webapi11application7service12item_service5tests33___mock_MockItemRep_ItemRepository8___createNtB5_6Common16satisfy_sequence
FNDA:1,_RNvMs4_NtNtNtNtNtNtCs1B75dzsrioZ_11rust_webapi11application7service12item_service5tests33___mock_MockItemRep_ItemRepository8___createNtB5_6Common4call
FNDA:1,_RNvMs4_NtNtNtNtNtNtCs1B75dzsrioZ_11rust_webapi11application7service12item_service5tests33___mock_MockItemRep_ItemRepository8___createNtB5_6Common7is_done
FNDA:1,_RNvMs4_NtNtNtNtNtNtCs1B75dzsrioZ_11rust_webapi11application7service12item_service5tests33___mock_MockItemRep_ItemRepository8___createNtB5_6Common7matches
FNDA:1,_RNvMs6_NtNtNtNtNtNtCs1B75dzsrioZ_11rust_webapi11application7service12item_service5tests33___mock_MockItemRep_ItemRepository8___createNtB5_11Expectation4call
FNDA:1,_RNvMs6_NtNtNtNtNtNtCs1B75dzsrioZ_11rust_webapi11application7service12item_service5tests33___mock_MockItemRep_ItemRepository8___createNtB5_11Expectation7is_done
FNDA:1,_RNvMs6_NtNtNtNtNtNtCs1B75dzsrioZ_11rust_webapi11application7service12item_service5tests33___mock_MockItemRep_ItemRepository8___createNtB5_11Expectation7matches
FNDA:1,_RNvMs8_NtNtNtNtNtNtCs1B75dzsrioZ_11rust_webapi11application7service12item_service5tests33___mock_MockItemRep_ItemRepository8___createNtB5_12Expectations6expect
FNDA:1,_RNvMsa_NtNtNtNtNtNtCs1B75dzsrioZ_11rust_webapi11application7service12item_service5tests33___mock_MockItemRep_ItemRepository8___createNtB5_12Expectations4call
FNDA:1,_RNvXs1_NtNtNtNtNtNtCs1B75dzsrioZ_11rust_webapi11application7service12item_service5tests33___mock_MockItemRep_ItemRepository8___createNtB5_7MatcherNtNtCsfvfooZQ3Axs_4core7default7Default7default
FNDA:1,_RNvXs2_NtNtNtNtNtNtCs1B75dzsrioZ_11rust_webapi11application7service12item_service5tests33___mock_MockItemRep_ItemRepository8___createNtB5_7MatcherNtNtCsfvfooZQ3Axs_4core3fmt7Display3fmt
FNDA:1,_RNvXs3_NtNtNtNtNtNtCs1B75dzsrioZ_11rust_webapi11application7service12item_service5tests33___mock_MockItemRep_ItemRepository8___createNtB5_6CommonNtNtCsfvfooZQ3Axs_4core7default7Default7default
FNDA:1,_RNvXs7_NtNtNtNtNtNtCs1B75dzsrioZ_11rust_webapi11application7service12item_service5tests33___mock_MockItemRep_ItemRepository8___createNtB5_11ExpectationNtNtCsfvfooZQ3Axs_4core7default7Default7default
FNDA:8,_RNvXs9_NtNtNtNtNtNtCs1B75dzsrioZ_11rust_webapi11application7service12item_service5tests33___mock_MockItemRep_ItemRepository8___createNtB5_12ExpectationsNtNtCsfvfooZQ3Axs_4core7default7Default7default
FNDA:1,_RNvXs_NtNtNtNtNtNtCs1B75dzsrioZ_11rust_webapi11application7service12item_service5tests33___mock_MockItemRep_ItemRepository8___createNtB4_5RfuncNtNtCsfvfooZQ3Axs_4core7default7Default7default
FNDA:1,_RNvMNtNtNtNtNtNtCs1B75dzsrioZ_11rust_webapi11application7service12item_service5tests33___mock_MockItemRep_ItemRepository8___updateNtB2_5Rfunc8call_mut
FNDA:1,_RNvMs0_NtNtNtNtNtNtCs1B75dzsrioZ_11rust_webapi11application7service12item_service5tests33___mock_MockItemRep_ItemRepository8___updateNtB5_7Matcher7matches
FNDA:1,_RNvMs4_NtNtNtNtNtNtCs1B75dzsrioZ_11rust_webapi11application7service12item_service5tests33___mock_MockItemRep_ItemRepository8___updateNtB5_6Common15verify_sequence
FNDA:1,_RNvMs4_NtNtNtNtNtNtCs1B75dzsrioZ_11rust_webapi11application7service12item_service5tests33___mock_MockItemRep_ItemRepository8___updateNtB5_6Common16satisfy_sequence
FNDA:1,_RNvMs4_NtNtNtNtNtNtCs1B75dzsrioZ_11rust_webapi11application7service12item_service5tests33___mock_MockItemRep_ItemRepository8___updateNtB5_6Common4call
FNDA:1,_RNvMs4_NtNtNtNtNtNtCs1B75dzsrioZ_11rust_webapi11application7service12item_service5tests33___mock_MockItemRep_ItemRepository8___updateNtB5_6Common7is_done
FNDA:1,_RNvMs4_NtNtNtNtNtNtCs1B75dzsrioZ_11rust_webapi11application7service12item_service5tests33___mock_MockItemRep_ItemRepository8___updateNtB5_6Common7matches
FNDA:1,_RNvMs6_NtNtNtNtNtNtCs1B75dzsrioZ_11rust_webapi11application7service12item_service5tests33___mock_MockItemRep_ItemRepository8___updateNtB5_11Expectation4call
FNDA:1,_RNvMs6_NtNtNtNtNtNtCs1B75dzsrioZ_11rust_webapi11application7service12item_service5tests33___mock_MockItemRep_ItemRepository8___updateNtB5_11Expectation7is_done
FNDA:1,_RNvMs6_NtNtNtNtNtNtCs1B75dzsrioZ_11rust_webapi11application7service12item_service5tests33___mock_MockItemRep_ItemRepository8___updateNtB5_11Expectation7matches
FNDA:1,_RNvMs8_NtNtNtNtNtNtCs1B75dzsrioZ_11rust_webapi11application7service12item_service5tests33___mock_MockItemRep_ItemRepository8___updateNtB5_12Expectations6expect
FNDA:1,_RNvMsa_NtNtNtNtNtNtCs1B75dzsrioZ_11rust_webapi11application7service12item_service5tests33___mock_MockItemRep_ItemRepository8___updateNtB5_12Expectations4call
FNDA:1,_RNvXs1_NtNtNtNtNtNtCs1B75dzsrioZ_11rust_webapi11application7service12item_service5tests33___mock_MockItemRep_ItemRepository8___updateNtB5_7MatcherNtNtCsfvfooZQ3Axs_4core7default7Default7default
FNDA:1,_RNvXs2_NtNtNtNtNtNtCs1B75dzsrioZ_11rust_webapi11application7service12item_service5tests33___mock_MockItemRep_ItemRepository8___updateNtB5_7MatcherNtNtCsfvfooZQ3Axs_4core3fmt7Display3fmt
FNDA:1,_RNvXs3_NtNtNtNtNtNtCs1B75dzsrioZ_11rust_webapi11application7service12item_service5tests33___mock_MockItemRep_ItemRepository8___updateNtB5_6CommonNtNtCsfvfooZQ3Axs_4core7default7Default7default
FNDA:1,_RNvXs7_NtNtNtNtNtNtCs1B75dzsrioZ_11rust_webapi11application7service12item_service5tests33___mock_MockItemRep_ItemRepository8___updateNtB5_11ExpectationNtNtCsfvfooZQ3Axs_4core7default7Default7default
FNDA:8,_RNvXs9_NtNtNtNtNtNtCs1B75dzsrioZ_11rust_webapi11application7service12item_service5tests33___mock_MockItemRep_ItemRepository8___updateNtB5_12ExpectationsNtNtCsfvfooZQ3Axs_4core7default7Default7default
FNDA:1,_RNvXs_NtNtNtNtNtNtCs1B75dzsrioZ_11rust_webapi11application7service12item_service5tests33___mock_MockItemRep_ItemRepository8___updateNtB4_5RfuncNtNtCsfvfooZQ3Axs_4core7default7Default7default
FNDA:8,_RNvMs1_NtNtNtNtCs1B75dzsrioZ_11rust_webapi11application7service12item_service5testsNtB5_11MockItemRep3new
FNDA:1,_RNvMs2_NtNtNtNtCs1B75dzsrioZ_11rust_webapi11application7service12item_service5testsNtB5_11MockItemRep13expect_create
FNDA:2,_RNvMs2_NtNtNtNtCs1B75dzsrioZ_11rust_webapi11application7service12item_service5testsNtB5_11MockItemRep13expect_delete
FNDA:1,_RNvMs2_NtNtNtNtCs1B75dzsrioZ_11rust_webapi11application7service12item_service5testsNtB5_11MockItemRep13expect_update
FNDA:1,_RNvMs2_NtNtNtNtCs1B75dzsrioZ_11rust_webapi11application7service12item_service5testsNtB5_11MockItemRep15expect_find_all
FNDA:4,_RNvMs2_NtNtNtNtCs1B75dzsrioZ_11rust_webapi11application7service12item_service5testsNtB5_11MockItemRep17expect_find_by_id
FNDA:1,_RNvNtNtNtNtCs1B75dzsrioZ_11rust_webapi11application7service12item_service5testss_11test_create
FNDA:1,_RNvNtNtNtNtCs1B75dzsrioZ_11rust_webapi11application7service12item_service5testss_13test_find_all
FNDA:1,_RNvNtNtNtNtCs1B75dzsrioZ_11rust_webapi11application7service12item_service5testss_17test_update_found
FNDA:1,_RNvNtNtNtNtCs1B75dzsrioZ_11rust_webapi11application7service12item_service5testss_19test_delete_success
FNDA:1,_RNvNtNtNtNtCs1B75dzsrioZ_11rust_webapi11application7service12item_service5testss_21test_delete_not_found
FNDA:1,_RNvNtNtNtNtCs1B75dzsrioZ_11rust_webapi11application7service12item_service5testss_21test_find_by_id_found
FNDA:1,_RNvNtNtNtNtCs1B75dzsrioZ_11rust_webapi11application7service12item_service5testss_21test_update_not_found
FNDA:1,_RNvNtNtNtNtCs1B75dzsrioZ_11rust_webapi11application7service12item_service5testss_25test_find_by_id_not_found
FNDA:8,_RNvXNtNtNtNtCs1B75dzsrioZ_11rust_webapi11application7service12item_service5testsNtB2_11MockItemRepNtNtCsfvfooZQ3Axs_4core7default7Default7default
FNDA:4,_RNvXs3_NtNtNtNtCs1B75dzsrioZ_11rust_webapi11application7service12item_service5testsNtB5_11MockItemRepNtNtNtCs8Y1garwNj5t_6domain10repository15item_repository14ItemRepository10find_by_id
FNDA:1,_RNvXs3_NtNtNtNtCs1B75dzsrioZ_11rust_webapi11application7service12item_service5testsNtB5_11MockItemRepNtNtNtCs8Y1garwNj5t_6domain10repository15item_repository14ItemRepository6create
FNDA:2,_RNvXs3_NtNtNtNtCs1B75dzsrioZ_11rust_webapi11application7service12item_service5testsNtB5_11MockItemRepNtNtNtCs8Y1garwNj5t_6domain10repository15item_repository14ItemRepository6delete
FNDA:1,_RNvXs3_NtNtNtNtCs1B75dzsrioZ_11rust_webapi11application7service12item_service5testsNtB5_11MockItemRepNtNtNtCs8Y1garwNj5t_6domain10repository15item_repository14ItemRepository6update
FNDA:1,_RNvXs3_NtNtNtNtCs1B75dzsrioZ_11rust_webapi11application7service12item_service5testsNtB5_11MockItemRepNtNtNtCs8Y1garwNj5t_6domain10repository15item_repository14ItemRepository8find_all
FNDA:8,_RNvXs_NtNtNtNtCs1B75dzsrioZ_11rust_webapi11application7service12item_service5testsNtB4_26MockItemRep_ItemRepositoryNtNtCsfvfooZQ3Axs_4core7default7Default7default
FNDA:4,_RNvMNtNtNtCs1B75dzsrioZ_11rust_webapi11application7service12item_serviceNtB2_11ItemService10find_by_id
FNDA:16,_RNvMNtNtNtCs1B75dzsrioZ_11rust_webapi11application7service12item_serviceNtB2_11ItemService3new
FNDA:2,_RNvMNtNtNtCs1B75dzsrioZ_11rust_webapi11application7service12item_serviceNtB2_11ItemService6create
FNDA:4,_RNvMNtNtNtCs1B75dzsrioZ_11rust_webapi11application7service12item_serviceNtB2_11ItemService6delete
FNDA:4,_RNvMNtNtNtCs1B75dzsrioZ_11rust_webapi11application7service12item_serviceNtB2_11ItemService6update
FNDA:2,_RNvMNtNtNtCs1B75dzsrioZ_11rust_webapi11application7service12item_serviceNtB2_11ItemService8find_all
FNDA:1,_RNvMNtNtNtNtNtNtCs1B75dzsrioZ_11rust_webapi11application7service12item_service5tests33___mock_MockItemRep_ItemRepository10___find_allNtB2_5Rfunc8call_mut
FNDA:1,_RNvMs0_NtNtNtNtNtNtCs1B75dzsrioZ_11rust_webapi11application7service12item_service5tests33___mock_MockItemRep_ItemRepository10___find_allNtB5_7Matcher7matches
FNDA:1,_RNvMs4_NtNtNtNtNtNtCs1B75dzsrioZ_11rust_webapi11application7service12item_service5tests33___mock_MockItemRep_ItemRepository10___find_allNtB5_6Common15verify_sequence
FNDA:1,_RNvMs4_NtNtNtNtNtNtCs1B75dzsrioZ_11rust_webapi11application7service12item_service5tests33___mock_MockItemRep_ItemRepository10___find_allNtB5_6Common16satisfy_sequence
FNDA:1,_RNvMs4_NtNtNtNtNtNtCs1B75dzsrioZ_11rust_webapi11application7service12item_service5tests33___mock_MockItemRep_ItemRepository10___find_allNtB5_6Common4call
FNDA:1,_RNvMs4_NtNtNtNtNtNtCs1B75dzsrioZ_11rust_webapi11application7service12item_service5tests33___mock_MockItemRep_ItemRepository10___find_allNtB5_6Common7is_done
FNDA:1,_RNvMs4_NtNtNtNtNtNtCs1B75dzsrioZ_11rust_webapi11application7service12item_service5tests33___mock_MockItemRep_ItemRepository10___find_allNtB5_6Common7matches
FNDA:1,_RNvMs6_NtNtNtNtNtNtCs1B75dzsrioZ_11rust_webapi11application7service12item_service5tests33___mock_MockItemRep_ItemRepository10___find_allNtB5_11Expectation4call
FNDA:1,_RNvMs6_NtNtNtNtNtNtCs1B75dzsrioZ_11rust_webapi11application7service12item_service5tests33___mock_MockItemRep_ItemRepository10___find_allNtB5_11Expectation7is_done
FNDA:1,_RNvMs6_NtNtNtNtNtNtCs1B75dzsrioZ_11rust_webapi11application7service12item_service5tests33___mock_MockItemRep_ItemRepository10___find_allNtB5_11Expectation7matches
FNDA:1,_RNvMs8_NtNtNtNtNtNtCs1B75dzsrioZ_11rust_webapi11application7service12item_service5tests33___mock_MockItemRep_ItemRepository10___find_allNtB5_12Expectations6expect
FNDA:1,_RNvMsa_NtNtNtNtNtNtCs1B75dzsrioZ_11rust_webapi11application7service12item_service5tests33___mock_MockItemRep_ItemRepository10___find_allNtB5_12Expectations4call
FNDA:1,_RNvXs1_NtNtNtNtNtNtCs1B75dzsrioZ_11rust_webapi11application7service12item_service5tests33___mock_MockItemRep_ItemRepository10___find_allNtB5_7MatcherNtNtCsfvfooZQ3Axs_4core7default7Default7default
FNDA:1,_RNvXs2_NtNtNtNtNtNtCs1B75dzsrioZ_11rust_webapi11application7service12item_service5tests33___mock_MockItemRep_ItemRepository10___find_allNtB5_7MatcherNtNtCsfvfooZQ3Axs_4core3fmt7Display3fmt
FNDA:1,_RNvXs3_NtNtNtNtNtNtCs1B75dzsrioZ_11rust_webapi11application7service12item_service5tests33___mock_MockItemRep_ItemRepository10___find_allNtB5_6CommonNtNtCsfvfooZQ3Axs_4core7default7Default7default
FNDA:1,_RNvXs7_NtNtNtNtNtNtCs1B75dzsrioZ_11rust_webapi11application7service12item_service5tests33___mock_MockItemRep_ItemRepository10___find_allNtB5_11ExpectationNtNtCsfvfooZQ3Axs_4core7default7Default7default
FNDA:8,_RNvXs9_NtNtNtNtNtNtCs1B75dzsrioZ_11rust_webapi11application7service12item_service5tests33___mock_MockItemRep_ItemRepository10___find_allNtB5_12ExpectationsNtNtCsfvfooZQ3Axs_4core7default7Default7default
FNDA:1,_RNvXs_NtNtNtNtNtNtCs1B75dzsrioZ_11rust_webapi11application7service12item_service5tests33___mock_MockItemRep_ItemRepository10___find_allNtB4_5RfuncNtNtCsfvfooZQ3Axs_4core7default7Default7default
FNF:40
FNH:40
DA:12,16
DA:13,16
DA:14,16
DA:15,16
DA:16,16
DA:17,16
DA:19,2
DA:20,2
DA:21,2
DA:22,2
DA:23,2
DA:25,4
DA:26,4
DA:27,4
DA:28,2
DA:29,2
DA:30,2
DA:31,2
DA:32,4
DA:33,4
DA:35,2
DA:36,2
DA:37,2
DA:38,2
DA:39,2
DA:40,2
DA:41,2
DA:42,2
DA:43,2
DA:44,2
DA:46,2
DA:47,2
DA:48,2
DA:49,2
DA:51,4
DA:52,4
DA:53,2
DA:54,2
DA:55,2
DA:56,2
DA:57,2
DA:58,2
DA:59,2
DA:61,2
DA:62,2
DA:64,4
DA:66,4
DA:67,4
DA:68,4
DA:69,2
DA:70,2
DA:71,2
DA:72,2
DA:73,4
DA:74,4
DA:85,196
DA:86,196
DA:87,196
DA:88,196
DA:89,196
DA:90,196
DA:91,196
DA:92,196
DA:93,196
DA:94,196
DA:95,196
DA:98,1
DA:99,1
DA:100,1
DA:101,1
DA:102,1
DA:103,1
DA:104,1
DA:105,1
DA:106,1
DA:107,1
DA:108,1
DA:109,1
DA:110,1
DA:111,1
DA:112,1
DA:113,1
DA:114,1
DA:115,1
DA:116,1
DA:117,1
DA:118,1
DA:119,1
DA:120,1
DA:121,1
DA:122,1
DA:123,1
DA:124,1
DA:127,1
DA:128,1
DA:129,1
DA:130,1
DA:131,1
DA:132,1
DA:133,1
DA:134,1
DA:135,1
DA:136,1
DA:137,1
DA:138,1
DA:139,1
DA:140,1
DA:141,1
DA:142,1
DA:143,1
DA:144,1
DA:145,1
DA:146,1
DA:149,1
DA:150,1
DA:151,1
DA:152,1
DA:153,1
DA:154,1
DA:155,1
DA:156,1
DA:157,1
DA:158,1
DA:159,1
DA:162,1
DA:163,1
DA:164,1
DA:165,1
DA:166,1
DA:167,1
DA:168,1
DA:169,1
DA:170,1
DA:171,1
DA:172,1
DA:173,1
DA:174,1
DA:175,1
DA:176,1
DA:177,1
DA:178,1
DA:179,1
DA:180,1
DA:181,1
DA:182,1
DA:183,1
DA:184,1
DA:185,1
DA:186,1
DA:187,1
DA:188,1
DA:191,1
DA:192,1
DA:193,1
DA:194,1
DA:195,1
DA:196,1
DA:197,1
DA:198,1
DA:199,1
DA:200,1
DA:201,1
DA:202,1
DA:203,1
DA:204,1
DA:205,1
DA:206,1
DA:207,1
DA:208,1
DA:209,1
DA:210,1
DA:211,1
DA:212,1
DA:213,1
DA:214,1
DA:215,1
DA:216,1
DA:217,1
DA:218,1
DA:219,1
DA:220,1
DA:221,1
DA:222,1
DA:223,1
DA:224,1
DA:225,1
DA:226,1
DA:227,1
DA:228,1
DA:229,1
DA:230,1
DA:233,1
DA:234,1
DA:235,1
DA:236,1
DA:237,1
DA:238,1
DA:239,1
DA:240,1
DA:241,1
DA:242,1
DA:243,1
DA:244,1
DA:245,1
DA:246,1
DA:247,1
DA:248,1
DA:251,1
DA:252,1
DA:253,1
DA:254,1
DA:255,1
DA:256,1
DA:257,1
DA:258,1
DA:259,1
DA:260,1
DA:261,1
DA:264,1
DA:265,1
DA:266,1
DA:267,1
DA:268,1
DA:269,1
DA:270,1
DA:271,1
DA:272,1
DA:273,1
DA:274,1
BRF:0
BRH:0
LF:395
LH:395
end_of_record
SF:/Users/kentishi/rust_webapi/src/application/service/user_service.rs
FN:86,_RNvMNtNtNtNtNtNtCs1B75dzsrioZ_11rust_webapi11application7service12user_service5tests33___mock_MockUserRep_UserRepository12___find_by_idNtB2_5Rfunc8call_mut
FN:86,_RNvMs0_NtNtNtNtNtNtCs1B75dzsrioZ_11rust_webapi11application7service12user_service5tests33___mock_MockUserRep_UserRepository12___find_by_idNtB5_7Matcher7matches
FN:86,_RNvMs4_NtNtNtNtNtNtCs1B75dzsrioZ_11rust_webapi11application7service12user_service5tests33___mock_MockUserRep_UserRepository12___find_by_idNtB5_6Common15verify_sequence
FN:86,_RNvMs4_NtNtNtNtNtNtCs1B75dzsrioZ_11rust_webapi11application7service12user_service5tests33___mock_MockUserRep_UserRepository12___find_by_idNtB5_6Common16satisfy_sequence
FN:86,_RNvMs4_NtNtNtNtNtNtCs1B75dzsrioZ_11rust_webapi11application7service12user_service5tests33___mock_MockUserRep_UserRepository12___find_by_idNtB5_6Common4call
FN:76,_RNvMs4_NtNtNtNtNtNtCs1B75dzsrioZ_11rust_webapi11application7service12user_service5tests33___mock_MockUserRep_UserRepository12___find_by_idNtB5_6Common7is_done
FN:76,_RNvMs4_NtNtNtNtNtNtCs1B75dzsrioZ_11rust_webapi11application7service12user_service5tests33___mock_MockUserRep_UserRepository12___find_by_idNtB5_6Common7matches
FN:86,_RNvMs6_NtNtNtNtNtNtCs1B75dzsrioZ_11rust_webapi11application7service12user_service5tests33___mock_MockUserRep_UserRepository12___find_by_idNtB5_11Expectation4call
FN:76,_RNvMs6_NtNtNtNtNtNtCs1B75dzsrioZ_11rust_webapi11application7service12user_service5tests33___mock_MockUserRep_UserRepository12___find_by_idNtB5_11Expectation7is_done
FN:76,_RNvMs6_NtNtNtNtNtNtCs1B75dzsrioZ_11rust_webapi11application7service12user_service5tests33___mock_MockUserRep_UserRepository12___find_by_idNtB5_11Expectation7matches
FN:76,_RNvMs8_NtNtNtNtNtNtCs1B75dzsrioZ_11rust_webapi11application7service12user_service5tests33___mock_MockUserRep_UserRepository12___find_by_idNtB5_12Expectations6expect
FN:86,_RNvMsa_NtNtNtNtNtNtCs1B75dzsrioZ_11rust_webapi11application7service12user_service5tests33___mock_MockUserRep_UserRepository12___find_by_idNtB5_12Expectations4call
FN:76,_RNvXs1_NtNtNtNtNtNtCs1B75dzsrioZ_11rust_webapi11application7service12user_service5tests33___mock_MockUserRep_UserRepository12___find_by_idNtB5_7MatcherNtNtCsfvfooZQ3Axs_4core7default7Default7default
FN:86,_RNvXs2_NtNtNtNtNtNtCs1B75dzsrioZ_11rust_webapi11application7service12user_service5tests33___mock_MockUserRep_UserRepository12___find_by_idNtB5_7MatcherNtNtCsfvfooZQ3Axs_4core3fmt7Display3fmt
FN:76,_RNvXs3_NtNtNtNtNtNtCs1B75dzsrioZ_11rust_webapi11application7service12user_service5tests33___mock_MockUserRep_UserRepository12___find_by_idNtB5_6CommonNtNtCsfvfooZQ3Axs_4core7default7Default7default
FN:76,_RNvXs7_NtNtNtNtNtNtCs1B75dzsrioZ_11rust_webapi11application7service12user_service5tests33___mock_MockUserRep_UserRepository12___find_by_idNtB5_11ExpectationNtNtCsfvfooZQ3Axs_4core7default7Default7default
FN:76,_RNvXs9_NtNtNtNtNtNtCs1B75dzsrioZ_11rust_webapi11application7service12user_service5tests33___mock_MockUserRep_UserRepository12___find_by_idNtB5_12ExpectationsNtNtCsfvfooZQ3Axs_4core7default7Default7default
FN:76,_RNvXs_NtNtNtNtNtNtCs1B75dzsrioZ_11rust_webapi11application7service12user_service5tests33___mock_MockUserRep_UserRepository12___find_by_idNtB4_5RfuncNtNtCsfvfooZQ3Axs_4core7default7Default7default
FN:76,_RINvMs4_NtNtNtNtNtNtCs1B75dzsrioZ_11rust_webapi11application7service12user_service5tests33___mock_MockUserRep_UserRepository10___find_allNtB6_6Common5timespEBi_
FN:76,_RINvMs4_NtNtNtNtNtNtCs1B75dzsrioZ_11rust_webapi11application7service12user_service5tests33___mock_MockUserRep_UserRepository10___find_allNtB6_6Common5withfpEBi_
FN:76,_RINvMs4_NtNtNtNtNtNtCs1B75dzsrioZ_11rust_webapi11application7service12user_service5tests33___mock_MockUserRep_UserRepository10___find_allNtB6_6Common8withf_stpEBi_
FN:76,_RINvMs4_NtNtNtNtNtNtCs1B75dzsrioZ_11rust_webapi11application7service12user_service5tests33___mock_MockUserRep_UserRepository12___find_by_idNtB6_6Common5timespEBi_
FN:76,_RINvMs4_NtNtNtNtNtNtCs1B75dzsrioZ_11rust_webapi11application7service12user_service5tests33___mock_MockUserRep_UserRepository12___find_by_idNtB6_6Common5withfpEBi_
FN:76,_RINvMs4_NtNtNtNtNtNtCs1B75dzsrioZ_11rust_webapi11application7service12user_service5tests33___mock_MockUserRep_UserRepository12___find_by_idNtB6_6Common8withf_stpEBi_
FN:76,_RINvMs4_NtNtNtNtNtNtCs1B75dzsrioZ_11rust_webapi11application7service12user_service5tests33___mock_MockUserRep_UserRepository8___createNtB6_6Common4withpEBi_
FN:76,_RINvMs4_NtNtNtNtNtNtCs1B75dzsrioZ_11rust_webapi11application7service12user_service5tests33___mock_MockUserRep_UserRepository8___createNtB6_6Common5timespEBi_
FN:76,_RINvMs4_NtNtNtNtNtNtCs1B75dzsrioZ_11rust_webapi11application7service12user_service5tests33___mock_MockUserRep_UserRepository8___createNtB6_6Common8withf_stpEBi_
FN:76,_RINvMs4_NtNtNtNtNtNtCs1B75dzsrioZ_11rust_webapi11application7service12user_service5tests33___mock_MockUserRep_UserRepository8___deleteNtB6_6Common5timespEBi_
FN:76,_RINvMs4_NtNtNtNtNtNtCs1B75dzsrioZ_11rust_webapi11application7service12user_service5tests33___mock_MockUserRep_UserRepository8___deleteNtB6_6Common5withfpEBi_
FN:76,_RINvMs4_NtNtNtNtNtNtCs1B75dzsrioZ_11rust_webapi11application7service12user_service5tests33___mock_MockUserRep_UserRepository8___deleteNtB6_6Common8withf_stpEBi_
FN:76,_RINvMs4_NtNtNtNtNtNtCs1B75dzsrioZ_11rust_webapi11application7service12user_service5tests33___mock_MockUserRep_UserRepository8___updateNtB6_6Common4withpEBi_
FN:76,_RINvMs4_NtNtNtNtNtNtCs1B75dzsrioZ_11rust_webapi11application7service12user_service5tests33___mock_MockUserRep_UserRepository8___updateNtB6_6Common5timespEBi_
FN:76,_RINvMs4_NtNtNtNtNtNtCs1B75dzsrioZ_11rust_webapi11application7service12user_service5tests33___mock_MockUserRep_UserRepository8___updateNtB6_6Common8withf_stpEBi_
FN:86,_RINvMs6_NtNtNtNtNtNtCs1B75dzsrioZ_11rust_webapi11application7service12user_service5tests33___mock_MockUserRep_UserRepository10___find_allNtB6_11Expectation12return_constpEBi_
FN:76,_RINvMs6_NtNtNtNtNtNtCs1B75dzsrioZ_11rust_webapi11application7service12user_service5tests33___mock_MockUserRep_UserRepository10___find_allNtB6_11Expectation12returning_stpEBi_
FN:76,_RINvMs6_NtNtNtNtNtNtCs1B75dzsrioZ_11rust_webapi11application7service12user_service5tests33___mock_MockUserRep_UserRepository10___find_allNtB6_11Expectation14return_once_stpEBi_
FN:86,_RINvMs6_NtNtNtNtNtNtCs1B75dzsrioZ_11rust_webapi11application7service12user_service5tests33___mock_MockUserRep_UserRepository10___find_allNtB6_11Expectation15return_const_stpEBi_
FN:76,_RINvMs6_NtNtNtNtNtNtCs1B75dzsrioZ_11rust_webapi11application7service12user_service5tests33___mock_MockUserRep_UserRepository10___find_allNtB6_11Expectation5timespEBi_
FN:76,_RINvMs6_NtNtNtNtNtNtCs1B75dzsrioZ_11rust_webapi11application7service12user_service5tests33___mock_MockUserRep_UserRepository10___find_allNtB6_11Expectation5withfpEBi_
FN:76,_RINvMs6_NtNtNtNtNtNtCs1B75dzsrioZ_11rust_webapi11application7service12user_service5tests33___mock_MockUserRep_UserRepository10___find_allNtB6_11Expectation8withf_stpEBi_
FN:76,_RINvMs6_NtNtNtNtNtNtCs1B75dzsrioZ_11rust_webapi11application7service12user_service5tests33___mock_MockUserRep_UserRepository10___find_allNtB6_11Expectation9returningpEBi_
FN:86,_RINvMs6_NtNtNtNtNtNtCs1B75dzsrioZ_11rust_webapi11application7service12user_service5tests33___mock_MockUserRep_UserRepository12___find_by_idNtB6_11Expectation12return_constpEBi_
FN:76,_RINvMs6_NtNtNtNtNtNtCs1B75dzsrioZ_11rust_webapi11application7service12user_service5tests33___mock_MockUserRep_UserRepository12___find_by_idNtB6_11Expectation12returning_stpEBi_
FN:76,_RINvMs6_NtNtNtNtNtNtCs1B75dzsrioZ_11rust_webapi11application7service12user_service5tests33___mock_MockUserRep_UserRepository12___find_by_idNtB6_11Expectation14return_once_stpEBi_
FN:86,_RINvMs6_NtNtNtNtNtNtCs1B75dzsrioZ_11rust_webapi11application7service12user_service5tests33___mock_MockUserRep_UserRepository12___find_by_idNtB6_11Expectation15return_const_stpEBi_
FN:76,_RINvMs6_NtNtNtNtNtNtCs1B75dzsrioZ_11rust_webapi11application7service12user_service5tests33___mock_MockUserRep_UserRepository12___find_by_idNtB6_11Expectation5timespEBi_
FN:76,_RINvMs6_NtNtNtNtNtNtCs1B75dzsrioZ_11rust_webapi11application7service12user_service5tests33___mock_MockUserRep_UserRepository12___find_by_idNtB6_11Expectation5withfpEBi_
FN:76,_RINvMs6_NtNtNtNtNtNtCs1B75dzsrioZ_11rust_webapi11application7service12user_service5tests33___mock_MockUserRep_UserRepository12___find_by_idNtB6_11Expectation8withf_stpEBi_
FN:76,_RINvMs6_NtNtNtNtNtNtCs1B75dzsrioZ_11rust_webapi11application7service12user_service5tests33___mock_MockUserRep_UserRepository12___find_by_idNtB6_11Expectation9returningpEBi_
FN:86,_RINvMs6_NtNtNtNtNtNtCs1B75dzsrioZ_11rust_webapi11application7service12user_service5tests33___mock_MockUserRep_UserRepository8___createNtB6_11Expectation12return_constpEBi_
FN:76,_RINvMs6_NtNtNtNtNtNtCs1B75dzsrioZ_11rust_webapi11application7service12user_service5tests33___mock_MockUserRep_UserRepository8___createNtB6_11Expectation12returning_stpEBi_
FN:76,_RINvMs6_NtNtNtNtNtNtCs1B75dzsrioZ_11rust_webapi11application7service12user_service5tests33___mock_MockUserRep_UserRepository8___createNtB6_11Expectation14return_once_stpEBi_
FN:86,_RINvMs6_NtNtNtNtNtNtCs1B75dzsrioZ_11rust_webapi11application7service12user_service5tests33___mock_MockUserRep_UserRepository8___createNtB6_11Expectation15return_const_stpEBi_
FN:76,_RINvMs6_NtNtNtNtNtNtCs1B75dzsrioZ_11rust_webapi11application7service12user_service5tests33___mock_MockUserRep_UserRepository8___createNtB6_11Expectation4withpEBi_
FN:76,_RINvMs6_NtNtNtNtNtNtCs1B75dzsrioZ_11rust_webapi11application7service12user_service5tests33___mock_MockUserRep_UserRepository8___createNtB6_11Expectation5timespEBi_
FN:76,_RINvMs6_NtNtNtNtNtNtCs1B75dzsrioZ_11rust_webapi11application7service12user_service5tests33___mock_MockUserRep_UserRepository8___createNtB6_11Expectation8withf_stpEBi_
FN:76,_RINvMs6_NtNtNtNtNtNtCs1B75dzsrioZ_11rust_webapi11application7service12user_service5tests33___mock_MockUserRep_UserRepository8___createNtB6_11Expectation9returningpEBi_
FN:86,_RINvMs6_NtNtNtNtNtNtCs1B75dzsrioZ_11rust_webapi11application7service12user_service5tests33___mock_MockUserRep_UserRepository8___deleteNtB6_11Expectation12return_constpEBi_
FN:76,_RINvMs6_NtNtNtNtNtNtCs1B75dzsrioZ_11rust_webapi11application7service12user_service5tests33___mock_MockUserRep_UserRepository8___deleteNtB6_11Expectation12returning_stpEBi_
FN:76,_RINvMs6_NtNtNtNtNtNtCs1B75dzsrioZ_11rust_webapi11application7service12user_service5tests33___mock_MockUserRep_UserRepository8___deleteNtB6_11Expectation14return_once_stpEBi_
FN:86,_RINvMs6_NtNtNtNtNtNtCs1B75dzsrioZ_11rust_webapi11application7service12user_service5tests33___mock_MockUserRep_UserRepository8___deleteNtB6_11Expectation15return_const_stpEBi_
FN:76,_RINvMs6_NtNtNtNtNtNtCs1B75dzsrioZ_11rust_webapi11application7service12user_service5tests33___mock_MockUserRep_UserRepository8___deleteNtB6_11Expectation5timespEBi_
FN:76,_RINvMs6_NtNtNtNtNtNtCs1B75dzsrioZ_11rust_webapi11application7service12user_service5tests33___mock_MockUserRep_UserRepository8___deleteNtB6_11Expectation5withfpEBi_
FN:76,_RINvMs6_NtNtNtNtNtNtCs1B75dzsrioZ_11rust_webapi11application7service12user_service5tests33___mock_MockUserRep_UserRepository8___deleteNtB6_11Expectation8withf_stpEBi_
FN:76,_RINvMs6_NtNtNtNtNtNtCs1B75dzsrioZ_11rust_webapi11application7service12user_service5tests33___mock_MockUserRep_UserRepository8___deleteNtB6_11Expectation9returningpEBi_
FN:86,_RINvMs6_NtNtNtNtNtNtCs1B75dzsrioZ_11rust_webapi11application7service12user_service5tests33___mock_MockUserRep_UserRepository8___updateNtB6_11Expectation12return_constpEBi_
FN:76,_RINvMs6_NtNtNtNtNtNtCs1B75dzsrioZ_11rust_webapi11application7service12user_service5tests33___mock_MockUserRep_UserRepository8___updateNtB6_11Expectation12returning_stpEBi_
FN:76,_RINvMs6_NtNtNtNtNtNtCs1B75dzsrioZ_11rust_webapi11application7service12user_service5tests33___mock_MockUserRep_UserRepository8___updateNtB6_11Expectation14return_once_stpEBi_
FN:86,_RINvMs6_NtNtNtNtNtNtCs1B75dzsrioZ_11rust_webapi11application7service12user_service5tests33___mock_MockUserRep_UserRepository8___updateNtB6_11Expectation15return_const_stpEBi_
FN:76,_RINvMs6_NtNtNtNtNtNtCs1B75dzsrioZ_11rust_webapi11application7service12user_service5tests33___mock_MockUserRep_UserRepository8___updateNtB6_11Expectation4withpEBi_
FN:76,_RINvMs6_NtNtNtNtNtNtCs1B75dzsrioZ_11rust_webapi11application7service12user_service5tests33___mock_MockUserRep_UserRepository8___updateNtB6_11Expectation5timespEBi_
FN:76,_RINvMs6_NtNtNtNtNtNtCs1B75dzsrioZ_11rust_webapi11application7service12user_service5tests33___mock_MockUserRep_UserRepository8___updateNtB6_11Expectation8withf_stpEBi_
FN:76,_RINvMs6_NtNtNtNtNtNtCs1B75dzsrioZ_11rust_webapi11application7service12user_service5tests33___mock_MockUserRep_UserRepository8___updateNtB6_11Expectation9returningpEBi_
FN:76,_RNCINvMs6_NtNtNtNtNtNtCs1B75dzsrioZ_11rust_webapi11application7service12user_service5tests33___mock_MockUserRep_UserRepository10___find_allNtB8_11Expectation12return_constpE0Bk_
FN:76,_RNCINvMs6_NtNtNtNtNtNtCs1B75dzsrioZ_11rust_webapi11application7service12user_service5tests33___mock_MockUserRep_UserRepository10___find_allNtB8_11Expectation15return_const_stpE0Bk_
FN:76,_RNCINvMs6_NtNtNtNtNtNtCs1B75dzsrioZ_11rust_webapi11application7service12user_service5tests33___mock_MockUserRep_UserRepository12___find_by_idNtB8_11Expectation12return_constpE0Bk_
FN:76,_RNCINvMs6_NtNtNtNtNtNtCs1B75dzsrioZ_11rust_webapi11application7service12user_service5tests33___mock_MockUserRep_UserRepository12___find_by_idNtB8_11Expectation15return_const_stpE0Bk_
FN:76,_RNCINvMs6_NtNtNtNtNtNtCs1B75dzsrioZ_11rust_webapi11application7service12user_service5tests33___mock_MockUserRep_UserRepository8___createNtB8_11Expectation12return_constpE0Bk_
FN:76,_RNCINvMs6_NtNtNtNtNtNtCs1B75dzsrioZ_11rust_webapi11application7service12user_service5tests33___mock_MockUserRep_UserRepository8___createNtB8_11Expectation15return_const_stpE0Bk_
FN:76,_RNCINvMs6_NtNtNtNtNtNtCs1B75dzsrioZ_11rust_webapi11application7service12user_service5tests33___mock_MockUserRep_UserRepository8___deleteNtB8_11Expectation12return_constpE0Bk_
FN:76,_RNCINvMs6_NtNtNtNtNtNtCs1B75dzsrioZ_11rust_webapi11application7service12user_service5tests33___mock_MockUserRep_UserRepository8___deleteNtB8_11Expectation15return_const_stpE0Bk_
FN:76,_RNCINvMs6_NtNtNtNtNtNtCs1B75dzsrioZ_11rust_webapi11application7service12user_service5tests33___mock_MockUserRep_UserRepository8___updateNtB8_11Expectation12return_constpE0Bk_
FN:76,_RNCINvMs6_NtNtNtNtNtNtCs1B75dzsrioZ_11rust_webapi11application7service12user_service5tests33___mock_MockUserRep_UserRepository8___updateNtB8_11Expectation15return_const_stpE0Bk_
FN:76,_RNvMs0_NtNtNtNtCs1B75dzsrioZ_11rust_webapi11application7service12user_service5testsNtB5_26MockUserRep_UserRepository10checkpoint
FN:76,_RNvMs1_NtNtNtNtCs1B75dzsrioZ_11rust_webapi11application7service12user_service5testsNtB5_11MockUserRep10checkpoint
FN:86,_RNvMs4_NtNtNtNtNtNtCs1B75dzsrioZ_11rust_webapi11application7service12user_service5tests33___mock_MockUserRep_UserRepository10___find_allNtB5_6Common11in_sequence
FN:76,_RNvMs4_NtNtNtNtNtNtCs1B75dzsrioZ_11rust_webapi11application7service12user_service5tests33___mock_MockUserRep_UserRepository10___find_allNtB5_6Common4with
FN:76,_RNvMs4_NtNtNtNtNtNtCs1B75dzsrioZ_11rust_webapi11application7service12user_service5tests33___mock_MockUserRep_UserRepository10___find_allNtB5_6Common5never
FN:86,_RNvMs4_NtNtNtNtNtNtCs1B75dzsrioZ_11rust_webapi11application7service12user_service5tests33___mock_MockUserRep_UserRepository12___find_by_idNtB5_6Common11in_sequence
FN:76,_RNvMs4_NtNtNtNtNtNtCs1B75dzsrioZ_11rust_webapi11application7service12user_service5tests33___mock_MockUserRep_UserRepository12___find_by_idNtB5_6Common5never
FN:86,_RNvMs4_NtNtNtNtNtNtCs1B75dzsrioZ_11rust_webapi11application7service12user_service5tests33___mock_MockUserRep_UserRepository8___createNtB5_6Common11in_sequence
FN:76,_RNvMs4_NtNtNtNtNtNtCs1B75dzsrioZ_11rust_webapi11application7service12user_service5tests33___mock_MockUserRep_UserRepository8___createNtB5_6Common5never
FN:86,_RNvMs4_NtNtNtNtNtNtCs1B75dzsrioZ_11rust_webapi11application7service12user_service5tests33___mock_MockUserRep_UserRepository8___deleteNtB5_6Common11in_sequence
FN:76,_RNvMs4_NtNtNtNtNtNtCs1B75dzsrioZ_11rust_webapi11application7service12user_service5tests33___mock_MockUserRep_UserRepository8___deleteNtB5_6Common5never
FN:86,_RNvMs4_NtNtNtNtNtNtCs1B75dzsrioZ_11rust_webapi11application7service12user_service5tests33___mock_MockUserRep_UserRepository8___updateNtB5_6Common11in_sequence
FN:76,_RNvMs4_NtNtNtNtNtNtCs1B75dzsrioZ_11rust_webapi11application7service12user_service5tests33___mock_MockUserRep_UserRepository8___updateNtB5_6Common5never
FN:76,_RNvMs6_NtNtNtNtNtNtCs1B75dzsrioZ_11rust_webapi11application7service12user_service5tests33___mock_MockUserRep_UserRepository10___find_allNtB5_11Expectation11in_sequence
FN:76,_RNvMs6_NtNtNtNtNtNtCs1B75dzsrioZ_11rust_webapi11application7service12user_service5tests33___mock_MockUserRep_UserRepository10___find_allNtB5_11Expectation3new
FN:76,_RNvMs6_NtNtNtNtNtNtCs1B75dzsrioZ_11rust_webapi11application7service12user_service5tests33___mock_MockUserRep_UserRepository10___find_allNtB5_11Expectation4once
FN:76,_RNvMs6_NtNtNtNtNtNtCs1B75dzsrioZ_11rust_webapi11application7service12user_service5tests33___mock_MockUserRep_UserRepository10___find_allNtB5_11Expectation4with
FN:76,_RNvMs6_NtNtNtNtNtNtCs1B75dzsrioZ_11rust_webapi11application7service12user_service5tests33___mock_MockUserRep_UserRepository10___find_allNtB5_11Expectation5never
FN:76,_RNvMs6_NtNtNtNtNtNtCs1B75dzsrioZ_11rust_webapi11application7service12user_service5tests33___mock_MockUserRep_UserRepository12___find_by_idNtB5_11Expectation11in_sequence
FN:76,_RNvMs6_NtNtNtNtNtNtCs1B75dzsrioZ_11rust_webapi11application7service12user_service5tests33___mock_MockUserRep_UserRepository12___find_by_idNtB5_11Expectation3new
FN:76,_RNvMs6_NtNtNtNtNtNtCs1B75dzsrioZ_11rust_webapi11application7service12user_service5tests33___mock_MockUserRep_UserRepository12___find_by_idNtB5_11Expectation4once
FN:76,_RNvMs6_NtNtNtNtNtNtCs1B75dzsrioZ_11rust_webapi11application7service12user_service5tests33___mock_MockUserRep_UserRepository12___find_by_idNtB5_11Expectation5never
FN:76,_RNvMs6_NtNtNtNtNtNtCs1B75dzsrioZ_11rust_webapi11application7service12user_service5tests33___mock_MockUserRep_UserRepository8___createNtB5_11Expectation11in_sequence
FN:76,_RNvMs6_NtNtNtNtNtNtCs1B75dzsrioZ_11rust_webapi11application7service12user_service5tests33___mock_MockUserRep_UserRepository8___createNtB5_11Expectation3new
FN:76,_RNvMs6_NtNtNtNtNtNtCs1B75dzsrioZ_11rust_webapi11application7service12user_service5tests33___mock_MockUserRep_UserRepository8___createNtB5_11Expectation4once
FN:76,_RNvMs6_NtNtNtNtNtNtCs1B75dzsrioZ_11rust_webapi11application7service12user_service5tests33___mock_MockUserRep_UserRepository8___createNtB5_11Expectation5never
FN:76,_RNvMs6_NtNtNtNtNtNtCs1B75dzsrioZ_11rust_webapi11application7service12user_service5tests33___mock_MockUserRep_UserRepository8___deleteNtB5_11Expectation11in_sequence
FN:76,_RNvMs6_NtNtNtNtNtNtCs1B75dzsrioZ_11rust_webapi11application7service12user_service5tests33___mock_MockUserRep_UserRepository8___deleteNtB5_11Expectation3new
FN:76,_RNvMs6_NtNtNtNtNtNtCs1B75dzsrioZ_11rust_webapi11application7service12user_service5tests33___mock_MockUserRep_UserRepository8___deleteNtB5_11Expectation4once
FN:76,_RNvMs6_NtNtNtNtNtNtCs1B75dzsrioZ_11rust_webapi11application7service12user_service5tests33___mock_MockUserRep_UserRepository8___deleteNtB5_11Expectation5never
FN:76,_RNvMs6_NtNtNtNtNtNtCs1B75dzsrioZ_11rust_webapi11application7service12user_service5tests33___mock_MockUserRep_UserRepository8___updateNtB5_11Expectation11in_sequence
FN:76,_RNvMs6_NtNtNtNtNtNtCs1B75dzsrioZ_11rust_webapi11application7service12user_service5tests33___mock_MockUserRep_UserRepository8___updateNtB5_11Expectation3new
FN:76,_RNvMs6_NtNtNtNtNtNtCs1B75dzsrioZ_11rust_webapi11application7service12user_service5tests33___mock_MockUserRep_UserRepository8___updateNtB5_11Expectation4once
FN:76,_RNvMs6_NtNtNtNtNtNtCs1B75dzsrioZ_11rust_webapi11application7service12user_service5tests33___mock_MockUserRep_UserRepository8___updateNtB5_11Expectation5never
FN:76,_RNvMs8_NtNtNtNtNtNtCs1B75dzsrioZ_11rust_webapi11application7service12user_service5tests33___mock_MockUserRep_UserRepository10___find_allNtB5_12Expectations10checkpoint
FN:76,_RNvMs8_NtNtNtNtNtNtCs1B75dzsrioZ_11rust_webapi11application7service12user_service5tests33___mock_MockUserRep_UserRepository10___find_allNtB5_12Expectations3new
FN:76,_RNvMs8_NtNtNtNtNtNtCs1B75dzsrioZ_11rust_webapi11application7service12user_service5tests33___mock_MockUserRep_UserRepository12___find_by_idNtB5_12Expectations10checkpoint
FN:76,_RNvMs8_NtNtNtNtNtNtCs1B75dzsrioZ_11rust_webapi11application7service12user_service5tests33___mock_MockUserRep_UserRepository12___find_by_idNtB5_12Expectations3new
FN:76,_RNvMs8_NtNtNtNtNtNtCs1B75dzsrioZ_11rust_webapi11application7service12user_service5tests33___mock_MockUserRep_UserRepository8___createNtB5_12Expectations10checkpoint
FN:76,_RNvMs8_NtNtNtNtNtNtCs1B75dzsrioZ_11rust_webapi11application7service12user_service5tests33___mock_MockUserRep_UserRepository8___createNtB5_12Expectations3new
FN:76,_RNvMs8_NtNtNtNtNtNtCs1B75dzsrioZ_11rust_webapi11application7service12user_service5tests33___mock_MockUserRep_UserRepository8___deleteNtB5_12Expectations10checkpoint
FN:76,_RNvMs8_NtNtNtNtNtNtCs1B75dzsrioZ_11rust_webapi11application7service12user_service5tests33___mock_MockUserRep_UserRepository8___deleteNtB5_12Expectations3new
FN:76,_RNvMs8_NtNtNtNtNtNtCs1B75dzsrioZ_11rust_webapi11application7service12user_service5tests33___mock_MockUserRep_UserRepository8___updateNtB5_12Expectations10checkpoint
FN:76,_RNvMs8_NtNtNtNtNtNtCs1B75dzsrioZ_11rust_webapi11application7service12user_service5tests33___mock_MockUserRep_UserRepository8___updateNtB5_12Expectations3new
FN:76,_RINvMs6_NtNtNtNtNtNtCs1B75dzsrioZ_11rust_webapi11application7service12user_service5tests33___mock_MockUserRep_UserRepository10___find_allNtB6_11Expectation11return_onceNCNCNvBa_s_13test_find_all00EBi_
FN:76,_RNCNvMs0_NtNtNtNtNtNtCs1B75dzsrioZ_11rust_webapi11application7service12user_service5tests33___mock_MockUserRep_UserRepository10___find_allNtB7_7Matcher7matches0Bj_
FN:86,_RNCNvMsa_NtNtNtNtNtNtCs1B75dzsrioZ_11rust_webapi11application7service12user_service5tests33___mock_MockUserRep_UserRepository10___find_allNtB7_12Expectations4call0Bj_
FN:76,_RNCNvMsa_NtNtNtNtNtNtCs1B75dzsrioZ_11rust_webapi11application7service12user_service5tests33___mock_MockUserRep_UserRepository10___find_allNtB7_12Expectations4calls_0Bj_
FN:147,_RNCNCNvNtNtNtNtCs1B75dzsrioZ_11rust_webapi11application7service12user_service5testss_11test_create00Bd_
FN:148,_RNCNCNvNtNtNtNtCs1B75dzsrioZ_11rust_webapi11application7service12user_service5testss_11test_create0s_0Bd_
FN:92,_RNCNCNvNtNtNtNtCs1B75dzsrioZ_11rust_webapi11application7service12user_service5testss_13test_find_all00Bd_
FN:174,_RNCNCNvNtNtNtNtCs1B75dzsrioZ_11rust_webapi11application7service12user_service5testss_17test_update_found00Bd_
FN:187,_RNCNCNvNtNtNtNtCs1B75dzsrioZ_11rust_webapi11application7service12user_service5testss_17test_update_found0s0_0Bd_
FN:182,_RNCNCNvNtNtNtNtCs1B75dzsrioZ_11rust_webapi11application7service12user_service5testss_17test_update_found0s_0Bd_
FN:227,_RNCNCNvNtNtNtNtCs1B75dzsrioZ_11rust_webapi11application7service12user_service5testss_19test_delete_success00Bd_
FN:240,_RNCNCNvNtNtNtNtCs1B75dzsrioZ_11rust_webapi11application7service12user_service5testss_21test_delete_not_found00Bd_
FN:114,_RNCNCNvNtNtNtNtCs1B75dzsrioZ_11rust_webapi11application7service12user_service5testss_21test_find_by_id_found00Bd_
FN:209,_RNCNCNvNtNtNtNtCs1B75dzsrioZ_11rust_webapi11application7service12user_service5testss_21test_update_not_found00Bd_
FN:135,_RNCNCNvNtNtNtNtCs1B75dzsrioZ_11rust_webapi11application7service12user_service5testss_25test_find_by_id_not_found00Bd_
FN:144,_RNCNvNtNtNtNtCs1B75dzsrioZ_11rust_webapi11application7service12user_service5testss_11test_create0Bb_
FN:89,_RNCNvNtNtNtNtCs1B75dzsrioZ_11rust_webapi11application7service12user_service5testss_13test_find_all0Bb_
FN:168,_RNCNvNtNtNtNtCs1B75dzsrioZ_11rust_webapi11application7service12user_service5testss_17test_update_found0Bb_
FN:223,_RNCNvNtNtNtNtCs1B75dzsrioZ_11rust_webapi11application7service12user_service5testss_19test_delete_success0Bb_
FN:236,_RNCNvNtNtNtNtCs1B75dzsrioZ_11rust_webapi11application7service12user_service5testss_21test_delete_not_found0Bb_
FN:110,_RNCNvNtNtNtNtCs1B75dzsrioZ_11rust_webapi11application7service12user_service5testss_21test_find_by_id_found0Bb_
FN:205,_RNCNvNtNtNtNtCs1B75dzsrioZ_11rust_webapi11application7service12user_service5testss_21test_update_not_found0Bb_
FN:131,_RNCNvNtNtNtNtCs1B75dzsrioZ_11rust_webapi11application7service12user_service5testss_25test_find_by_id_not_found0Bb_
FN:86,_RNCNvXs3_NtNtNtNtCs1B75dzsrioZ_11rust_webapi11application7service12user_service5testsNtB7_11MockUserRepNtNtNtCs8Y1garwNj5t_6domain10repository15user_repository14UserRepository10find_by_id0Bf_
FN:86,_RNCNvXs3_NtNtNtNtCs1B75dzsrioZ_11rust_webapi11application7service12user_service5testsNtB7_11MockUserRepNtNtNtCs8Y1garwNj5t_6domain10repository15user_repository14UserRepository6create0Bf_
FN:86,_RNCNvXs3_NtNtNtNtCs1B75dzsrioZ_11rust_webapi11application7service12user_service5testsNtB7_11MockUserRepNtNtNtCs8Y1garwNj5t_6domain10repository15user_repository14UserRepository6delete0Bf_
FN:86,_RNCNvXs3_NtNtNtNtCs1B75dzsrioZ_11rust_webapi11application7service12user_service5testsNtB7_11MockUserRepNtNtNtCs8Y1garwNj5t_6domain10repository15user_repository14UserRepository6update0Bf_
FN:86,_RNCNvXs3_NtNtNtNtCs1B75dzsrioZ_11rust_webapi11application7service12user_service5testsNtB7_11MockUserRepNtNtNtCs8Y1garwNj5t_6domain10repository15user_repository14UserRepository8find_all0Bf_
FN:76,_RINvMs4_NtNtNtNtNtNtCs1B75dzsrioZ_11rust_webapi11application7service12user_service5tests33___mock_MockUserRep_UserRepository12___find_by_idNtB6_6Common4withINtNtCs9l2CZqY40TY_10predicates3ord11EqPredicateyEEBi_
FN:76,_RINvMs6_NtNtNtNtNtNtCs1B75dzsrioZ_11rust_webapi11application7service12user_service5tests33___mock_MockUserRep_UserRepository12___find_by_idNtB6_11Expectation11return_onceNCNCNvBa_s_17test_update_found00EBi_
FN:76,_RINvMs6_NtNtNtNtNtNtCs1B75dzsrioZ_11rust_webapi11application7service12user_service5tests33___mock_MockUserRep_UserRepository12___find_by_idNtB6_11Expectation11return_onceNCNCNvBa_s_21test_find_by_id_found00EBi_
FN:76,_RINvMs6_NtNtNtNtNtNtCs1B75dzsrioZ_11rust_webapi11application7service12user_service5tests33___mock_MockUserRep_UserRepository12___find_by_idNtB6_11Expectation11return_onceNCNCNvBa_s_21test_update_not_found00EBi_
FN:76,_RINvMs6_NtNtNtNtNtNtCs1B75dzsrioZ_11rust_webapi11application7service12user_service5tests33___mock_MockUserRep_UserRepository12___find_by_idNtB6_11Expectation11return_onceNCNCNvBa_s_25test_find_by_id_not_found00EBi_
FN:76,_RINvMs6_NtNtNtNtNtNtCs1B75dzsrioZ_11rust_webapi11application7service12user_service5tests33___mock_MockUserRep_UserRepository12___find_by_idNtB6_11Expectation4withINtNtCs9l2CZqY40TY_10predicates3ord11EqPredicateyEEBi_
FN:76,_RNCNvMs0_NtNtNtNtNtNtCs1B75dzsrioZ_11rust_webapi11application7service12user_service5tests33___mock_MockUserRep_UserRepository12___find_by_idNtB7_7Matcher7matches0Bj_
FN:86,_RNCNvMsa_NtNtNtNtNtNtCs1B75dzsrioZ_11rust_webapi11application7service12user_service5tests33___mock_MockUserRep_UserRepository12___find_by_idNtB7_12Expectations4call0Bj_
FN:76,_RNCNvMsa_NtNtNtNtNtNtCs1B75dzsrioZ_11rust_webapi11application7service12user_service5tests33___mock_MockUserRep_UserRepository12___find_by_idNtB7_12Expectations4calls_0Bj_
FN:86,_RNvMNtNtNtNtNtNtCs1B75dzsrioZ_11rust_webapi11application7service12user_service5tests33___mock_MockUserRep_UserRepository8___deleteNtB2_5Rfunc8call_mut
FN:86,_RNvMs0_NtNtNtNtNtNtCs1B75dzsrioZ_11rust_webapi11application7service12user_service5tests33___mock_MockUserRep_UserRepository8___deleteNtB5_7Matcher7matches
FN:86,_RNvMs4_NtNtNtNtNtNtCs1B75dzsrioZ_11rust_webapi11application7service12user_service5tests33___mock_MockUserRep_UserRepository8___deleteNtB5_6Common15verify_sequence
FN:86,_RNvMs4_NtNtNtNtNtNtCs1B75dzsrioZ_11rust_webapi11application7service12user_service5tests33___mock_MockUserRep_UserRepository8___deleteNtB5_6Common16satisfy_sequence
FN:86,_RNvMs4_NtNtNtNtNtNtCs1B75dzsrioZ_11rust_webapi11application7service12user_service5tests33___mock_MockUserRep_UserRepository8___deleteNtB5_6Common4call
FN:76,_RNvMs4_NtNtNtNtNtNtCs1B75dzsrioZ_11rust_webapi11application7service12user_service5tests33___mock_MockUserRep_UserRepository8___deleteNtB5_6Common7is_done
FN:76,_RNvMs4_NtNtNtNtNtNtCs1B75dzsrioZ_11rust_webapi11application7service12user_service5tests33___mock_MockUserRep_UserRepository8___deleteNtB5_6Common7matches
FN:86,_RNvMs6_NtNtNtNtNtNtCs1B75dzsrioZ_11rust_webapi11application7service12user_service5tests33___mock_MockUserRep_UserRepository8___deleteNtB5_11Expectation4call
FN:76,_RNvMs6_NtNtNtNtNtNtCs1B75dzsrioZ_11rust_webapi11application7service12user_service5tests33___mock_MockUserRep_UserRepository8___deleteNtB5_11Expectation7is_done
FN:76,_RNvMs6_NtNtNtNtNtNtCs1B75dzsrioZ_11rust_webapi11application7service12user_service5tests33___mock_MockUserRep_UserRepository8___deleteNtB5_11Expectation7matches
FN:76,_RNvMs8_NtNtNtNtNtNtCs1B75dzsrioZ_11rust_webapi11application7service12user_service5tests33___mock_MockUserRep_UserRepository8___deleteNtB5_12Expectations6expect
FN:86,_RNvMsa_NtNtNtNtNtNtCs1B75dzsrioZ_11rust_webapi11application7service12user_service5tests33___mock_MockUserRep_UserRepository8___deleteNtB5_12Expectations4call
FN:76,_RNvXs1_NtNtNtNtNtNtCs1B75dzsrioZ_11rust_webapi11application7service12user_service5tests33___mock_MockUserRep_UserRepository8___deleteNtB5_7MatcherNtNtCsfvfooZQ3Axs_4core7default7Default7default
FN:86,_RNvXs2_NtNtNtNtNtNtCs1B75dzsrioZ_11rust_webapi11application7service12user_service5tests33___mock_MockUserRep_UserRepository8___deleteNtB5_7MatcherNtNtCsfvfooZQ3Axs_4core3fmt7Display3fmt
FN:76,_RNvXs3_NtNtNtNtNtNtCs1B75dzsrioZ_11rust_webapi11application7service12user_service5tests33___mock_MockUserRep_UserRepository8___deleteNtB5_6CommonNtNtCsfvfooZQ3Axs_4core7default7Default7default
FN:76,_RNvXs7_NtNtNtNtNtNtCs1B75dzsrioZ_11rust_webapi11application7service12user_service5tests33___mock_MockUserRep_UserRepository8___deleteNtB5_11ExpectationNtNtCsfvfooZQ3Axs_4core7default7Default7default
FN:76,_RNvXs9_NtNtNtNtNtNtCs1B75dzsrioZ_11rust_webapi11application7service12user_service5tests33___mock_MockUserRep_UserRepository8___deleteNtB5_12ExpectationsNtNtCsfvfooZQ3Axs_4core7default7Default7default
FN:76,_RNvXs_NtNtNtNtNtNtCs1B75dzsrioZ_11rust_webapi11application7service12user_service5tests33___mock_MockUserRep_UserRepository8___deleteNtB4_5RfuncNtNtCsfvfooZQ3Axs_4core7default7Default7default
FN:86,_RNvXs5_NtNtNtNtNtNtCs1B75dzsrioZ_11rust_webapi11application7service12user_service5tests33___mock_MockUserRep_UserRepository10___find_allNtB5_6CommonNtNtNtCsfvfooZQ3Axs_4core3ops4drop4Drop4drop
FN:86,_RNvXs5_NtNtNtNtNtNtCs1B75dzsrioZ_11rust_webapi11application7service12user_service5tests33___mock_MockUserRep_UserRepository12___find_by_idNtB5_6CommonNtNtNtCsfvfooZQ3Axs_4core3ops4drop4Drop4drop
FN:86,_RNvXs5_NtNtNtNtNtNtCs1B75dzsrioZ_11rust_webapi11application7service12user_service5tests33___mock_MockUserRep_UserRepository8___createNtB5_6CommonNtNtNtCsfvfooZQ3Axs_4core3ops4drop4Drop4drop
FN:86,_RNvXs5_NtNtNtNtNtNtCs1B75dzsrioZ_11rust_webapi11application7service12user_service5tests33___mock_MockUserRep_UserRepository8___deleteNtB5_6CommonNtNtNtCsfvfooZQ3Axs_4core3ops4drop4Drop4drop
FN:86,_RNvXs5_NtNtNtNtNtNtCs1B75dzsrioZ_11rust_webapi11application7service12user_service5tests33___mock_MockUserRep_UserRepository8___updateNtB5_6CommonNtNtNtCsfvfooZQ3Axs_4core3ops4drop4Drop4drop
FN:86,_RNvMNtNtNtNtNtNtCs1B75dzsrioZ_11rust_webapi11application7service12user_service5tests33___mock_MockUserRep_UserRepository8___updateNtB2_5Rfunc8call_mut
FN:86,_RNvMs0_NtNtNtNtNtNtCs1B75dzsrioZ_11rust_webapi11application7service12user_service5tests33___mock_MockUserRep_UserRepository8___updateNtB5_7Matcher7matches
FN:86,_RNvMs4_NtNtNtNtNtNtCs1B75dzsrioZ_11rust_webapi11application7service12user_service5tests33___mock_MockUserRep_UserRepository8___updateNtB5_6Common15verify_sequence
FN:86,_RNvMs4_NtNtNtNtNtNtCs1B75dzsrioZ_11rust_webapi11application7service12user_service5tests33___mock_MockUserRep_UserRepository8___updateNtB5_6Common16satisfy_sequence
FN:86,_RNvMs4_NtNtNtNtNtNtCs1B75dzsrioZ_11rust_webapi11application7service12user_service5tests33___mock_MockUserRep_UserRepository8___updateNtB5_6Common4call
FN:76,_RNvMs4_NtNtNtNtNtNtCs1B75dzsrioZ_11rust_webapi11application7service12user_service5tests33___mock_MockUserRep_UserRepository8___updateNtB5_6Common7is_done
FN:76,_RNvMs4_NtNtNtNtNtNtCs1B75dzsrioZ_11rust_webapi11application7service12user_service5tests33___mock_MockUserRep_UserRepository8___updateNtB5_6Common7matches
FN:86,_RNvMs6_NtNtNtNtNtNtCs1B75dzsrioZ_11rust_webapi11application7service12user_service5tests33___mock_MockUserRep_UserRepository8___updateNtB5_11Expectation4call
FN:76,_RNvMs6_NtNtNtNtNtNtCs1B75dzsrioZ_11rust_webapi11application7service12user_service5tests33___mock_MockUserRep_UserRepository8___updateNtB5_11Expectation7is_done
FN:76,_RNvMs6_NtNtNtNtNtNtCs1B75dzsrioZ_11rust_webapi11application7service12user_service5tests33___mock_MockUserRep_UserRepository8___updateNtB5_11Expectation7matches
FN:76,_RNvMs8_NtNtNtNtNtNtCs1B75dzsrioZ_11rust_webapi11application7service12user_service5tests33___mock_MockUserRep_UserRepository8___updateNtB5_12Expectations6expect
FN:86,_RNvMsa_NtNtNtNtNtNtCs1B75dzsrioZ_11rust_webapi11application7service12user_service5tests33___mock_MockUserRep_UserRepository8___updateNtB5_12Expectations4call
FN:76,_RNvXs1_NtNtNtNtNtNtCs1B75dzsrioZ_11rust_webapi11application7service12user_service5tests33___mock_MockUserRep_UserRepository8___updateNtB5_7MatcherNtNtCsfvfooZQ3Axs_4core7default7Default7default
FN:86,_RNvXs2_NtNtNtNtNtNtCs1B75dzsrioZ_11rust_webapi11application7service12user_service5tests33___mock_MockUserRep_UserRepository8___updateNtB5_7MatcherNtNtCsfvfooZQ3Axs_4core3fmt7Display3fmt
FN:76,_RNvXs3_NtNtNtNtNtNtCs1B75dzsrioZ_11rust_webapi11application7service12user_service5tests33___mock_MockUserRep_UserRepository8___updateNtB5_6CommonNtNtCsfvfooZQ3Axs_4core7default7Default7default
FN:76,_RNvXs7_NtNtNtNtNtNtCs1B75dzsrioZ_11rust_webapi11application7service12user_service5tests33___mock_MockUserRep_UserRepository8___updateNtB5_11ExpectationNtNtCsfvfooZQ3Axs_4core7default7Default7default
FN:76,_RNvXs9_NtNtNtNtNtNtCs1B75dzsrioZ_11rust_webapi11application7service12user_service5tests33___mock_MockUserRep_UserRepository8___updateNtB5_12ExpectationsNtNtCsfvfooZQ3Axs_4core7default7Default7default
FN:76,_RNvXs_NtNtNtNtNtNtCs1B75dzsrioZ_11rust_webapi11application7service12user_service5tests33___mock_MockUserRep_UserRepository8___updateNtB4_5RfuncNtNtCsfvfooZQ3Axs_4core7default7Default7default
FN:76,_RINvMs4_NtNtNtNtNtNtCs1B75dzsrioZ_11rust_webapi11application7service12user_service5tests33___mock_MockUserRep_UserRepository8___deleteNtB6_6Common4withINtNtCs9l2CZqY40TY_10predicates3ord11EqPredicateyEEBi_
FN:76,_RINvMs6_NtNtNtNtNtNtCs1B75dzsrioZ_11rust_webapi11application7service12user_service5tests33___mock_MockUserRep_UserRepository8___deleteNtB6_11Expectation11return_onceNCNCNvBa_s_19test_delete_success00EBi_
FN:76,_RINvMs6_NtNtNtNtNtNtCs1B75dzsrioZ_11rust_webapi11application7service12user_service5tests33___mock_MockUserRep_UserRepository8___deleteNtB6_11Expectation11return_onceNCNCNvBa_s_21test_delete_not_found00EBi_
FN:76,_RINvMs6_NtNtNtNtNtNtCs1B75dzsrioZ_11rust_webapi11application7service12user_service5tests33___mock_MockUserRep_UserRepository8___deleteNtB6_11Expectation4withINtNtCs9l2CZqY40TY_10predicates3ord11EqPredicateyEEBi_
FN:76,_RNCNvMs0_NtNtNtNtNtNtCs1B75dzsrioZ_11rust_webapi11application7service12user_service5tests33___mock_MockUserRep_UserRepository8___deleteNtB7_7Matcher7matches0Bj_
FN:86,_RNCNvMsa_NtNtNtNtNtNtCs1B75dzsrioZ_11rust_webapi11application7service12user_service5tests33___mock_MockUserRep_UserRepository8___deleteNtB7_12Expectations4call0Bj_
FN:76,_RNCNvMsa_NtNtNtNtNtNtCs1B75dzsrioZ_11rust_webapi11application7service12user_service5tests33___mock_MockUserRep_UserRepository8___deleteNtB7_12Expectations4calls_0Bj_
FN:86,_RNvMNtNtNtNtNtNtCs1B75dzsrioZ_11rust_webapi11application7service12user_service5tests33___mock_MockUserRep_UserRepository10___find_allNtB2_5Rfunc8call_mut
FN:86,_RNvMs0_NtNtNtNtNtNtCs1B75dzsrioZ_11rust_webapi11application7service12user_service5tests33___mock_MockUserRep_UserRepository10___find_allNtB5_7Matcher7matches
FN:86,_RNvMs4_NtNtNtNtNtNtCs1B75dzsrioZ_11rust_webapi11application7service12user_service5tests33___mock_MockUserRep_UserRepository10___find_allNtB5_6Common15verify_sequence
FN:86,_RNvMs4_NtNtNtNtNtNtCs1B75dzsrioZ_11rust_webapi11application7service12user_service5tests33___mock_MockUserRep_UserRepository10___find_allNtB5_6Common16satisfy_sequence
FN:86,_RNvMs4_NtNtNtNtNtNtCs1B75dzsrioZ_11rust_webapi11application7service12user_service5tests33___mock_MockUserRep_UserRepository10___find_allNtB5_6Common4call
FN:76,_RNvMs4_NtNtNtNtNtNtCs1B75dzsrioZ_11rust_webapi11application7service12user_service5tests33___mock_MockUserRep_UserRepository10___find_allNtB5_6Common7is_done
FN:76,_RNvMs4_NtNtNtNtNtNtCs1B75dzsrioZ_11rust_webapi11application7service12user_service5tests33___mock_MockUserRep_UserRepository10___find_allNtB5_6Common7matches
FN:86,_RNvMs6_NtNtNtNtNtNtCs1B75dzsrioZ_11rust_webapi11application7service12user_service5tests33___mock_MockUserRep_UserRepository10___find_allNtB5_11Expectation4call
FN:76,_RNvMs6_NtNtNtNtNtNtCs1B75dzsrioZ_11rust_webapi11application7service12user_service5tests33___mock_MockUserRep_UserRepository10___find_allNtB5_11Expectation7is_done
FN:76,_RNvMs6_NtNtNtNtNtNtCs1B75dzsrioZ_11rust_webapi11application7service12user_service5tests33___mock_MockUserRep_UserRepository10___find_allNtB5_11Expectation7matches
FN:76,_RNvMs8_NtNtNtNtNtNtCs1B75dzsrioZ_11rust_webapi11application7service12user_service5tests33___mock_MockUserRep_UserRepository10___find_allNtB5_12Expectations6expect
FN:86,_RNvMsa_NtNtNtNtNtNtCs1B75dzsrioZ_11rust_webapi11application7service12user_service5tests33___mock_MockUserRep_UserRepository10___find_allNtB5_12Expectations4call
FN:76,_RNvXs1_NtNtNtNtNtNtCs1B75dzsrioZ_11rust_webapi11application7service12user_service5tests33___mock_MockUserRep_UserRepository10___find_allNtB5_7MatcherNtNtCsfvfooZQ3Axs_4core7default7Default7default
FN:86,_RNvXs2_NtNtNtNtNtNtCs1B75dzsrioZ_11rust_webapi11application7service12user_service5tests33___mock_MockUserRep_UserRepository10___find_allNtB5_7MatcherNtNtCsfvfooZQ3Axs_4core3fmt7Display3fmt
FN:76,_RNvXs3_NtNtNtNtNtNtCs1B75dzsrioZ_11rust_webapi11application7service12user_service5tests33___mock_MockUserRep_UserRepository10___find_allNtB5_6CommonNtNtCsfvfooZQ3Axs_4core7default7Default7default
FN:76,_RNvXs7_NtNtNtNtNtNtCs1B75dzsrioZ_11rust_webapi11application7service12user_service5tests33___mock_MockUserRep_UserRepository10___find_allNtB5_11ExpectationNtNtCsfvfooZQ3Axs_4core7default7Default7default
FN:76,_RNvXs9_NtNtNtNtNtNtCs1B75dzsrioZ_11rust_webapi11application7service12user_service5tests33___mock_MockUserRep_UserRepository10___find_allNtB5_12ExpectationsNtNtCsfvfooZQ3Axs_4core7default7Default7default
FN:76,_RNvXs_NtNtNtNtNtNtCs1B75dzsrioZ_11rust_webapi11application7service12user_service5tests33___mock_MockUserRep_UserRepository10___find_allNtB4_5RfuncNtNtCsfvfooZQ3Axs_4core7default7Default7default
FN:21,_RNCNvMNtNtNtCs1B75dzsrioZ_11rust_webapi11application7service12user_serviceNtB4_11UserService10find_by_id0Ba_
FN:31,_RNCNvMNtNtNtCs1B75dzsrioZ_11rust_webapi11application7service12user_serviceNtB4_11UserService6create0Ba_
FN:58,_RNCNvMNtNtNtCs1B75dzsrioZ_11rust_webapi11application7service12user_serviceNtB4_11UserService6delete0Ba_
FN:39,_RNCNvMNtNtNtCs1B75dzsrioZ_11rust_webapi11application7service12user_serviceNtB4_11UserService6update0Ba_
FN:15,_RNCNvMNtNtNtCs1B75dzsrioZ_11rust_webapi11application7service12user_serviceNtB4_11UserService8find_all0Ba_
FN:76,_RINvMs4_NtNtNtNtNtNtCs1B75dzsrioZ_11rust_webapi11application7service12user_service5tests33___mock_MockUserRep_UserRepository8___createNtB6_6Common5withfNCNCNvBa_s_11test_create00EBi_
FN:76,_RINvMs6_NtNtNtNtNtNtCs1B75dzsrioZ_11rust_webapi11application7service12user_service5tests33___mock_MockUserRep_UserRepository8___createNtB6_11Expectation11return_onceNCNCNvBa_s_11test_create0s_0EBi_
FN:76,_RINvMs6_NtNtNtNtNtNtCs1B75dzsrioZ_11rust_webapi11application7service12user_service5tests33___mock_MockUserRep_UserRepository8___createNtB6_11Expectation5withfNCNCNvBa_s_11test_create00EBi_
FN:76,_RNCNvMs0_NtNtNtNtNtNtCs1B75dzsrioZ_11rust_webapi11application7service12user_service5tests33___mock_MockUserRep_UserRepository8___createNtB7_7Matcher7matches0Bj_
FN:86,_RNCNvMsa_NtNtNtNtNtNtCs1B75dzsrioZ_11rust_webapi11application7service12user_service5tests33___mock_MockUserRep_UserRepository8___createNtB7_12Expectations4call0Bj_
FN:76,_RNCNvMsa_NtNtNtNtNtNtCs1B75dzsrioZ_11rust_webapi11application7service12user_service5tests33___mock_MockUserRep_UserRepository8___createNtB7_12Expectations4calls_0Bj_
FN:76,_RNvMs1_NtNtNtNtCs1B75dzsrioZ_11rust_webapi11application7service12user_service5testsNtB5_11MockUserRep3new
FN:76,_RNvMs2_NtNtNtNtCs1B75dzsrioZ_11rust_webapi11application7service12user_service5testsNtB5_11MockUserRep13expect_create
FN:76,_RNvMs2_NtNtNtNtCs1B75dzsrioZ_11rust_webapi11application7service12user_service5testsNtB5_11MockUserRep13expect_delete
FN:76,_RNvMs2_NtNtNtNtCs1B75dzsrioZ_11rust_webapi11application7service12user_service5testsNtB5_11MockUserRep13expect_update
FN:76,_RNvMs2_NtNtNtNtCs1B75dzsrioZ_11rust_webapi11application7service12user_service5testsNtB5_11MockUserRep15expect_find_all
FN:76,_RNvMs2_NtNtNtNtCs1B75dzsrioZ_11rust_webapi11application7service12user_service5testsNtB5_11MockUserRep17expect_find_by_id
FN:144,_RNvNtNtNtNtCs1B75dzsrioZ_11rust_webapi11application7service12user_service5testss_11test_create
FN:89,_RNvNtNtNtNtCs1B75dzsrioZ_11rust_webapi11application7service12user_service5testss_13test_find_all
FN:168,_RNvNtNtNtNtCs1B75dzsrioZ_11rust_webapi11application7service12user_service5testss_17test_update_found
FN:223,_RNvNtNtNtNtCs1B75dzsrioZ_11rust_webapi11application7service12user_service5testss_19test_delete_success
FN:236,_RNvNtNtNtNtCs1B75dzsrioZ_11rust_webapi11application7service12user_service5testss_21test_delete_not_found
FN:110,_RNvNtNtNtNtCs1B75dzsrioZ_11rust_webapi11application7service12user_service5testss_21test_find_by_id_found
FN:205,_RNvNtNtNtNtCs1B75dzsrioZ_11rust_webapi11application7service12user_service5testss_21test_update_not_found
FN:131,_RNvNtNtNtNtCs1B75dzsrioZ_11rust_webapi11application7service12user_service5testss_25test_find_by_id_not_found
FN:76,_RNvXNtNtNtNtCs1B75dzsrioZ_11rust_webapi11application7service12user_service5testsNtB2_11MockUserRepNtNtCsfvfooZQ3Axs_4core7default7Default7default
FN:86,_RNvXs3_NtNtNtNtCs1B75dzsrioZ_11rust_webapi11application7service12user_service5testsNtB5_11MockUserRepNtNtNtCs8Y1garwNj5t_6domain10repository15user_repository14UserRepository10find_by_id
FN:86,_RNvXs3_NtNtNtNtCs1B75dzsrioZ_11rust_webapi11application7service12user_service5testsNtB5_11MockUserRepNtNtNtCs8Y1garwNj5t_6domain10repository15user_repository14UserRepository6create
FN:86,_RNvXs3_NtNtNtNtCs1B75dzsrioZ_11rust_webapi11application7service12user_service5testsNtB5_11MockUserRepNtNtNtCs8Y1garwNj5t_6domain10repository15user_repository14UserRepository6delete
FN:86,_RNvXs3_NtNtNtNtCs1B75dzsrioZ_11rust_webapi11application7service12user_service5testsNtB5_11MockUserRepNtNtNtCs8Y1garwNj5t_6domain10repository15user_repository14UserRepository6update
FN:86,_RNvXs3_NtNtNtNtCs1B75dzsrioZ_11rust_webapi11application7service12user_service5testsNtB5_11MockUserRepNtNtNtCs8Y1garwNj5t_6domain10repository15user_repository14UserRepository8find_all
FN:76,_RNvXs_NtNtNtNtCs1B75dzsrioZ_11rust_webapi11application7service12user_service5testsNtB4_26MockUserRep_UserRepositoryNtNtCsfvfooZQ3Axs_4core7default7Default7default
FN:76,_RINvMs4_NtNtNtNtNtNtCs1B75dzsrioZ_11rust_webapi11application7service12user_service5tests33___mock_MockUserRep_UserRepository8___updateNtB6_6Common5withfNCNCNvBa_s_17test_update_found0s_0EBi_
FN:76,_RINvMs6_NtNtNtNtNtNtCs1B75dzsrioZ_11rust_webapi11application7service12user_service5tests33___mock_MockUserRep_UserRepository8___updateNtB6_11Expectation11return_onceNCNCNvBa_s_17test_update_found0s0_0EBi_
FN:76,_RINvMs6_NtNtNtNtNtNtCs1B75dzsrioZ_11rust_webapi11application7service12user_service5tests33___mock_MockUserRep_UserRepository8___updateNtB6_11Expectation5withfNCNCNvBa_s_17test_update_found0s_0EBi_
FN:76,_RNCNvMs0_NtNtNtNtNtNtCs1B75dzsrioZ_11rust_webapi11application7service12user_service5tests33___mock_MockUserRep_UserRepository8___updateNtB7_7Matcher7matches0Bj_
FN:86,_RNCNvMsa_NtNtNtNtNtNtCs1B75dzsrioZ_11rust_webapi11application7service12user_service5tests33___mock_MockUserRep_UserRepository8___updateNtB7_12Expectations4call0Bj_
FN:76,_RNCNvMsa_NtNtNtNtNtNtCs1B75dzsrioZ_11rust_webapi11application7service12user_service5tests33___mock_MockUserRep_UserRepository8___updateNtB7_12Expectations4calls_0Bj_
FN:86,_RNvMNtNtNtNtNtNtCs1B75dzsrioZ_11rust_webapi11application7service12user_service5tests33___mock_MockUserRep_UserRepository8___createNtB2_5Rfunc8call_mut
FN:86,_RNvMs0_NtNtNtNtNtNtCs1B75dzsrioZ_11rust_webapi11application7service12user_service5tests33___mock_MockUserRep_UserRepository8___createNtB5_7Matcher7matches
FN:86,_RNvMs4_NtNtNtNtNtNtCs1B75dzsrioZ_11rust_webapi11application7service12user_service5tests33___mock_MockUserRep_UserRepository8___createNtB5_6Common15verify_sequence
FN:86,_RNvMs4_NtNtNtNtNtNtCs1B75dzsrioZ_11rust_webapi11application7service12user_service5tests33___mock_MockUserRep_UserRepository8___createNtB5_6Common16satisfy_sequence
FN:86,_RNvMs4_NtNtNtNtNtNtCs1B75dzsrioZ_11rust_webapi11application7service12user_service5tests33___mock_MockUserRep_UserRepository8___createNtB5_6Common4call
FN:76,_RNvMs4_NtNtNtNtNtNtCs1B75dzsrioZ_11rust_webapi11application7service12user_service5tests33___mock_MockUserRep_UserRepository8___createNtB5_6Common7is_done
FN:76,_RNvMs4_NtNtNtNtNtNtCs1B75dzsrioZ_11rust_webapi11application7service12user_service5tests33___mock_MockUserRep_UserRepository8___createNtB5_6Common7matches
FN:86,_RNvMs6_NtNtNtNtNtNtCs1B75dzsrioZ_11rust_webapi11application7service12user_service5tests33___mock_MockUserRep_UserRepository8___createNtB5_11Expectation4call
FN:76,_RNvMs6_NtNtNtNtNtNtCs1B75dzsrioZ_11rust_webapi11application7service12user_service5tests33___mock_MockUserRep_UserRepository8___createNtB5_11Expectation7is_done
FN:76,_RNvMs6_NtNtNtNtNtNtCs1B75dzsrioZ_11rust_webapi11application7service12user_service5tests33___mock_MockUserRep_UserRepository8___createNtB5_11Expectation7matches
FN:76,_RNvMs8_NtNtNtNtNtNtCs1B75dzsrioZ_11rust_webapi11application7service12user_service5tests33___mock_MockUserRep_UserRepository8___createNtB5_12Expectations6expect
FN:86,_RNvMsa_NtNtNtNtNtNtCs1B75dzsrioZ_11rust_webapi11application7service12user_service5tests33___mock_MockUserRep_UserRepository8___createNtB5_12Expectations4call
FN:76,_RNvXs1_NtNtNtNtNtNtCs1B75dzsrioZ_11rust_webapi11application7service12user_service5tests33___mock_MockUserRep_UserRepository8___createNtB5_7MatcherNtNtCsfvfooZQ3Axs_4core7default7Default7default
FN:86,_RNvXs2_NtNtNtNtNtNtCs1B75dzsrioZ_11rust_webapi11application7service12user_service5tests33___mock_MockUserRep_UserRepository8___createNtB5_7MatcherNtNtCsfvfooZQ3Axs_4core3fmt7Display3fmt
FN:76,_RNvXs3_NtNtNtNtNtNtCs1B75dzsrioZ_11rust_webapi11application7service12user_service5tests33___mock_MockUserRep_UserRepository8___createNtB5_6CommonNtNtCsfvfooZQ3Axs_4core7default7Default7default
FN:76,_RNvXs7_NtNtNtNtNtNtCs1B75dzsrioZ_11rust_webapi11application7service12user_service5tests33___mock_MockUserRep_UserRepository8___createNtB5_11ExpectationNtNtCsfvfooZQ3Axs_4core7default7Default7default
FN:76,_RNvXs9_NtNtNtNtNtNtCs1B75dzsrioZ_11rust_webapi11application7service12user_service5tests33___mock_MockUserRep_UserRepository8___createNtB5_12ExpectationsNtNtCsfvfooZQ3Axs_4core7default7Default7default
FN:76,_RNvXs_NtNtNtNtNtNtCs1B75dzsrioZ_11rust_webapi11application7service12user_service5tests33___mock_MockUserRep_UserRepository8___createNtB4_5RfuncNtNtCsfvfooZQ3Axs_4core7default7Default7default
FN:21,_RNvMNtNtNtCs1B75dzsrioZ_11rust_webapi11application7service12user_serviceNtB2_11UserService10find_by_id
FN:11,_RNvMNtNtNtCs1B75dzsrioZ_11rust_webapi11application7service12user_serviceNtB2_11UserService3new
FN:31,_RNvMNtNtNtCs1B75dzsrioZ_11rust_webapi11application7service12user_serviceNtB2_11UserService6create
FN:58,_RNvMNtNtNtCs1B75dzsrioZ_11rust_webapi11application7service12user_serviceNtB2_11UserService6delete
FN:39,_RNvMNtNtNtCs1B75dzsrioZ_11rust_webapi11application7service12user_serviceNtB2_11UserService6update
FN:15,_RNvMNtNtNtCs1B75dzsrioZ_11rust_webapi11application7service12user_serviceNtB2_11UserService8find_all
FNDA:4,_RNvMNtNtNtNtNtNtCs1B75dzsrioZ_11rust_webapi11application7service12user_service5tests33___mock_MockUserRep_UserRepository12___find_by_idNtB2_5Rfunc8call_mut
FNDA:4,_RNvMs0_NtNtNtNtNtNtCs1B75dzsrioZ_11rust_webapi11application7service12user_service5tests33___mock_MockUserRep_UserRepository12___find_by_idNtB5_7Matcher7matches
FNDA:4,_RNvMs4_NtNtNtNtNtNtCs1B75dzsrioZ_11rust_webapi11application7service12user_service5tests33___mock_MockUserRep_UserRepository12___find_by_idNtB5_6Common15verify_sequence
FNDA:4,_RNvMs4_NtNtNtNtNtNtCs1B75dzsrioZ_11rust_webapi11application7service12user_service5tests33___mock_MockUserRep_UserRepository12___find_by_idNtB5_6Common16satisfy_sequence
FNDA:4,_RNvMs4_NtNtNtNtNtNtCs1B75dzsrioZ_11rust_webapi11application7service12user_service5tests33___mock_MockUserRep_UserRepository12___find_by_idNtB5_6Common4call
FNDA:4,_RNvMs4_NtNtNtNtNtNtCs1B75dzsrioZ_11rust_webapi11application7service12user_service5tests33___mock_MockUserRep_UserRepository12___find_by_idNtB5_6Common7is_done
FNDA:4,_RNvMs4_NtNtNtNtNtNtCs1B75dzsrioZ_11rust_webapi11application7service12user_service5tests33___mock_MockUserRep_UserRepository12___find_by_idNtB5_6Common7matches
FNDA:4,_RNvMs6_NtNtNtNtNtNtCs1B75dzsrioZ_11rust_webapi11application7service12user_service5tests33___mock_MockUserRep_UserRepository12___find_by_idNtB5_11Expectation4call
FNDA:4,_RNvMs6_NtNtNtNtNtNtCs1B75dzsrioZ_11rust_webapi11application7service12user_service5tests33___mock_MockUserRep_UserRepository12___find_by_idNtB5_11Expectation7is_done
FNDA:4,_RNvMs6_NtNtNtNtNtNtCs1B75dzsrioZ_11rust_webapi11application7service12user_service5tests33___mock_MockUserRep_UserRepository12___find_by_idNtB5_11Expectation7matches
FNDA:4,_RNvMs8_NtNtNtNtNtNtCs1B75dzsrioZ_11rust_webapi11application7service12user_service5tests33___mock_MockUserRep_UserRepository12___find_by_idNtB5_12Expectations6expect
FNDA:4,_RNvMsa_NtNtNtNtNtNtCs1B75dzsrioZ_11rust_webapi11application7service12user_service5tests33___mock_MockUserRep_UserRepository12___find_by_idNtB5_12Expectations4call
FNDA:4,_RNvXs1_NtNtNtNtNtNtCs1B75dzsrioZ_11rust_webapi11application7service12user_service5tests33___mock_MockUserRep_UserRepository12___find_by_idNtB5_7MatcherNtNtCsfvfooZQ3Axs_4core7default7Default7default
FNDA:4,_RNvXs2_NtNtNtNtNtNtCs1B75dzsrioZ_11rust_webapi11application7service12user_service5tests33___mock_MockUserRep_UserRepository12___find_by_idNtB5_7MatcherNtNtCsfvfooZQ3Axs_4core3fmt7Display3fmt
FNDA:4,_RNvXs3_NtNtNtNtNtNtCs1B75dzsrioZ_11rust_webapi11application7service12user_service5tests33___mock_MockUserRep_UserRepository12___find_by_idNtB5_6CommonNtNtCsfvfooZQ3Axs_4core7default7Default7default
FNDA:4,_RNvXs7_NtNtNtNtNtNtCs1B75dzsrioZ_11rust_webapi11application7service12user_service5tests33___mock_MockUserRep_UserRepository12___find_by_idNtB5_11ExpectationNtNtCsfvfooZQ3Axs_4core7default7Default7default
FNDA:8,_RNvXs9_NtNtNtNtNtNtCs1B75dzsrioZ_11rust_webapi11application7service12user_service5tests33___mock_MockUserRep_UserRepository12___find_by_idNtB5_12ExpectationsNtNtCsfvfooZQ3Axs_4core7default7Default7default
FNDA:4,_RNvXs_NtNtNtNtNtNtCs1B75dzsrioZ_11rust_webapi11application7service12user_service5tests33___mock_MockUserRep_UserRepository12___find_by_idNtB4_5RfuncNtNtCsfvfooZQ3Axs_4core7default7Default7default
FNDA:0,_RINvMs4_NtNtNtNtNtNtCs1B75dzsrioZ_11rust_webapi11application7service12user_service5tests33___mock_MockUserRep_UserRepository10___find_allNtB6_6Common5timespEBi_
FNDA:0,_RINvMs4_NtNtNtNtNtNtCs1B75dzsrioZ_11rust_webapi11application7service12user_service5tests33___mock_MockUserRep_UserRepository10___find_allNtB6_6Common5withfpEBi_
FNDA:0,_RINvMs4_NtNtNtNtNtNtCs1B75dzsrioZ_11rust_webapi11application7service12user_service5tests33___mock_MockUserRep_UserRepository10___find_allNtB6_6Common8withf_stpEBi_
FNDA:0,_RINvMs4_NtNtNtNtNtNtCs1B75dzsrioZ_11rust_webapi11application7service12user_service5tests33___mock_MockUserRep_UserRepository12___find_by_idNtB6_6Common5timespEBi_
FNDA:0,_RINvMs4_NtNtNtNtNtNtCs1B75dzsrioZ_11rust_webapi11application7service12user_service5tests33___mock_MockUserRep_UserRepository12___find_by_idNtB6_6Common5withfpEBi_
FNDA:0,_RINvMs4_NtNtNtNtNtNtCs1B75dzsrioZ_11rust_webapi11application7service12user_service5tests33___mock_MockUserRep_UserRepository12___find_by_idNtB6_6Common8withf_stpEBi_
FNDA:0,_RINvMs4_NtNtNtNtNtNtCs1B75dzsrioZ_11rust_webapi11application7service12user_service5tests33___mock_MockUserRep_UserRepository8___createNtB6_6Common4withpEBi_
FNDA:0,_RINvMs4_NtNtNtNtNtNtCs1B75dzsrioZ_11rust_webapi11application7service12user_service5tests33___mock_MockUserRep_UserRepository8___createNtB6_6Common5timespEBi_
FNDA:0,_RINvMs4_NtNtNtNtNtNtCs1B75dzsrioZ_11rust_webapi11application7service12user_service5tests33___mock_MockUserRep_UserRepository8___createNtB6_6Common8withf_stpEBi_
FNDA:0,_RINvMs4_NtNtNtNtNtNtCs1B75dzsrioZ_11rust_webapi11application7service12user_service5tests33___mock_MockUserRep_UserRepository8___deleteNtB6_6Common5timespEBi_
FNDA:0,_RINvMs4_NtNtNtNtNtNtCs1B75dzsrioZ_11rust_webapi11application7service12user_service5tests33___mock_MockUserRep_UserRepository8___deleteNtB6_6Common5withfpEBi_
FNDA:0,_RINvMs4_NtNtNtNtNtNtCs1B75dzsrioZ_11rust_webapi11application7service12user_service5tests33___mock_MockUserRep_UserRepository8___deleteNtB6_6Common8withf_stpEBi_
FNDA:0,_RINvMs4_NtNtNtNtNtNtCs1B75dzsrioZ_11rust_webapi11application7service12user_service5tests33___mock_MockUserRep_UserRepository8___updateNtB6_6Common4withpEBi_
FNDA:0,_RINvMs4_NtNtNtNtNtNtCs1B75dzsrioZ_11rust_webapi11application7service12user_service5tests33___mock_MockUserRep_UserRepository8___updateNtB6_6Common5timespEBi_
FNDA:0,_RINvMs4_NtNtNtNtNtNtCs1B75dzsrioZ_11rust_webapi11application7service12user_service5tests33___mock_MockUserRep_UserRepository8___updateNtB6_6Common8withf_stpEBi_
FNDA:0,_RINvMs6_NtNtNtNtNtNtCs1B75dzsrioZ_11rust_webapi11application7service12user_service5tests33___mock_MockUserRep_UserRepository10___find_allNtB6_11Expectation12return_constpEBi_
FNDA:0,_RINvMs6_NtNtNtNtNtNtCs1B75dzsrioZ_11rust_webapi11application7service12user_service5tests33___mock_MockUserRep_UserRepository10___find_allNtB6_11Expectation12returning_stpEBi_
FNDA:0,_RINvMs6_NtNtNtNtNtNtCs1B75dzsrioZ_11rust_webapi11application7service12user_service5tests33___mock_MockUserRep_UserRepository10___find_allNtB6_11Expectation14return_once_stpEBi_
FNDA:0,_RINvMs6_NtNtNtNtNtNtCs1B75dzsrioZ_11rust_webapi11application7service12user_service5tests33___mock_MockUserRep_UserRepository10___find_allNtB6_11Expectation15return_const_stpEBi_
FNDA:0,_RINvMs6_NtNtNtNtNtNtCs1B75dzsrioZ_11rust_webapi11application7service12user_service5tests33___mock_MockUserRep_UserRepository10___find_allNtB6_11Expectation5timespEBi_
FNDA:0,_RINvMs6_NtNtNtNtNtNtCs1B75dzsrioZ_11rust_webapi11application7service12user_service5tests33___mock_MockUserRep_UserRepository10___find_allNtB6_11Expectation5withfpEBi_
FNDA:0,_RINvMs6_NtNtNtNtNtNtCs1B75dzsrioZ_11rust_webapi11application7service12user_service5tests33___mock_MockUserRep_UserRepository10___find_allNtB6_11Expectation8withf_stpEBi_
FNDA:0,_RINvMs6_NtNtNtNtNtNtCs1B75dzsrioZ_11rust_webapi11application7service12user_service5tests33___mock_MockUserRep_UserRepository10___find_allNtB6_11Expectation9returningpEBi_
FNDA:0,_RINvMs6_NtNtNtNtNtNtCs1B75dzsrioZ_11rust_webapi11application7service12user_service5tests33___mock_MockUserRep_UserRepository12___find_by_idNtB6_11Expectation12return_constpEBi_
FNDA:0,_RINvMs6_NtNtNtNtNtNtCs1B75dzsrioZ_11rust_webapi11application7service12user_service5tests33___mock_MockUserRep_UserRepository12___find_by_idNtB6_11Expectation12returning_stpEBi_
FNDA:0,_RINvMs6_NtNtNtNtNtNtCs1B75dzsrioZ_11rust_webapi11application7service12user_service5tests33___mock_MockUserRep_UserRepository12___find_by_idNtB6_11Expectation14return_once_stpEBi_
FNDA:0,_RINvMs6_NtNtNtNtNtNtCs1B75dzsrioZ_11rust_webapi11application7service12user_service5tests33___mock_MockUserRep_UserRepository12___find_by_idNtB6_11Expectation15return_const_stpEBi_
FNDA:0,_RINvMs6_NtNtNtNtNtNtCs1B75dzsrioZ_11rust_webapi11application7service12user_service5tests33___mock_MockUserRep_UserRepository12___find_by_idNtB6_11Expectation5timespEBi_
FNDA:0,_RINvMs6_NtNtNtNtNtNtCs1B75dzsrioZ_11rust_webapi11application7service12user_service5tests33___mock_MockUserRep_UserRepository12___find_by_idNtB6_11Expectation5withfpEBi_
FNDA:0,_RINvMs6_NtNtNtNtNtNtCs1B75dzsrioZ_11rust_webapi11application7service12user_service5tests33___mock_MockUserRep_UserRepository12___find_by_idNtB6_11Expectation8withf_stpEBi_
FNDA:0,_RINvMs6_NtNtNtNtNtNtCs1B75dzsrioZ_11rust_webapi11application7service12user_service5tests33___mock_MockUserRep_UserRepository12___find_by_idNtB6_11Expectation9returningpEBi_
FNDA:0,_RINvMs6_NtNtNtNtNtNtCs1B75dzsrioZ_11rust_webapi11application7service12user_service5tests33___mock_MockUserRep_UserRepository8___createNtB6_11Expectation12return_constpEBi_
FNDA:0,_RINvMs6_NtNtNtNtNtNtCs1B75dzsrioZ_11rust_webapi11application7service12user_service5tests33___mock_MockUserRep_UserRepository8___createNtB6_11Expectation12returning_stpEBi_
FNDA:0,_RINvMs6_NtNtNtNtNtNtCs1B75dzsrioZ_11rust_webapi11application7service12user_service5tests33___mock_MockUserRep_UserRepository8___createNtB6_11Expectation14return_once_stpEBi_
FNDA:0,_RINvMs6_NtNtNtNtNtNtCs1B75dzsrioZ_11rust_webapi11application7service12user_service5tests33___mock_MockUserRep_UserRepository8___createNtB6_11Expectation15return_const_stpEBi_
FNDA:0,_RINvMs6_NtNtNtNtNtNtCs1B75dzsrioZ_11rust_webapi11application7service12user_service5tests33___mock_MockUserRep_UserRepository8___createNtB6_11Expectation4withpEBi_
FNDA:0,_RINvMs6_NtNtNtNtNtNtCs1B75dzsrioZ_11rust_webapi11application7service12user_service5tests33___mock_MockUserRep_UserRepository8___createNtB6_11Expectation5timespEBi_
FNDA:0,_RINvMs6_NtNtNtNtNtNtCs1B75dzsrioZ_11rust_webapi11application7service12user_service5tests33___mock_MockUserRep_UserRepository8___createNtB6_11Expectation8withf_stpEBi_
FNDA:0,_RINvMs6_NtNtNtNtNtNtCs1B75dzsrioZ_11rust_webapi11application7service12user_service5tests33___mock_MockUserRep_UserRepository8___createNtB6_11Expectation9returningpEBi_
FNDA:0,_RINvMs6_NtNtNtNtNtNtCs1B75dzsrioZ_11rust_webapi11application7service12user_service5tests33___mock_MockUserRep_UserRepository8___deleteNtB6_11Expectation12return_constpEBi_
FNDA:0,_RINvMs6_NtNtNtNtNtNtCs1B75dzsrioZ_11rust_webapi11application7service12user_service5tests33___mock_MockUserRep_UserRepository8___deleteNtB6_11Expectation12returning_stpEBi_
FNDA:0,_RINvMs6_NtNtNtNtNtNtCs1B75dzsrioZ_11rust_webapi11application7service12user_service5tests33___mock_MockUserRep_UserRepository8___deleteNtB6_11Expectation14return_once_stpEBi_
FNDA:0,_RINvMs6_NtNtNtNtNtNtCs1B75dzsrioZ_11rust_webapi11application7service12user_service5tests33___mock_MockUserRep_UserRepository8___deleteNtB6_11Expectation15return_const_stpEBi_
FNDA:0,_RINvMs6_NtNtNtNtNtNtCs1B75dzsrioZ_11rust_webapi11application7service12user_service5tests33___mock_MockUserRep_UserRepository8___deleteNtB6_11Expectation5timespEBi_
FNDA:0,_RINvMs6_NtNtNtNtNtNtCs1B75dzsrioZ_11rust_webapi11application7service12user_service5tests33___mock_MockUserRep_UserRepository8___deleteNtB6_11Expectation5withfpEBi_
FNDA:0,_RINvMs6_NtNtNtNtNtNtCs1B75dzsrioZ_11rust_webapi11application7service12user_service5tests33___mock_MockUserRep_UserRepository8___deleteNtB6_11Expectation8withf_stpEBi_
FNDA:0,_RINvMs6_NtNtNtNtNtNtCs1B75dzsrioZ_11rust_webapi11application7service12user_service5tests33___mock_MockUserRep_UserRepository8___deleteNtB6_11Expectation9returningpEBi_
FNDA:0,_RINvMs6_NtNtNtNtNtNtCs1B75dzsrioZ_11rust_webapi11application7service12user_service5tests33___mock_MockUserRep_UserRepository8___updateNtB6_11Expectation12return_constpEBi_
FNDA:0,_RINvMs6_NtNtNtNtNtNtCs1B75dzsrioZ_11rust_webapi11application7service12user_service5tests33___mock_MockUserRep_UserRepository8___updateNtB6_11Expectation12returning_stpEBi_
FNDA:0,_RINvMs6_NtNtNtNtNtNtCs1B75dzsrioZ_11rust_webapi11application7service12user_service5tests33___mock_MockUserRep_UserRepository8___updateNtB6_11Expectation14return_once_stpEBi_
FNDA:0,_RINvMs6_NtNtNtNtNtNtCs1B75dzsrioZ_11rust_webapi11application7service12user_service5tests33___mock_MockUserRep_UserRepository8___updateNtB6_11Expectation15return_const_stpEBi_
FNDA:0,_RINvMs6_NtNtNtNtNtNtCs1B75dzsrioZ_11rust_webapi11application7service12user_service5tests33___mock_MockUserRep_UserRepository8___updateNtB6_11Expectation4withpEBi_
FNDA:0,_RINvMs6_NtNtNtNtNtNtCs1B75dzsrioZ_11rust_webapi11application7service12user_service5tests33___mock_MockUserRep_UserRepository8___updateNtB6_11Expectation5timespEBi_
FNDA:0,_RINvMs6_NtNtNtNtNtNtCs1B75dzsrioZ_11rust_webapi11application7service12user_service5tests33___mock_MockUserRep_UserRepository8___updateNtB6_11Expectation8withf_stpEBi_
FNDA:0,_RINvMs6_NtNtNtNtNtNtCs1B75dzsrioZ_11rust_webapi11application7service12user_service5tests33___mock_MockUserRep_UserRepository8___updateNtB6_11Expectation9returningpEBi_
FNDA:0,_RNCINvMs6_NtNtNtNtNtNtCs1B75dzsrioZ_11rust_webapi11application7service12user_service5tests33___mock_MockUserRep_UserRepository10___find_allNtB8_11Expectation12return_constpE0Bk_
FNDA:0,_RNCINvMs6_NtNtNtNtNtNtCs1B75dzsrioZ_11rust_webapi11application7service12user_service5tests33___mock_MockUserRep_UserRepository10___find_allNtB8_11Expectation15return_const_stpE0Bk_
FNDA:0,_RNCINvMs6_NtNtNtNtNtNtCs1B75dzsrioZ_11rust_webapi11application7service12user_service5tests33___mock_MockUserRep_UserRepository12___find_by_idNtB8_11Expectation12return_constpE0Bk_
FNDA:0,_RNCINvMs6_NtNtNtNtNtNtCs1B75dzsrioZ_11rust_webapi11application7service12user_service5tests33___mock_MockUserRep_UserRepository12___find_by_idNtB8_11Expectation15return_const_stpE0Bk_
FNDA:0,_RNCINvMs6_NtNtNtNtNtNtCs1B75dzsrioZ_11rust_webapi11application7service12user_service5tests33___mock_MockUserRep_UserRepository8___createNtB8_11Expectation12return_constpE0Bk_
FNDA:0,_RNCINvMs6_NtNtNtNtNtNtCs1B75dzsrioZ_11rust_webapi11application7service12user_service5tests33___mock_MockUserRep_UserRepository8___createNtB8_11Expectation15return_const_stpE0Bk_
FNDA:0,_RNCINvMs6_NtNtNtNtNtNtCs1B75dzsrioZ_11rust_webapi11application7service12user_service5tests33___mock_MockUserRep_UserRepository8___deleteNtB8_11Expectation12return_constpE0Bk_
FNDA:0,_RNCINvMs6_NtNtNtNtNtNtCs1B75dzsrioZ_11rust_webapi11application7service12user_service5tests33___mock_MockUserRep_UserRepository8___deleteNtB8_11Expectation15return_const_stpE0Bk_
FNDA:0,_RNCINvMs6_NtNtNtNtNtNtCs1B75dzsrioZ_11rust_webapi11application7service12user_service5tests33___mock_MockUserRep_UserRepository8___updateNtB8_11Expectation12return_constpE0Bk_
FNDA:0,_RNCINvMs6_NtNtNtNtNtNtCs1B75dzsrioZ_11rust_webapi11application7service12user_service5tests33___mock_MockUserRep_UserRepository8___updateNtB8_11Expectation15return_const_stpE0Bk_
FNDA:0,_RNvMs0_NtNtNtNtCs1B75dzsrioZ_11rust_webapi11application7service12user_service5testsNtB5_26MockUserRep_UserRepository10checkpoint
FNDA:0,_RNvMs1_NtNtNtNtCs1B75dzsrioZ_11rust_webapi11application7service12user_service5testsNtB5_11MockUserRep10checkpoint
FNDA:0,_RNvMs4_NtNtNtNtNtNtCs1B75dzsrioZ_11rust_webapi11application7service12user_service5tests33___mock_MockUserRep_UserRepository10___find_allNtB5_6Common11in_sequence
FNDA:0,_RNvMs4_NtNtNtNtNtNtCs1B75dzsrioZ_11rust_webapi11application7service12user_service5tests33___mock_MockUserRep_UserRepository10___find_allNtB5_6Common4with
FNDA:0,_RNvMs4_NtNtNtNtNtNtCs1B75dzsrioZ_11rust_webapi11application7service12user_service5tests33___mock_MockUserRep_UserRepository10___find_allNtB5_6Common5never
FNDA:0,_RNvMs4_NtNtNtNtNtNtCs1B75dzsrioZ_11rust_webapi11application7service12user_service5tests33___mock_MockUserRep_UserRepository12___find_by_idNtB5_6Common11in_sequence
FNDA:0,_RNvMs4_NtNtNtNtNtNtCs1B75dzsrioZ_11rust_webapi11application7service12user_service5tests33___mock_MockUserRep_UserRepository12___find_by_idNtB5_6Common5never
FNDA:0,_RNvMs4_NtNtNtNtNtNtCs1B75dzsrioZ_11rust_webapi11application7service12user_service5tests33___mock_MockUserRep_UserRepository8___createNtB5_6Common11in_sequence
FNDA:0,_RNvMs4_NtNtNtNtNtNtCs1B75dzsrioZ_11rust_webapi11application7service12user_service5tests33___mock_MockUserRep_UserRepository8___createNtB5_6Common5never
FNDA:0,_RNvMs4_NtNtNtNtNtNtCs1B75dzsrioZ_11rust_webapi11application7service12user_service5tests33___mock_MockUserRep_UserRepository8___deleteNtB5_6Common11in_sequence
FNDA:0,_RNvMs4_NtNtNtNtNtNtCs1B75dzsrioZ_11rust_webapi11application7service12user_service5tests33___mock_MockUserRep_UserRepository8___deleteNtB5_6Common5never
FNDA:0,_RNvMs4_NtNtNtNtNtNtCs1B75dzsrioZ_11rust_webapi11application7service12user_service5tests33___mock_MockUserRep_UserRepository8___updateNtB5_6Common11in_sequence
FNDA:0,_RNvMs4_NtNtNtNtNtNtCs1B75dzsrioZ_11rust_webapi11application7service12user_service5tests33___mock_MockUserRep_UserRepository8___updateNtB5_6Common5never
FNDA:0,_RNvMs6_NtNtNtNtNtNtCs1B75dzsrioZ_11rust_webapi11application7service12user_service5tests33___mock_MockUserRep_UserRepository10___find_allNtB5_11Expectation11in_sequence
FNDA:0,_RNvMs6_NtNtNtNtNtNtCs1B75dzsrioZ_11rust_webapi11application7service12user_service5tests33___mock_MockUserRep_UserRepository10___find_allNtB5_11Expectation3new
FNDA:0,_RNvMs6_NtNtNtNtNtNtCs1B75dzsrioZ_11rust_webapi11application7service12user_service5tests33___mock_MockUserRep_UserRepository10___find_allNtB5_11Expectation4once
FNDA:0,_RNvMs6_NtNtNtNtNtNtCs1B75dzsrioZ_11rust_webapi11application7service12user_service5tests33___mock_MockUserRep_UserRepository10___find_allNtB5_11Expectation4with
FNDA:0,_RNvMs6_NtNtNtNtNtNtCs1B75dzsrioZ_11rust_webapi11application7service12user_service5tests33___mock_MockUserRep_UserRepository10___find_allNtB5_11Expectation5never
FNDA:0,_RNvMs6_NtNtNtNtNtNtCs1B75dzsrioZ_11rust_webapi11application7service12user_service5tests33___mock_MockUserRep_UserRepository12___find_by_idNtB5_11Expectation11in_sequence
FNDA:0,_RNvMs6_NtNtNtNtNtNtCs1B75dzsrioZ_11rust_webapi11application7service12user_service5tests33___mock_MockUserRep_UserRepository12___find_by_idNtB5_11Expectation3new
FNDA:0,_RNvMs6_NtNtNtNtNtNtCs1B75dzsrioZ_11rust_webapi11application7service12user_service5tests33___mock_MockUserRep_UserRepository12___find_by_idNtB5_11Expectation4once
FNDA:0,_RNvMs6_NtNtNtNtNtNtCs1B75dzsrioZ_11rust_webapi11application7service12user_service5tests33___mock_MockUserRep_UserRepository12___find_by_idNtB5_11Expectation5never
FNDA:0,_RNvMs6_NtNtNtNtNtNtCs1B75dzsrioZ_11rust_webapi11application7service12user_service5tests33___mock_MockUserRep_UserRepository8___createNtB5_11Expectation11in_sequence
FNDA:0,_RNvMs6_NtNtNtNtNtNtCs1B75dzsrioZ_11rust_webapi11application7service12user_service5tests33___mock_MockUserRep_UserRepository8___createNtB5_11Expectation3new
FNDA:0,_RNvMs6_NtNtNtNtNtNtCs1B75dzsrioZ_11rust_webapi11application7service12user_service5tests33___mock_MockUserRep_UserRepository8___createNtB5_11Expectation4once
FNDA:0,_RNvMs6_NtNtNtNtNtNtCs1B75dzsrioZ_11rust_webapi11application7service12user_service5tests33___mock_MockUserRep_UserRepository8___createNtB5_11Expectation5never
FNDA:0,_RNvMs6_NtNtNtNtNtNtCs1B75dzsrioZ_11rust_webapi11application7service12user_service5tests33___mock_MockUserRep_UserRepository8___deleteNtB5_11Expectation11in_sequence
FNDA:0,_RNvMs6_NtNtNtNtNtNtCs1B75dzsrioZ_11rust_webapi11application7service12user_service5tests33___mock_MockUserRep_UserRepository8___deleteNtB5_11Expectation3new
FNDA:0,_RNvMs6_NtNtNtNtNtNtCs1B75dzsrioZ_11rust_webapi11application7service12user_service5tests33___mock_MockUserRep_UserRepository8___deleteNtB5_11Expectation4once
FNDA:0,_RNvMs6_NtNtNtNtNtNtCs1B75dzsrioZ_11rust_webapi11application7service12user_service5tests33___mock_MockUserRep_UserRepository8___deleteNtB5_11Expectation5never
FNDA:0,_RNvMs6_NtNtNtNtNtNtCs1B75dzsrioZ_11rust_webapi11application7service12user_service5tests33___mock_MockUserRep_UserRepository8___updateNtB5_11Expectation11in_sequence
FNDA:0,_RNvMs6_NtNtNtNtNtNtCs1B75dzsrioZ_11rust_webapi11application7service12user_service5tests33___mock_MockUserRep_UserRepository8___updateNtB5_11Expectation3new
FNDA:0,_RNvMs6_NtNtNtNtNtNtCs1B75dzsrioZ_11rust_webapi11application7service12user_service5tests33___mock_MockUserRep_UserRepository8___updateNtB5_11Expectation4once
FNDA:0,_RNvMs6_NtNtNtNtNtNtCs1B75dzsrioZ_11rust_webapi11application7service12user_service5tests33___mock_MockUserRep_UserRepository8___updateNtB5_11Expectation5never
FNDA:0,_RNvMs8_NtNtNtNtNtNtCs1B75dzsrioZ_11rust_webapi11application7service12user_service5tests33___mock_MockUserRep_UserRepository10___find_allNtB5_12Expectations10checkpoint
FNDA:0,_RNvMs8_NtNtNtNtNtNtCs1B75dzsrioZ_11rust_webapi11application7service12user_service5tests33___mock_MockUserRep_UserRepository10___find_allNtB5_12Expectations3new
FNDA:0,_RNvMs8_NtNtNtNtNtNtCs1B75dzsrioZ_11rust_webapi11application7service12user_service5tests33___mock_MockUserRep_UserRepository12___find_by_idNtB5_12Expectations10checkpoint
FNDA:0,_RNvMs8_NtNtNtNtNtNtCs1B75dzsrioZ_11rust_webapi11application7service12user_service5tests33___mock_MockUserRep_UserRepository12___find_by_idNtB5_12Expectations3new
FNDA:0,_RNvMs8_NtNtNtNtNtNtCs1B75dzsrioZ_11rust_webapi11application7service12user_service5tests33___mock_MockUserRep_UserRepository8___createNtB5_12Expectations10checkpoint
FNDA:0,_RNvMs8_NtNtNtNtNtNtCs1B75dzsrioZ_11rust_webapi11application7service12user_service5tests33___mock_MockUserRep_UserRepository8___createNtB5_12Expectations3new
FNDA:0,_RNvMs8_NtNtNtNtNtNtCs1B75dzsrioZ_11rust_webapi11application7service12user_service5tests33___mock_MockUserRep_UserRepository8___deleteNtB5_12Expectations10checkpoint
FNDA:0,_RNvMs8_NtNtNtNtNtNtCs1B75dzsrioZ_11rust_webapi11application7service12user_service5tests33___mock_MockUserRep_UserRepository8___deleteNtB5_12Expectations3new
FNDA:0,_RNvMs8_NtNtNtNtNtNtCs1B75dzsrioZ_11rust_webapi11application7service12user_service5tests33___mock_MockUserRep_UserRepository8___updateNtB5_12Expectations10checkpoint
FNDA:0,_RNvMs8_NtNtNtNtNtNtCs1B75dzsrioZ_11rust_webapi11application7service12user_service5tests33___mock_MockUserRep_UserRepository8___updateNtB5_12Expectations3new
FNDA:1,_RINvMs6_NtNtNtNtNtNtCs1B75dzsrioZ_11rust_webapi11application7service12user_service5tests33___mock_MockUserRep_UserRepository10___find_allNtB6_11Expectation11return_onceNCNCNvBa_s_13test_find_all00EBi_
FNDA:0,_RNCNvMs0_NtNtNtNtNtNtCs1B75dzsrioZ_11rust_webapi11application7service12user_service5tests33___mock_MockUserRep_UserRepository10___find_allNtB7_7Matcher7matches0Bj_
FNDA:1,_RNCNvMsa_NtNtNtNtNtNtCs1B75dzsrioZ_11rust_webapi11application7service12user_service5tests33___mock_MockUserRep_UserRepository10___find_allNtB7_12Expectations4call0Bj_
FNDA:1,_RNCNvMsa_NtNtNtNtNtNtCs1B75dzsrioZ_11rust_webapi11application7service12user_service5tests33___mock_MockUserRep_UserRepository10___find_allNtB7_12Expectations4calls_0Bj_
FNDA:1,_RNCNCNvNtNtNtNtCs1B75dzsrioZ_11rust_webapi11application7service12user_service5testss_11test_create00Bd_
FNDA:1,_RNCNCNvNtNtNtNtCs1B75dzsrioZ_11rust_webapi11application7service12user_service5testss_11test_create0s_0Bd_
FNDA:1,_RNCNCNvNtNtNtNtCs1B75dzsrioZ_11rust_webapi11application7service12user_service5testss_13test_find_all00Bd_
FNDA:1,_RNCNCNvNtNtNtNtCs1B75dzsrioZ_11rust_webapi11application7service12user_service5testss_17test_update_found00Bd_
FNDA:1,_RNCNCNvNtNtNtNtCs1B75dzsrioZ_11rust_webapi11application7service12user_service5testss_17test_update_found0s0_0Bd_
FNDA:1,_RNCNCNvNtNtNtNtCs1B75dzsrioZ_11rust_webapi11application7service12user_service5testss_17test_update_found0s_0Bd_
FNDA:1,_RNCNCNvNtNtNtNtCs1B75dzsrioZ_11rust_webapi11application7service12user_service5testss_19test_delete_success00Bd_
FNDA:1,_RNCNCNvNtNtNtNtCs1B75dzsrioZ_11rust_webapi11application7service12user_service5testss_21test_delete_not_found00Bd_
FNDA:1,_RNCNCNvNtNtNtNtCs1B75dzsrioZ_11rust_webapi11application7service12user_service5testss_21test_find_by_id_found00Bd_
FNDA:1,_RNCNCNvNtNtNtNtCs1B75dzsrioZ_11rust_webapi11application7service12user_service5testss_21test_update_not_found00Bd_
FNDA:1,_RNCNCNvNtNtNtNtCs1B75dzsrioZ_11rust_webapi11application7service12user_service5testss_25test_find_by_id_not_found00Bd_
FNDA:1,_RNCNvNtNtNtNtCs1B75dzsrioZ_11rust_webapi11application7service12user_service5testss_11test_create0Bb_
FNDA:1,_RNCNvNtNtNtNtCs1B75dzsrioZ_11rust_webapi11application7service12user_service5testss_13test_find_all0Bb_
FNDA:1,_RNCNvNtNtNtNtCs1B75dzsrioZ_11rust_webapi11application7service12user_service5testss_17test_update_found0Bb_
FNDA:1,_RNCNvNtNtNtNtCs1B75dzsrioZ_11rust_webapi11application7service12user_service5testss_19test_delete_success0Bb_
FNDA:1,_RNCNvNtNtNtNtCs1B75dzsrioZ_11rust_webapi11application7service12user_service5testss_21test_delete_not_found0Bb_
FNDA:1,_RNCNvNtNtNtNtCs1B75dzsrioZ_11rust_webapi11application7service12user_service5testss_21test_find_by_id_found0Bb_
FNDA:1,_RNCNvNtNtNtNtCs1B75dzsrioZ_11rust_webapi11application7service12user_service5testss_21test_update_not_found0Bb_
FNDA:1,_RNCNvNtNtNtNtCs1B75dzsrioZ_11rust_webapi11application7service12user_service5testss_25test_find_by_id_not_found0Bb_
FNDA:4,_RNCNvXs3_NtNtNtNtCs1B75dzsrioZ_11rust_webapi11application7service12user_service5testsNtB7_11MockUserRepNtNtNtCs8Y1garwNj5t_6domain10repository15user_repository14UserRepository10find_by_id0Bf_
FNDA:1,_RNCNvXs3_NtNtNtNtCs1B75dzsrioZ_11rust_webapi11application7service12user_service5testsNtB7_11MockUserRepNtNtNtCs8Y1garwNj5t_6domain10repository15user_repository14UserRepository6create0Bf_
FNDA:2,_RNCNvXs3_NtNtNtNtCs1B75dzsrioZ_11rust_webapi11application7service12user_service5testsNtB7_11MockUserRepNtNtNtCs8Y1garwNj5t_6domain10repository15user_repository14UserRepository6delete0Bf_
FNDA:1,_RNCNvXs3_NtNtNtNtCs1B75dzsrioZ_11rust_webapi11application7service12user_service5testsNtB7_11MockUserRepNtNtNtCs8Y1garwNj5t_6domain10repository15user_repository14UserRepository6update0Bf_
FNDA:1,_RNCNvXs3_NtNtNtNtCs1B75dzsrioZ_11rust_webapi11application7service12user_service5testsNtB7_11MockUserRepNtNtNtCs8Y1garwNj5t_6domain10repository15user_repository14UserRepository8find_all0Bf_
FNDA:4,_RINvMs4_NtNtNtNtNtNtCs1B75dzsrioZ_11rust_webapi11application7service12user_service5tests33___mock_MockUserRep_UserRepository12___find_by_idNtB6_6Common4withINtNtCs9l2CZqY40TY_10predicates3ord11EqPredicateyEEBi_
FNDA:1,_RINvMs6_NtNtNtNtNtNtCs1B75dzsrioZ_11rust_webapi11application7service12user_service5tests33___mock_MockUserRep_UserRepository12___find_by_idNtB6_11Expectation11return_onceNCNCNvBa_s_17test_update_found00EBi_
FNDA:1,_RINvMs6_NtNtNtNtNtNtCs1B75dzsrioZ_11rust_webapi11application7service12user_service5tests33___mock_MockUserRep_UserRepository12___find_by_idNtB6_11Expectation11return_onceNCNCNvBa_s_21test_find_by_id_found00EBi_
FNDA:1,_RINvMs6_NtNtNtNtNtNtCs1B75dzsrioZ_11rust_webapi11application7service12user_service5tests33___mock_MockUserRep_UserRepository12___find_by_idNtB6_11Expectation11return_onceNCNCNvBa_s_21test_update_not_found00EBi_
FNDA:1,_RINvMs6_NtNtNtNtNtNtCs1B75dzsrioZ_11rust_webapi11application7service12user_service5tests33___mock_MockUserRep_UserRepository12___find_by_idNtB6_11Expectation11return_onceNCNCNvBa_s_25test_find_by_id_not_found00EBi_
FNDA:4,_RINvMs6_NtNtNtNtNtNtCs1B75dzsrioZ_11rust_webapi11application7service12user_service5tests33___mock_MockUserRep_UserRepository12___find_by_idNtB6_11Expectation4withINtNtCs9l2CZqY40TY_10predicates3ord11EqPredicateyEEBi_
FNDA:4,_RNCNvMs0_NtNtNtNtNtNtCs1B75dzsrioZ_11rust_webapi11application7service12user_service5tests33___mock_MockUserRep_UserRepository12___find_by_idNtB7_7Matcher7matches0Bj_
FNDA:4,_RNCNvMsa_NtNtNtNtNtNtCs1B75dzsrioZ_11rust_webapi11application7service12user_service5tests33___mock_MockUserRep_UserRepository12___find_by_idNtB7_12Expectations4call0Bj_
FNDA:4,_RNCNvMsa_NtNtNtNtNtNtCs1B75dzsrioZ_11rust_webapi11application7service12user_service5tests33___mock_MockUserRep_UserRepository12___find_by_idNtB7_12Expectations4calls_0Bj_
FNDA:2,_RNvMNtNtNtNtNtNtCs1B75dzsrioZ_11rust_webapi11application7service12user_service5tests33___mock_MockUserRep_UserRepository8___deleteNtB2_5Rfunc8call_mut
FNDA:2,_RNvMs0_NtNtNtNtNtNtCs1B75dzsrioZ_11rust_webapi11application7service12user_service5tests33___mock_MockUserRep_UserRepository8___deleteNtB5_7Matcher7matches
FNDA:2,_RNvMs4_NtNtNtNtNtNtCs1B75dzsrioZ_11rust_webapi11application7service12user_service5tests33___mock_MockUserRep_UserRepository8___deleteNtB5_6Common15verify_sequence
FNDA:2,_RNvMs4_NtNtNtNtNtNtCs1B75dzsrioZ_11rust_webapi11application7service12user_service5tests33___mock_MockUserRep_UserRepository8___deleteNtB5_6Common16satisfy_sequence
FNDA:2,_RNvMs4_NtNtNtNtNtNtCs1B75dzsrioZ_11rust_webapi11application7service12user_service5tests33___mock_MockUserRep_UserRepository8___deleteNtB5_6Common4call
FNDA:2,_RNvMs4_NtNtNtNtNtNtCs1B75dzsrioZ_11rust_webapi11application7service12user_service5tests33___mock_MockUserRep_UserRepository8___deleteNtB5_6Common7is_done
FNDA:2,_RNvMs4_NtNtNtNtNtNtCs1B75dzsrioZ_11rust_webapi11application7service12user_service5tests33___mock_MockUserRep_UserRepository8___deleteNtB5_6Common7matches
FNDA:2,_RNvMs6_NtNtNtNtNtNtCs1B75dzsrioZ_11rust_webapi11application7service12user_service5tests33___mock_MockUserRep_UserRepository8___deleteNtB5_11Expectation4call
FNDA:2,_RNvMs6_NtNtNtNtNtNtCs1B75dzsrioZ_11rust_webapi11application7service12user_service5tests33___mock_MockUserRep_UserRepository8___deleteNtB5_11Expectation7is_done
FNDA:2,_RNvMs6_NtNtNtNtNtNtCs1B75dzsrioZ_11rust_webapi11application7service12user_service5tests33___mock_MockUserRep_UserRepository8___deleteNtB5_11Expectation7matches
FNDA:2,_RNvMs8_NtNtNtNtNtNtCs1B75dzsrioZ_11rust_webapi11application7service12user_service5tests33___mock_MockUserRep_UserRepository8___deleteNtB5_12Expectations6expect
FNDA:2,_RNvMsa_NtNtNtNtNtNtCs1B75dzsrioZ_11rust_webapi11application7service12user_service5tests33___mock_MockUserRep_UserRepository8___deleteNtB5_12Expectations4call
FNDA:2,_RNvXs1_NtNtNtNtNtNtCs1B75dzsrioZ_11rust_webapi11application7service12user_service5tests33___mock_MockUserRep_UserRepository8___deleteNtB5_7MatcherNtNtCsfvfooZQ3Axs_4core7default7Default7default
FNDA:2,_RNvXs2_NtNtNtNtNtNtCs1B75dzsrioZ_11rust_webapi11application7service12user_service5tests33___mock_MockUserRep_UserRepository8___deleteNtB5_7MatcherNtNtCsfvfooZQ3Axs_4core3fmt7Display3fmt
FNDA:2,_RNvXs3_NtNtNtNtNtNtCs1B75dzsrioZ_11rust_webapi11application7service12user_service5tests33___mock_MockUserRep_UserRepository8___deleteNtB5_6CommonNtNtCsfvfooZQ3Axs_4core7default7Default7default
FNDA:2,_RNvXs7_NtNtNtNtNtNtCs1B75dzsrioZ_11rust_webapi11application7service12user_service5tests33___mock_MockUserRep_UserRepository8___deleteNtB5_11ExpectationNtNtCsfvfooZQ3Axs_4core7default7Default7default
FNDA:8,_RNvXs9_NtNtNtNtNtNtCs1B75dzsrioZ_11rust_webapi11application7service12user_service5tests33___mock_MockUserRep_UserRepository8___deleteNtB5_12ExpectationsNtNtCsfvfooZQ3Axs_4core7default7Default7default
FNDA:2,_RNvXs_NtNtNtNtNtNtCs1B75dzsrioZ_11rust_webapi11application7service12user_service5tests33___mock_MockUserRep_UserRepository8___deleteNtB4_5RfuncNtNtCsfvfooZQ3Axs_4core7default7Default7default
FNDA:1,_RNvXs5_NtNtNtNtNtNtCs1B75dzsrioZ_11rust_webapi11application7service12user_service5tests33___mock_MockUserRep_UserRepository10___find_allNtB5_6CommonNtNtNtCsfvfooZQ3Axs_4core3ops4drop4Drop4drop
FNDA:4,_RNvXs5_NtNtNtNtNtNtCs1B75dzsrioZ_11rust_webapi11application7service12user_service5tests33___mock_MockUserRep_UserRepository12___find_by_idNtB5_6CommonNtNtNtCsfvfooZQ3Axs_4core3ops4drop4Drop4drop
FNDA:1,_RNvXs5_NtNtNtNtNtNtCs1B75dzsrioZ_11rust_webapi11application7service12user_service5tests33___mock_MockUserRep_UserRepository8___createNtB5_6CommonNtNtNtCsfvfooZQ3Axs_4core3ops4drop4Drop4drop
FNDA:2,_RNvXs5_NtNtNtNtNtNtCs1B75dzsrioZ_11rust_webapi11application7service12user_service5tests33___mock_MockUserRep_UserRepository8___deleteNtB5_6CommonNtNtNtCsfvfooZQ3Axs_4core3ops4drop4Drop4drop
FNDA:1,_RNvXs5_NtNtNtNtNtNtCs1B75dzsrioZ_11rust_webapi11application7service12user_service5tests33___mock_MockUserRep_UserRepository8___updateNtB5_6CommonNtNtNtCsfvfooZQ3Axs_4core3ops4drop4Drop4drop
FNDA:1,_RNvMNtNtNtNtNtNtCs1B75dzsrioZ_11rust_webapi11application7service12user_service5tests33___mock_MockUserRep_UserRepository8___updateNtB2_5Rfunc8call_mut
FNDA:1,_RNvMs0_NtNtNtNtNtNtCs1B75dzsrioZ_11rust_webapi11application7service12user_service5tests33___mock_MockUserRep_UserRepository8___updateNtB5_7Matcher7matches
FNDA:1,_RNvMs4_NtNtNtNtNtNtCs1B75dzsrioZ_11rust_webapi11application7service12user_service5tests33___mock_MockUserRep_UserRepository8___updateNtB5_6Common15verify_sequence
FNDA:1,_RNvMs4_NtNtNtNtNtNtCs1B75dzsrioZ_11rust_webapi11application7service12user_service5tests33___mock_MockUserRep_UserRepository8___updateNtB5_6Common16satisfy_sequence
FNDA:1,_RNvMs4_NtNtNtNtNtNtCs1B75dzsrioZ_11rust_webapi11application7service12user_service5tests33___mock_MockUserRep_UserRepository8___updateNtB5_6Common4call
FNDA:1,_RNvMs4_NtNtNtNtNtNtCs1B75dzsrioZ_11rust_webapi11application7service12user_service5tests33___mock_MockUserRep_UserRepository8___updateNtB5_6Common7is_done
FNDA:1,_RNvMs4_NtNtNtNtNtNtCs1B75dzsrioZ_11rust_webapi11application7service12user_service5tests33___mock_MockUserRep_UserRepository8___updateNtB5_6Common7matches
FNDA:1,_RNvMs6_NtNtNtNtNtNtCs1B75dzsrioZ_11rust_webapi11application7service12user_service5tests33___mock_MockUserRep_UserRepository8___updateNtB5_11Expectation4call
FNDA:1,_RNvMs6_NtNtNtNtNtNtCs1B75dzsrioZ_11rust_webapi11application7service12user_service5tests33___mock_MockUserRep_UserRepository8___updateNtB5_11Expectation7is_done
FNDA:1,_RNvMs6_NtNtNtNtNtNtCs1B75dzsrioZ_11rust_webapi11application7service12user_service5tests33___mock_MockUserRep_UserRepository8___updateNtB5_11Expectation7matches
FNDA:1,_RNvMs8_NtNtNtNtNtNtCs1B75dzsrioZ_11rust_webapi11application7service12user_service5tests33___mock_MockUserRep_UserRepository8___updateNtB5_12Expectations6expect
FNDA:1,_RNvMsa_NtNtNtNtNtNtCs1B75dzsrioZ_11rust_webapi11application7service12user_service5tests33___mock_MockUserRep_UserRepository8___updateNtB5_12Expectations4call
FNDA:1,_RNvXs1_NtNtNtNtNtNtCs1B75dzsrioZ_11rust_webapi11application7service12user_service5tests33___mock_MockUserRep_UserRepository8___updateNtB5_7MatcherNtNtCsfvfooZQ3Axs_4core7default7Default7default
FNDA:1,_RNvXs2_NtNtNtNtNtNtCs1B75dzsrioZ_11rust_webapi11application7service12user_service5tests33___mock_MockUserRep_UserRepository8___updateNtB5_7MatcherNtNtCsfvfooZQ3Axs_4core3fmt7Display3fmt
FNDA:1,_RNvXs3_NtNtNtNtNtNtCs1B75dzsrioZ_11rust_webapi11application7service12user_service5tests33___mock_MockUserRep_UserRepository8___updateNtB5_6CommonNtNtCsfvfooZQ3Axs_4core7default7Default7default
FNDA:1,_RNvXs7_NtNtNtNtNtNtCs1B75dzsrioZ_11rust_webapi11application7service12user_service5tests33___mock_MockUserRep_UserRepository8___updateNtB5_11ExpectationNtNtCsfvfooZQ3Axs_4core7default7Default7default
FNDA:8,_RNvXs9_NtNtNtNtNtNtCs1B75dzsrioZ_11rust_webapi11application7service12user_service5tests33___mock_MockUserRep_UserRepository8___updateNtB5_12ExpectationsNtNtCsfvfooZQ3Axs_4core7default7Default7default
FNDA:1,_RNvXs_NtNtNtNtNtNtCs1B75dzsrioZ_11rust_webapi11application7service12user_service5tests33___mock_MockUserRep_UserRepository8___updateNtB4_5RfuncNtNtCsfvfooZQ3Axs_4core7default7Default7default
FNDA:2,_RINvMs4_NtNtNtNtNtNtCs1B75dzsrioZ_11rust_webapi11application7service12user_service5tests33___mock_MockUserRep_UserRepository8___deleteNtB6_6Common4withINtNtCs9l2CZqY40TY_10predicates3ord11EqPredicateyEEBi_
FNDA:1,_RINvMs6_NtNtNtNtNtNtCs1B75dzsrioZ_11rust_webapi11application7service12user_service5tests33___mock_MockUserRep_UserRepository8___deleteNtB6_11Expectation11return_onceNCNCNvBa_s_19test_delete_success00EBi_
FNDA:1,_RINvMs6_NtNtNtNtNtNtCs1B75dzsrioZ_11rust_webapi11application7service12user_service5tests33___mock_MockUserRep_UserRepository8___deleteNtB6_11Expectation11return_onceNCNCNvBa_s_21test_delete_not_found00EBi_
FNDA:2,_RINvMs6_NtNtNtNtNtNtCs1B75dzsrioZ_11rust_webapi11application7service12user_service5tests33___mock_MockUserRep_UserRepository8___deleteNtB6_11Expectation4withINtNtCs9l2CZqY40TY_10predicates3ord11EqPredicateyEEBi_
FNDA:2,_RNCNvMs0_NtNtNtNtNtNtCs1B75dzsrioZ_11rust_webapi11application7service12user_service5tests33___mock_MockUserRep_UserRepository8___deleteNtB7_7Matcher7matches0Bj_
FNDA:2,_RNCNvMsa_NtNtNtNtNtNtCs1B75dzsrioZ_11rust_webapi11application7service12user_service5tests33___mock_MockUserRep_UserRepository8___deleteNtB7_12Expectations4call0Bj_
FNDA:2,_RNCNvMsa_NtNtNtNtNtNtCs1B75dzsrioZ_11rust_webapi11application7service12user_service5tests33___mock_MockUserRep_UserRepository8___deleteNtB7_12Expectations4calls_0Bj_
FNDA:1,_RNvMNtNtNtNtNtNtCs1B75dzsrioZ_11rust_webapi11application7service12user_service5tests33___mock_MockUserRep_UserRepository10___find_allNtB2_5Rfunc8call_mut
FNDA:1,_RNvMs0_NtNtNtNtNtNtCs1B75dzsrioZ_11rust_webapi11application7service12user_service5tests33___mock_MockUserRep_UserRepository10___find_allNtB5_7Matcher7matches
FNDA:1,_RNvMs4_NtNtNtNtNtNtCs1B75dzsrioZ_11rust_webapi11application7service12user_service5tests33___mock_MockUserRep_UserRepository10___find_allNtB5_6Common15verify_sequence
FNDA:1,_RNvMs4_NtNtNtNtNtNtCs1B75dzsrioZ_11rust_webapi11application7service12user_service5tests33___mock_MockUserRep_UserRepository10___find_allNtB5_6Common16satisfy_sequence
FNDA:1,_RNvMs4_NtNtNtNtNtNtCs1B75dzsrioZ_11rust_webapi11application7service12user_service5tests33___mock_MockUserRep_UserRepository10___find_allNtB5_6Common4call
FNDA:1,_RNvMs4_NtNtNtNtNtNtCs1B75dzsrioZ_11rust_webapi11application7service12user_service5tests33___mock_MockUserRep_UserRepository10___find_allNtB5_6Common7is_done
FNDA:1,_RNvMs4_NtNtNtNtNtNtCs1B75dzsrioZ_11rust_webapi11application7service12user_service5tests33___mock_MockUserRep_UserRepository10___find_allNtB5_6Common7matches
FNDA:1,_RNvMs6_NtNtNtNtNtNtCs1B75dzsrioZ_11rust_webapi11application7service12user_service5tests33___mock_MockUserRep_UserRepository10___find_allNtB5_11Expectation4call
FNDA:1,_RNvMs6_NtNtNtNtNtNtCs1B75dzsrioZ_11rust_webapi11application7service12user_service5tests33___mock_MockUserRep_UserRepository10___find_allNtB5_11Expectation7is_done
FNDA:1,_RNvMs6_NtNtNtNtNtNtCs1B75dzsrioZ_11rust_webapi11application7service12user_service5tests33___mock_MockUserRep_UserRepository10___find_allNtB5_11Expectation7matches
FNDA:1,_RNvMs8_NtNtNtNtNtNtCs1B75dzsrioZ_11rust_webapi11application7service12user_service5tests33___mock_MockUserRep_UserRepository10___find_allNtB5_12Expectations6expect
FNDA:1,_RNvMsa_NtNtNtNtNtNtCs1B75dzsrioZ_11rust_webapi11application7service12user_service5tests33___mock_MockUserRep_UserRepository10___find_allNtB5_12Expectations4call
FNDA:1,_RNvXs1_NtNtNtNtNtNtCs1B75dzsrioZ_11rust_webapi11application7service12user_service5tests33___mock_MockUserRep_UserRepository10___find_allNtB5_7MatcherNtNtCsfvfooZQ3Axs_4core7default7Default7default
FNDA:1,_RNvXs2_NtNtNtNtNtNtCs1B75dzsrioZ_11rust_webapi11application7service12user_service5tests33___mock_MockUserRep_UserRepository10___find_allNtB5_7MatcherNtNtCsfvfooZQ3Axs_4core3fmt7Display3fmt
FNDA:1,_RNvXs3_NtNtNtNtNtNtCs1B75dzsrioZ_11rust_webapi11application7service12user_service5tests33___mock_MockUserRep_UserRepository10___find_allNtB5_6CommonNtNtCsfvfooZQ3Axs_4core7default7Default7default
FNDA:1,_RNvXs7_NtNtNtNtNtNtCs1B75dzsrioZ_11rust_webapi11application7service12user_service5tests33___mock_MockUserRep_UserRepository10___find_allNtB5_11ExpectationNtNtCsfvfooZQ3Axs_4core7default7Default7default
FNDA:8,_RNvXs9_NtNtNtNtNtNtCs1B75dzsrioZ_11rust_webapi11application7service12user_service5tests33___mock_MockUserRep_UserRepository10___find_allNtB5_12ExpectationsNtNtCsfvfooZQ3Axs_4core7default7Default7default
FNDA:1,_RNvXs_NtNtNtNtNtNtCs1B75dzsrioZ_11rust_webapi11application7service12user_service5tests33___mock_MockUserRep_UserRepository10___find_allNtB4_5RfuncNtNtCsfvfooZQ3Axs_4core7default7Default7default
FNDA:4,_RNCNvMNtNtNtCs1B75dzsrioZ_11rust_webapi11application7service12user_serviceNtB4_11UserService10find_by_id0Ba_
FNDA:2,_RNCNvMNtNtNtCs1B75dzsrioZ_11rust_webapi11application7service12user_serviceNtB4_11UserService6create0Ba_
FNDA:4,_RNCNvMNtNtNtCs1B75dzsrioZ_11rust_webapi11application7service12user_serviceNtB4_11UserService6delete0Ba_
FNDA:4,_RNCNvMNtNtNtCs1B75dzsrioZ_11rust_webapi11application7service12user_serviceNtB4_11UserService6update0Ba_
FNDA:2,_RNCNvMNtNtNtCs1B75dzsrioZ_11rust_webapi11application7service12user_serviceNtB4_11UserService8find_all0Ba_
FNDA:1,_RINvMs4_NtNtNtNtNtNtCs1B75dzsrioZ_11rust_webapi11application7service12user_service5tests33___mock_MockUserRep_UserRepository8___createNtB6_6Common5withfNCNCNvBa_s_11test_create00EBi_
FNDA:1,_RINvMs6_NtNtNtNtNtNtCs1B75dzsrioZ_11rust_webapi11application7service12user_service5tests33___mock_MockUserRep_UserRepository8___createNtB6_11Expectation11return_onceNCNCNvBa_s_11test_create0s_0EBi_
FNDA:1,_RINvMs6_NtNtNtNtNtNtCs1B75dzsrioZ_11rust_webapi11application7service12user_service5tests33___mock_MockUserRep_UserRepository8___createNtB6_11Expectation5withfNCNCNvBa_s_11test_create00EBi_
FNDA:0,_RNCNvMs0_NtNtNtNtNtNtCs1B75dzsrioZ_11rust_webapi11application7service12user_service5tests33___mock_MockUserRep_UserRepository8___createNtB7_7Matcher7matches0Bj_
FNDA:1,_RNCNvMsa_NtNtNtNtNtNtCs1B75dzsrioZ_11rust_webapi11application7service12user_service5tests33___mock_MockUserRep_UserRepository8___createNtB7_12Expectations4call0Bj_
FNDA:1,_RNCNvMsa_NtNtNtNtNtNtCs1B75dzsrioZ_11rust_webapi11application7service12user_service5tests33___mock_MockUserRep_UserRepository8___createNtB7_12Expectations4calls_0Bj_
FNDA:8,_RNvMs1_NtNtNtNtCs1B75dzsrioZ_11rust_webapi11application7service12user_service5testsNtB5_11MockUserRep3new
FNDA:1,_RNvMs2_NtNtNtNtCs1B75dzsrioZ_11rust_webapi11application7service12user_service5testsNtB5_11MockUserRep13expect_create
FNDA:2,_RNvMs2_NtNtNtNtCs1B75dzsrioZ_11rust_webapi11application7service12user_service5testsNtB5_11MockUserRep13expect_delete
FNDA:1,_RNvMs2_NtNtNtNtCs1B75dzsrioZ_11rust_webapi11application7service12user_service5testsNtB5_11MockUserRep13expect_update
FNDA:1,_RNvMs2_NtNtNtNtCs1B75dzsrioZ_11rust_webapi11application7service12user_service5testsNtB5_11MockUserRep15expect_find_all
FNDA:4,_RNvMs2_NtNtNtNtCs1B75dzsrioZ_11rust_webapi11application7service12user_service5testsNtB5_11MockUserRep17expect_find_by_id
FNDA:1,_RNvNtNtNtNtCs1B75dzsrioZ_11rust_webapi11application7service12user_service5testss_11test_create
FNDA:1,_RNvNtNtNtNtCs1B75dzsrioZ_11rust_webapi11application7service12user_service5testss_13test_find_all
FNDA:1,_RNvNtNtNtNtCs1B75dzsrioZ_11rust_webapi11application7service12user_service5testss_17test_update_found
FNDA:1,_RNvNtNtNtNtCs1B75dzsrioZ_11rust_webapi11application7service12user_service5testss_19test_delete_success
FNDA:1,_RNvNtNtNtNtCs1B75dzsrioZ_11rust_webapi11application7service12user_service5testss_21test_delete_not_found
FNDA:1,_RNvNtNtNtNtCs1B75dzsrioZ_11rust_webapi11application7service12user_service5testss_21test_find_by_id_found
FNDA:1,_RNvNtNtNtNtCs1B75dzsrioZ_11rust_webapi11application7service12user_service5testss_21test_update_not_found
FNDA:1,_RNvNtNtNtNtCs1B75dzsrioZ_11rust_webapi11application7service12user_service5testss_25test_find_by_id_not_found
FNDA:8,_RNvXNtNtNtNtCs1B75dzsrioZ_11rust_webapi11application7service12user_service5testsNtB2_11MockUserRepNtNtCsfvfooZQ3Axs_4core7default7Default7default
FNDA:4,_RNvXs3_NtNtNtNtCs1B75dzsrioZ_11rust_webapi11application7service12user_service5testsNtB5_11MockUserRepNtNtNtCs8Y1garwNj5t_6domain10repository15user_repository14UserRepository10find_by_id
FNDA:1,_RNvXs3_NtNtNtNtCs1B75dzsrioZ_11rust_webapi11application7service12user_service5testsNtB5_11MockUserRepNtNtNtCs8Y1garwNj5t_6domain10repository15user_repository14UserRepository6create
FNDA:2,_RNvXs3_NtNtNtNtCs1B75dzsrioZ_11rust_webapi11application7service12user_service5testsNtB5_11MockUserRepNtNtNtCs8Y1garwNj5t_6domain10repository15user_repository14UserRepository6delete
FNDA:1,_RNvXs3_NtNtNtNtCs1B75dzsrioZ_11rust_webapi11application7service12user_service5testsNtB5_11MockUserRepNtNtNtCs8Y1garwNj5t_6domain10repository15user_repository14UserRepository6update
FNDA:1,_RNvXs3_NtNtNtNtCs1B75dzsrioZ_11rust_webapi11application7service12user_service5testsNtB5_11MockUserRepNtNtNtCs8Y1garwNj5t_6domain10repository15user_repository14UserRepository8find_all
FNDA:8,_RNvXs_NtNtNtNtCs1B75dzsrioZ_11rust_webapi11application7service12user_service5testsNtB4_26MockUserRep_UserRepositoryNtNtCsfvfooZQ3Axs_4core7default7Default7default
FNDA:1,_RINvMs4_NtNtNtNtNtNtCs1B75dzsrioZ_11rust_webapi11application7service12user_service5tests33___mock_MockUserRep_UserRepository8___updateNtB6_6Common5withfNCNCNvBa_s_17test_update_found0s_0EBi_
FNDA:1,_RINvMs6_NtNtNtNtNtNtCs1B75dzsrioZ_11rust_webapi11application7service12user_service5tests33___mock_MockUserRep_UserRepository8___updateNtB6_11Expectation11return_onceNCNCNvBa_s_17test_update_found0s0_0EBi_
FNDA:1,_RINvMs6_NtNtNtNtNtNtCs1B75dzsrioZ_11rust_webapi11application7service12user_service5tests33___mock_MockUserRep_UserRepository8___updateNtB6_11Expectation5withfNCNCNvBa_s_17test_update_found0s_0EBi_
FNDA:0,_RNCNvMs0_NtNtNtNtNtNtCs1B75dzsrioZ_11rust_webapi11application7service12user_service5tests33___mock_MockUserRep_UserRepository8___updateNtB7_7Matcher7matches0Bj_
FNDA:1,_RNCNvMsa_NtNtNtNtNtNtCs1B75dzsrioZ_11rust_webapi11application7service12user_service5tests33___mock_MockUserRep_UserRepository8___updateNtB7_12Expectations4call0Bj_
FNDA:1,_RNCNvMsa_NtNtNtNtNtNtCs1B75dzsrioZ_11rust_webapi11application7service12user_service5tests33___mock_MockUserRep_UserRepository8___updateNtB7_12Expectations4calls_0Bj_
FNDA:1,_RNvMNtNtNtNtNtNtCs1B75dzsrioZ_11rust_webapi11application7service12user_service5tests33___mock_MockUserRep_UserRepository8___createNtB2_5Rfunc8call_mut
FNDA:1,_RNvMs0_NtNtNtNtNtNtCs1B75dzsrioZ_11rust_webapi11application7service12user_service5tests33___mock_MockUserRep_UserRepository8___createNtB5_7Matcher7matches
FNDA:1,_RNvMs4_NtNtNtNtNtNtCs1B75dzsrioZ_11rust_webapi11application7service12user_service5tests33___mock_MockUserRep_UserRepository8___createNtB5_6Common15verify_sequence
FNDA:1,_RNvMs4_NtNtNtNtNtNtCs1B75dzsrioZ_11rust_webapi11application7service12user_service5tests33___mock_MockUserRep_UserRepository8___createNtB5_6Common16satisfy_sequence
FNDA:1,_RNvMs4_NtNtNtNtNtNtCs1B75dzsrioZ_11rust_webapi11application7service12user_service5tests33___mock_MockUserRep_UserRepository8___createNtB5_6Common4call
FNDA:1,_RNvMs4_NtNtNtNtNtNtCs1B75dzsrioZ_11rust_webapi11application7service12user_service5tests33___mock_MockUserRep_UserRepository8___createNtB5_6Common7is_done
FNDA:1,_RNvMs4_NtNtNtNtNtNtCs1B75dzsrioZ_11rust_webapi11application7service12user_service5tests33___mock_MockUserRep_UserRepository8___createNtB5_6Common7matches
FNDA:1,_RNvMs6_NtNtNtNtNtNtCs1B75dzsrioZ_11rust_webapi11application7service12user_service5tests33___mock_MockUserRep_UserRepository8___createNtB5_11Expectation4call
FNDA:1,_RNvMs6_NtNtNtNtNtNtCs1B75dzsrioZ_11rust_webapi11application7service12user_service5tests33___mock_MockUserRep_UserRepository8___createNtB5_11Expectation7is_done
FNDA:1,_RNvMs6_NtNtNtNtNtNtCs1B75dzsrioZ_11rust_webapi11application7service12user_service5tests33___mock_MockUserRep_UserRepository8___createNtB5_11Expectation7matches
FNDA:1,_RNvMs8_NtNtNtNtNtNtCs1B75dzsrioZ_11rust_webapi11application7service12user_service5tests33___mock_MockUserRep_UserRepository8___createNtB5_12Expectations6expect
FNDA:1,_RNvMsa_NtNtNtNtNtNtCs1B75dzsrioZ_11rust_webapi11application7service12user_service5tests33___mock_MockUserRep_UserRepository8___createNtB5_12Expectations4call
FNDA:1,_RNvXs1_NtNtNtNtNtNtCs1B75dzsrioZ_11rust_webapi11application7service12user_service5tests33___mock_MockUserRep_UserRepository8___createNtB5_7MatcherNtNtCsfvfooZQ3Axs_4core7default7Default7default
FNDA:1,_RNvXs2_NtNtNtNtNtNtCs1B75dzsrioZ_11rust_webapi11application7service12user_service5tests33___mock_MockUserRep_UserRepository8___createNtB5_7MatcherNtNtCsfvfooZQ3Axs_4core3fmt7Display3fmt
FNDA:1,_RNvXs3_NtNtNtNtNtNtCs1B75dzsrioZ_11rust_webapi11application7service12user_service5tests33___mock_MockUserRep_UserRepository8___createNtB5_6CommonNtNtCsfvfooZQ3Axs_4core7default7Default7default
FNDA:1,_RNvXs7_NtNtNtNtNtNtCs1B75dzsrioZ_11rust_webapi11application7service12user_service5tests33___mock_MockUserRep_UserRepository8___createNtB5_11ExpectationNtNtCsfvfooZQ3Axs_4core7default7Default7default
FNDA:8,_RNvXs9_NtNtNtNtNtNtCs1B75dzsrioZ_11rust_webapi11application7service12user_service5tests33___mock_MockUserRep_UserRepository8___createNtB5_12ExpectationsNtNtCsfvfooZQ3Axs_4core7default7Default7default
FNDA:1,_RNvXs_NtNtNtNtNtNtCs1B75dzsrioZ_11rust_webapi11application7service12user_service5tests33___mock_MockUserRep_UserRepository8___createNtB4_5RfuncNtNtCsfvfooZQ3Axs_4core7default7Default7default
FNDA:4,_RNvMNtNtNtCs1B75dzsrioZ_11rust_webapi11application7service12user_serviceNtB2_11UserService10find_by_id
FNDA:16,_RNvMNtNtNtCs1B75dzsrioZ_11rust_webapi11application7service12user_serviceNtB2_11UserService3new
FNDA:2,_RNvMNtNtNtCs1B75dzsrioZ_11rust_webapi11application7service12user_serviceNtB2_11UserService6create
FNDA:4,_RNvMNtNtNtCs1B75dzsrioZ_11rust_webapi11application7service12user_serviceNtB2_11UserService6delete
FNDA:4,_RNvMNtNtNtCs1B75dzsrioZ_11rust_webapi11application7service12user_serviceNtB2_11UserService6update
FNDA:2,_RNvMNtNtNtCs1B75dzsrioZ_11rust_webapi11application7service12user_serviceNtB2_11UserService8find_all
FNF:40
FNH:40
DA:11,16
DA:12,16
DA:13,16
DA:15,2
DA:16,2
DA:17,2
DA:18,2
DA:19,2
DA:21,4
DA:22,4
DA:23,4
DA:24,2
DA:25,2
DA:26,2
DA:27,2
DA:28,4
DA:29,4
DA:31,2
DA:32,2
DA:33,2
DA:34,2
DA:35,2
DA:36,2
DA:37,2
DA:39,4
DA:40,4
DA:41,2
DA:42,2
DA:43,2
DA:44,2
DA:45,2
DA:46,2
DA:47,2
DA:48,2
DA:49,2
DA:50,2
DA:51,2
DA:53,2
DA:54,2
DA:56,4
DA:58,4
DA:59,4
DA:60,4
DA:61,2
DA:62,2
DA:63,2
DA:64,2
DA:65,4
DA:66,4
DA:76,194
DA:77,194
DA:78,194
DA:79,194
DA:80,194
DA:81,194
DA:82,194
DA:83,194
DA:84,194
DA:85,194
DA:86,194
DA:89,1
DA:90,1
DA:91,1
DA:92,1
DA:93,1
DA:94,1
DA:95,1
DA:96,1
DA:97,1
DA:98,1
DA:99,1
DA:100,1
DA:101,1
DA:102,1
DA:103,1
DA:104,1
DA:105,1
DA:106,1
DA:107,1
DA:110,1
DA:111,1
DA:112,1
DA:113,1
DA:114,1
DA:115,1
DA:116,1
DA:117,1
DA:118,1
DA:119,1
DA:120,1
DA:121,1
DA:122,1
DA:123,1
DA:124,1
DA:125,1
DA:126,1
DA:127,1
DA:128,1
DA:131,1
DA:132,1
DA:133,1
DA:134,1
DA:135,1
DA:136,1
DA:137,1
DA:138,1
DA:139,1
DA:140,1
DA:141,1
DA:144,1
DA:145,1
DA:146,1
DA:147,1
DA:148,1
DA:149,1
DA:150,1
DA:151,1
DA:152,1
DA:153,1
DA:154,1
DA:155,1
DA:156,1
DA:157,1
DA:158,1
DA:159,1
DA:160,1
DA:161,1
DA:162,1
DA:163,1
DA:164,1
DA:165,1
DA:168,1
DA:169,1
DA:170,1
DA:171,1
DA:172,1
DA:173,1
DA:174,1
DA:175,1
DA:176,1
DA:177,1
DA:178,1
DA:179,1
DA:180,1
DA:181,1
DA:182,1
DA:183,1
DA:184,1
DA:185,1
DA:186,1
DA:187,1
DA:188,1
DA:189,1
DA:190,1
DA:191,1
DA:192,1
DA:193,1
DA:194,1
DA:195,1
DA:196,1
DA:197,1
DA:198,1
DA:199,1
DA:200,1
DA:201,1
DA:202,1
DA:205,1
DA:206,1
DA:207,1
DA:208,1
DA:209,1
DA:210,1
DA:211,1
DA:212,1
DA:213,1
DA:214,1
DA:215,1
DA:216,1
DA:217,1
DA:218,1
DA:219,1
DA:220,1
DA:223,1
DA:224,1
DA:225,1
DA:226,1
DA:227,1
DA:228,1
DA:229,1
DA:230,1
DA:231,1
DA:232,1
DA:233,1
DA:236,1
DA:237,1
DA:238,1
DA:239,1
DA:240,1
DA:241,1
DA:242,1
DA:243,1
DA:244,1
DA:245,1
DA:246,1
BRF:0
BRH:0
LF:351
LH:351
end_of_record
SF:/Users/kentishi/rust_webapi/src/infrastructure/auth/keycloak.rs
FN:169,_RNCNCNvMs3_NtNtNtCs1B75dzsrioZ_11rust_webapi14infrastructure4auth8keycloakNtB9_12KeycloakAuth12verify_token00Bf_
FN:154,_RNCNvMs3_NtNtNtCs1B75dzsrioZ_11rust_webapi14infrastructure4auth8keycloakNtB7_12KeycloakAuth12verify_token0Bd_
FN:199,_RNCNvNtNtNtCs1B75dzsrioZ_11rust_webapi14infrastructure4auth8keycloak17base64_url_decode0B9_
FN:114,_RNvMs2_NtNtNtCs1B75dzsrioZ_11rust_webapi14infrastructure4auth8keycloakNtB5_14KeycloakConfig12get_jwks_url
FN:95,_RNvMs2_NtNtNtCs1B75dzsrioZ_11rust_webapi14infrastructure4auth8keycloakNtB5_14KeycloakConfig3new
FN:103,_RNvMs2_NtNtNtCs1B75dzsrioZ_11rust_webapi14infrastructure4auth8keycloakNtB5_14KeycloakConfig8from_env
FN:154,_RNvMs3_NtNtNtCs1B75dzsrioZ_11rust_webapi14infrastructure4auth8keycloakNtB5_12KeycloakAuth12verify_token
FN:147,_RNvMs3_NtNtNtCs1B75dzsrioZ_11rust_webapi14infrastructure4auth8keycloakNtB5_12KeycloakAuth3new
FN:187,_RNvNtNtNtCs1B75dzsrioZ_11rust_webapi14infrastructure4auth8keycloak17base64_url_decode
FN:21,_RNvXNtNtNtCs1B75dzsrioZ_11rust_webapi14infrastructure4auth8keycloakNtB2_13KeycloakErrorNtNtCsfvfooZQ3Axs_4core3fmt7Display3fmt
FN:35,_RNvXs0_NtNtNtCs1B75dzsrioZ_11rust_webapi14infrastructure4auth8keycloakNtB5_13KeycloakErrorINtNtCsfvfooZQ3Axs_4core7convert4FromNtNtCs8b8NN9apKqU_12jsonwebtoken6errors5ErrorE4from
FN:41,_RNvXs1_NtNtNtCs1B75dzsrioZ_11rust_webapi14infrastructure4auth8keycloakNtB5_13KeycloakErrorINtNtCsfvfooZQ3Axs_4core7convert4FromNtNtCsaxOLyVLDDEe_7reqwest5error5ErrorE4from
FNDA:0,_RNCNCNvMs3_NtNtNtCs1B75dzsrioZ_11rust_webapi14infrastructure4auth8keycloakNtB9_12KeycloakAuth12verify_token00Bf_
FNDA:0,_RNCNvMs3_NtNtNtCs1B75dzsrioZ_11rust_webapi14infrastructure4auth8keycloakNtB7_12KeycloakAuth12verify_token0Bd_
FNDA:0,_RNCNvNtNtNtCs1B75dzsrioZ_11rust_webapi14infrastructure4auth8keycloak17base64_url_decode0B9_
FNDA:0,_RNvMs2_NtNtNtCs1B75dzsrioZ_11rust_webapi14infrastructure4auth8keycloakNtB5_14KeycloakConfig12get_jwks_url
FNDA:0,_RNvMs2_NtNtNtCs1B75dzsrioZ_11rust_webapi14infrastructure4auth8keycloakNtB5_14KeycloakConfig3new
FNDA:0,_RNvMs2_NtNtNtCs1B75dzsrioZ_11rust_webapi14infrastructure4auth8keycloakNtB5_14KeycloakConfig8from_env
FNDA:0,_RNvMs3_NtNtNtCs1B75dzsrioZ_11rust_webapi14infrastructure4auth8keycloakNtB5_12KeycloakAuth12verify_token
FNDA:0,_RNvMs3_NtNtNtCs1B75dzsrioZ_11rust_webapi14infrastructure4auth8keycloakNtB5_12KeycloakAuth3new
FNDA:0,_RNvNtNtNtCs1B75dzsrioZ_11rust_webapi14infrastructure4auth8keycloak17base64_url_decode
FNDA:0,_RNvXNtNtNtCs1B75dzsrioZ_11rust_webapi14infrastructure4auth8keycloakNtB2_13KeycloakErrorNtNtCsfvfooZQ3Axs_4core3fmt7Display3fmt
FNDA:0,_RNvXs0_NtNtNtCs1B75dzsrioZ_11rust_webapi14infrastructure4auth8keycloakNtB5_13KeycloakErrorINtNtCsfvfooZQ3Axs_4core7convert4FromNtNtCs8b8NN9apKqU_12jsonwebtoken6errors5ErrorE4from
FNDA:0,_RNvXs1_NtNtNtCs1B75dzsrioZ_11rust_webapi14infrastructure4auth8keycloakNtB5_13KeycloakErrorINtNtCsfvfooZQ3Axs_4core7convert4FromNtNtCsaxOLyVLDDEe_7reqwest5error5ErrorE4from
FNF:12
FNH:0
DA:21,0
DA:22,0
DA:23,0
DA:24,0
DA:25,0
DA:26,0
DA:27,0
DA:29,0
DA:35,0
DA:36,0
DA:37,0
DA:41,0
DA:42,0
DA:43,0
DA:95,0
DA:96,0
DA:97,0
DA:98,0
DA:99,0
DA:100,0
DA:101,0
DA:103,0
DA:104,0
DA:105,0
DA:106,0
DA:107,0
DA:108,0
DA:109,0
DA:110,0
DA:111,0
DA:112,0
DA:114,0
DA:115,0
DA:116,0
DA:117,0
DA:118,0
DA:119,0
DA:147,0
DA:148,0
DA:149,0
DA:150,0
DA:151,0
DA:152,0
DA:154,0
DA:155,0
DA:156,0
DA:157,0
DA:158,0
DA:159,0
DA:160,0
DA:161,0
DA:164,0
DA:165,0
DA:168,0
DA:169,0
DA:170,0
DA:174,0
DA:175,0
DA:176,0
DA:177,0
DA:179,0
DA:180,0
DA:182,0
DA:183,0
DA:187,0
DA:188,0
DA:189,0
DA:190,0
DA:191,0
DA:192,0
DA:193,0
DA:194,0
DA:196,0
DA:197,0
DA:198,0
DA:199,0
DA:200,0
BRF:0
BRH:0
LF:80
LH:0
end_of_record
SF:/Users/kentishi/rust_webapi/src/infrastructure/auth/middleware.rs
FN:49,_RNCNCNvXs0_NtNtNtCs1B75dzsrioZ_11rust_webapi14infrastructure4auth10middlewareNtB9_12KeycloakUserNtNtCsj6Wb4gJ4HNH_9actix_web7extract11FromRequest12from_request00Bf_
FN:64,_RNCNCNvXs0_NtNtNtCs1B75dzsrioZ_11rust_webapi14infrastructure4auth10middlewareNtB9_12KeycloakUserNtNtCsj6Wb4gJ4HNH_9actix_web7extract11FromRequest12from_request0s0_0Bf_
FN:56,_RNCNCNvXs0_NtNtNtCs1B75dzsrioZ_11rust_webapi14infrastructure4auth10middlewareNtB9_12KeycloakUserNtNtCsj6Wb4gJ4HNH_9actix_web7extract11FromRequest12from_request0s_0Bf_
FN:46,_RNCNvXs0_NtNtNtCs1B75dzsrioZ_11rust_webapi14infrastructure4auth10middlewareNtB7_12KeycloakUserNtNtCsj6Wb4gJ4HNH_9actix_web7extract11FromRequest12from_request0Bd_
FN:22,_RNvXNtNtNtCs1B75dzsrioZ_11rust_webapi14infrastructure4auth10middlewareNtB2_9AuthErrorNtNtCsfvfooZQ3Axs_4core3fmt7Display3fmt
FN:43,_RNvXs0_NtNtNtCs1B75dzsrioZ_11rust_webapi14infrastructure4auth10middlewareNtB5_12KeycloakUserNtNtCsj6Wb4gJ4HNH_9actix_web7extract11FromRequest12from_request
FN:31,_RNvXs_NtNtNtCs1B75dzsrioZ_11rust_webapi14infrastructure4auth10middlewareNtB4_9AuthErrorNtNtNtCsj6Wb4gJ4HNH_9actix_web5error14response_error13ResponseError14error_response
FNDA:0,_RNCNCNvXs0_NtNtNtCs1B75dzsrioZ_11rust_webapi14infrastructure4auth10middlewareNtB9_12KeycloakUserNtNtCsj6Wb4gJ4HNH_9actix_web7extract11FromRequest12from_request00Bf_
FNDA:0,_RNCNCNvXs0_NtNtNtCs1B75dzsrioZ_11rust_webapi14infrastructure4auth10middlewareNtB9_12KeycloakUserNtNtCsj6Wb4gJ4HNH_9actix_web7extract11FromRequest12from_request0s0_0Bf_
FNDA:0,_RNCNCNvXs0_NtNtNtCs1B75dzsrioZ_11rust_webapi14infrastructure4auth10middlewareNtB9_12KeycloakUserNtNtCsj6Wb4gJ4HNH_9actix_web7extract11FromRequest12from_request0s_0Bf_
FNDA:0,_RNCNvXs0_NtNtNtCs1B75dzsrioZ_11rust_webapi14infrastructure4auth10middlewareNtB7_12KeycloakUserNtNtCsj6Wb4gJ4HNH_9actix_web7extract11FromRequest12from_request0Bd_
FNDA:0,_RNvXNtNtNtCs1B75dzsrioZ_11rust_webapi14infrastructure4auth10middlewareNtB2_9AuthErrorNtNtCsfvfooZQ3Axs_4core3fmt7Display3fmt
FNDA:0,_RNvXs0_NtNtNtCs1B75dzsrioZ_11rust_webapi14infrastructure4auth10middlewareNtB5_12KeycloakUserNtNtCsj6Wb4gJ4HNH_9actix_web7extract11FromRequest12from_request
FNDA:0,_RNvXs_NtNtNtCs1B75dzsrioZ_11rust_webapi14infrastructure4auth10middlewareNtB4_9AuthErrorNtNtNtCsj6Wb4gJ4HNH_9actix_web5error14response_error13ResponseError14error_response
FNF:7
FNH:0
DA:22,0
DA:23,0
DA:24,0
DA:25,0
DA:27,0
DA:31,0
DA:32,0
DA:33,0
DA:34,0
DA:36,0
DA:43,0
DA:44,0
DA:45,0
DA:46,0
DA:48,0
DA:49,0
DA:50,0
DA:51,0
DA:52,0
DA:55,0
DA:56,0
DA:57,0
DA:58,0
DA:59,0
DA:62,0
DA:63,0
DA:64,0
DA:65,0
DA:66,0
DA:67,0
DA:68,0
DA:70,0
DA:71,0
DA:72,0
DA:75,0
DA:76,0
DA:77,0
DA:78,0
DA:79,0
BRF:0
BRH:0
LF:47
LH:0
end_of_record
SF:/Users/kentishi/rust_webapi/src/infrastructure/logger/actix_logger.rs
FN:10,_RNCNvNtNtNtCs1B75dzsrioZ_11rust_webapi14infrastructure6logger12actix_logger11json_logger0B9_
FN:8,_RNvNtNtNtCs1B75dzsrioZ_11rust_webapi14infrastructure6logger12actix_logger11json_logger
FNDA:0,_RNCNvNtNtNtCs1B75dzsrioZ_11rust_webapi14infrastructure6logger12actix_logger11json_logger0B9_
FNDA:0,_RNvNtNtNtCs1B75dzsrioZ_11rust_webapi14infrastructure6logger12actix_logger11json_logger
FNF:2
FNH:0
DA:8,0
DA:9,0
DA:10,0
DA:11,0
DA:12,0
DA:13,0
DA:14,0
DA:15,0
DA:16,0
DA:17,0
DA:18,0
DA:19,0
DA:20,0
DA:21,0
DA:22,0
DA:23,0
DA:24,0
DA:25,0
DA:26,0
DA:27,0
DA:28,0
DA:29,0
DA:30,0
DA:31,0
BRF:0
BRH:0
LF:26
LH:0
end_of_record
SF:/Users/kentishi/rust_webapi/src/infrastructure/logger/mod.rs
FN:12,_RNvNtNtCs1B75dzsrioZ_11rust_webapi14infrastructure6logger16init_json_logger
FN:47,_RNvNtNtCs1B75dzsrioZ_11rust_webapi14infrastructure6logger20init_terminal_logger
FNDA:0,_RNvNtNtCs1B75dzsrioZ_11rust_webapi14infrastructure6logger16init_json_logger
FNDA:0,_RNvNtNtCs1B75dzsrioZ_11rust_webapi14infrastructure6logger20init_terminal_logger
FNF:2
FNH:0
DA:12,0
DA:13,0
DA:14,0
DA:15,0
DA:16,0
DA:17,0
DA:18,0
DA:19,0
DA:20,0
DA:21,0
DA:22,0
DA:23,0
DA:24,0
DA:25,0
DA:26,0
DA:27,0
DA:28,0
DA:29,0
DA:30,0
DA:31,0
DA:32,0
DA:33,0
DA:34,0
DA:35,0
DA:36,0
DA:37,0
DA:38,0
DA:39,0
DA:40,0
DA:41,0
DA:42,0
DA:43,0
DA:47,0
DA:51,0
DA:52,0
DA:53,0
DA:54,0
DA:55,0
DA:56,0
DA:57,0
DA:58,0
DA:59,0
DA:60,0
DA:61,0
DA:62,0
DA:63,0
DA:64,0
DA:65,0
DA:66,0
DA:67,0
DA:68,0
DA:69,0
DA:70,0
DA:71,0
DA:72,0
DA:73,0
DA:74,0
BRF:0
BRH:0
LF:57
LH:0
end_of_record
SF:/Users/kentishi/rust_webapi/src/infrastructure/metrics/mod.rs
FN:29,_RNvNtNtCs1B75dzsrioZ_11rust_webapi14infrastructure7metrics12init_metrics
FN:51,_RNCNvNtNtCs1B75dzsrioZ_11rust_webapi14infrastructure7metrics15metrics_handler0B7_
FN:51,_RNvNtNtCs1B75dzsrioZ_11rust_webapi14infrastructure7metrics15metrics_handler
FN:41,_RNvNtNtCs1B75dzsrioZ_11rust_webapi14infrastructure7metrics23increment_error_counter
FN:45,_RNvNtNtCs1B75dzsrioZ_11rust_webapi14infrastructure7metrics24observe_request_duration
FN:37,_RNvNtNtCs1B75dzsrioZ_11rust_webapi14infrastructure7metrics25increment_success_counter
FNDA:0,_RNvNtNtCs1B75dzsrioZ_11rust_webapi14infrastructure7metrics12init_metrics
FNDA:1,_RNCNvNtNtCs1B75dzsrioZ_11rust_webapi14infrastructure7metrics15metrics_handler0B7_
FNDA:1,_RNvNtNtCs1B75dzsrioZ_11rust_webapi14infrastructure7metrics15metrics_handler
FNDA:13,_RNvNtNtCs1B75dzsrioZ_11rust_webapi14infrastructure7metrics23increment_error_counter
FNDA:1,_RNvNtNtCs1B75dzsrioZ_11rust_webapi14infrastructure7metrics24observe_request_duration
FNDA:19,_RNvNtNtCs1B75dzsrioZ_11rust_webapi14infrastructure7metrics25increment_success_counter
FNF:6
FNH:5
DA:29,0
DA:30,0
DA:31,0
DA:32,0
DA:33,0
DA:34,0
DA:35,0
DA:37,19
DA:38,19
DA:39,19
DA:41,13
DA:42,13
DA:43,13
DA:45,1
DA:46,1
DA:47,1
DA:48,1
DA:49,1
DA:51,1
DA:52,1
DA:53,1
DA:54,1
DA:55,1
DA:56,1
DA:57,1
DA:58,1
DA:59,1
DA:60,1
BRF:0
BRH:0
LF:29
LH:22
end_of_record
SF:/Users/kentishi/rust_webapi/src/infrastructure/repository/item_repository.rs
FN:75,_RNCNCNvXs1_NtNtNtCs1B75dzsrioZ_11rust_webapi14infrastructure10repository15item_repositoryNtB9_22PostgresItemRepositoryNtNtNtCs8Y1garwNj5t_6domain10repository15item_repository14ItemRepository8find_all00Bf_
FN:28,_RNCNvXs0_NtNtNtCs1B75dzsrioZ_11rust_webapi14infrastructure10repository15item_repositoryNtB7_22InMemoryItemRepositoryNtNtNtCs8Y1garwNj5t_6domain10repository15item_repository14ItemRepository10find_by_id0Bd_
FN:33,_RNCNvXs0_NtNtNtCs1B75dzsrioZ_11rust_webapi14infrastructure10repository15item_repositoryNtB7_22InMemoryItemRepositoryNtNtNtCs8Y1garwNj5t_6domain10repository15item_repository14ItemRepository6create0Bd_
FN:49,_RNCNvXs0_NtNtNtCs1B75dzsrioZ_11rust_webapi14infrastructure10repository15item_repositoryNtB7_22InMemoryItemRepositoryNtNtNtCs8Y1garwNj5t_6domain10repository15item_repository14ItemRepository6delete0Bd_
FN:39,_RNCNvXs0_NtNtNtCs1B75dzsrioZ_11rust_webapi14infrastructure10repository15item_repositoryNtB7_22InMemoryItemRepositoryNtNtNtCs8Y1garwNj5t_6domain10repository15item_repository14ItemRepository6update0Bd_
FN:23,_RNCNvXs0_NtNtNtCs1B75dzsrioZ_11rust_webapi14infrastructure10repository15item_repositoryNtB7_22InMemoryItemRepositoryNtNtNtCs8Y1garwNj5t_6domain10repository15item_repository14ItemRepository8find_all0Bd_
FN:89,_RNCNvXs1_NtNtNtCs1B75dzsrioZ_11rust_webapi14infrastructure10repository15item_repositoryNtB7_22PostgresItemRepositoryNtNtNtCs8Y1garwNj5t_6domain10repository15item_repository14ItemRepository10find_by_id0Bd_
FN:109,_RNCNvXs1_NtNtNtCs1B75dzsrioZ_11rust_webapi14infrastructure10repository15item_repositoryNtB7_22PostgresItemRepositoryNtNtNtCs8Y1garwNj5t_6domain10repository15item_repository14ItemRepository6create0Bd_
FN:156,_RNCNvXs1_NtNtNtCs1B75dzsrioZ_11rust_webapi14infrastructure10repository15item_repositoryNtB7_22PostgresItemRepositoryNtNtNtCs8Y1garwNj5t_6domain10repository15item_repository14ItemRepository6delete0Bd_
FN:132,_RNCNvXs1_NtNtNtCs1B75dzsrioZ_11rust_webapi14infrastructure10repository15item_repositoryNtB7_22PostgresItemRepositoryNtNtNtCs8Y1garwNj5t_6domain10repository15item_repository14ItemRepository6update0Bd_
FN:67,_RNCNvXs1_NtNtNtCs1B75dzsrioZ_11rust_webapi14infrastructure10repository15item_repositoryNtB7_22PostgresItemRepositoryNtNtNtCs8Y1garwNj5t_6domain10repository15item_repository14ItemRepository8find_all0Bd_
FN:14,_RNvMNtNtNtCs1B75dzsrioZ_11rust_webapi14infrastructure10repository15item_repositoryNtB2_22InMemoryItemRepository3new
FN:60,_RNvMs_NtNtNtCs1B75dzsrioZ_11rust_webapi14infrastructure10repository15item_repositoryNtB4_22PostgresItemRepository3new
FN:31,_RNvXs0_NtNtNtCs1B75dzsrioZ_11rust_webapi14infrastructure10repository15item_repositoryNtB5_22InMemoryItemRepositoryNtNtNtCs8Y1garwNj5t_6domain10repository15item_repository14ItemRepository10find_by_id
FN:37,_RNvXs0_NtNtNtCs1B75dzsrioZ_11rust_webapi14infrastructure10repository15item_repositoryNtB5_22InMemoryItemRepositoryNtNtNtCs8Y1garwNj5t_6domain10repository15item_repository14ItemRepository6create
FN:52,_RNvXs0_NtNtNtCs1B75dzsrioZ_11rust_webapi14infrastructure10repository15item_repositoryNtB5_22InMemoryItemRepositoryNtNtNtCs8Y1garwNj5t_6domain10repository15item_repository14ItemRepository6delete
FN:47,_RNvXs0_NtNtNtCs1B75dzsrioZ_11rust_webapi14infrastructure10repository15item_repositoryNtB5_22InMemoryItemRepositoryNtNtNtCs8Y1garwNj5t_6domain10repository15item_repository14ItemRepository6update
FN:26,_RNvXs0_NtNtNtCs1B75dzsrioZ_11rust_webapi14infrastructure10repository15item_repositoryNtB5_22InMemoryItemRepositoryNtNtNtCs8Y1garwNj5t_6domain10repository15item_repository14ItemRepository8find_all
FN:107,_RNvXs1_NtNtNtCs1B75dzsrioZ_11rust_webapi14infrastructure10repository15item_repositoryNtB5_22PostgresItemRepositoryNtNtNtCs8Y1garwNj5t_6domain10repository15item_repository14ItemRepository10find_by_id
FN:130,_RNvXs1_NtNtNtCs1B75dzsrioZ_11rust_webapi14infrastructure10repository15item_repositoryNtB5_22PostgresItemRepositoryNtNtNtCs8Y1garwNj5t_6domain10repository15item_repository14ItemRepository6create
FN:169,_RNvXs1_NtNtNtCs1B75dzsrioZ_11rust_webapi14infrastructure10repository15item_repositoryNtB5_22PostgresItemRepositoryNtNtNtCs8Y1garwNj5t_6domain10repository15item_repository14ItemRepository6delete
FN:154,_RNvXs1_NtNtNtCs1B75dzsrioZ_11rust_webapi14infrastructure10repository15item_repositoryNtB5_22PostgresItemRepositoryNtNtNtCs8Y1garwNj5t_6domain10repository15item_repository14ItemRepository6update
FN:87,_RNvXs1_NtNtNtCs1B75dzsrioZ_11rust_webapi14infrastructure10repository15item_repositoryNtB5_22PostgresItemRepositoryNtNtNtCs8Y1garwNj5t_6domain10repository15item_repository14ItemRepository8find_all
FNDA:0,_RNCNCNvXs1_NtNtNtCs1B75dzsrioZ_11rust_webapi14infrastructure10repository15item_repositoryNtB9_22PostgresItemRepositoryNtNtNtCs8Y1garwNj5t_6domain10repository15item_repository14ItemRepository8find_all00Bf_
FNDA:0,_RNCNvXs0_NtNtNtCs1B75dzsrioZ_11rust_webapi14infrastructure10repository15item_repositoryNtB7_22InMemoryItemRepositoryNtNtNtCs8Y1garwNj5t_6domain10repository15item_repository14ItemRepository10find_by_id0Bd_
FNDA:0,_RNCNvXs0_NtNtNtCs1B75dzsrioZ_11rust_webapi14infrastructure10repository15item_repositoryNtB7_22InMemoryItemRepositoryNtNtNtCs8Y1garwNj5t_6domain10repository15item_repository14ItemRepository6create0Bd_
FNDA:0,_RNCNvXs0_NtNtNtCs1B75dzsrioZ_11rust_webapi14infrastructure10repository15item_repositoryNtB7_22InMemoryItemRepositoryNtNtNtCs8Y1garwNj5t_6domain10repository15item_repository14ItemRepository6delete0Bd_
FNDA:0,_RNCNvXs0_NtNtNtCs1B75dzsrioZ_11rust_webapi14infrastructure10repository15item_repositoryNtB7_22InMemoryItemRepositoryNtNtNtCs8Y1garwNj5t_6domain10repository15item_repository14ItemRepository6update0Bd_
FNDA:0,_RNCNvXs0_NtNtNtCs1B75dzsrioZ_11rust_webapi14infrastructure10repository15item_repositoryNtB7_22InMemoryItemRepositoryNtNtNtCs8Y1garwNj5t_6domain10repository15item_repository14ItemRepository8find_all0Bd_
FNDA:0,_RNCNvXs1_NtNtNtCs1B75dzsrioZ_11rust_webapi14infrastructure10repository15item_repositoryNtB7_22PostgresItemRepositoryNtNtNtCs8Y1garwNj5t_6domain10repository15item_repository14ItemRepository10find_by_id0Bd_
FNDA:0,_RNCNvXs1_NtNtNtCs1B75dzsrioZ_11rust_webapi14infrastructure10repository15item_repositoryNtB7_22PostgresItemRepositoryNtNtNtCs8Y1garwNj5t_6domain10repository15item_repository14ItemRepository6create0Bd_
FNDA:0,_RNCNvXs1_NtNtNtCs1B75dzsrioZ_11rust_webapi14infrastructure10repository15item_repositoryNtB7_22PostgresItemRepositoryNtNtNtCs8Y1garwNj5t_6domain10repository15item_repository14ItemRepository6delete0Bd_
FNDA:0,_RNCNvXs1_NtNtNtCs1B75dzsrioZ_11rust_webapi14infrastructure10repository15item_repositoryNtB7_22PostgresItemRepositoryNtNtNtCs8Y1garwNj5t_6domain10repository15item_repository14ItemRepository6update0Bd_
FNDA:0,_RNCNvXs1_NtNtNtCs1B75dzsrioZ_11rust_webapi14infrastructure10repository15item_repositoryNtB7_22PostgresItemRepositoryNtNtNtCs8Y1garwNj5t_6domain10repository15item_repository14ItemRepository8find_all0Bd_
FNDA:0,_RNvMNtNtNtCs1B75dzsrioZ_11rust_webapi14infrastructure10repository15item_repositoryNtB2_22InMemoryItemRepository3new
FNDA:0,_RNvMs_NtNtNtCs1B75dzsrioZ_11rust_webapi14infrastructure10repository15item_repositoryNtB4_22PostgresItemRepository3new
FNDA:0,_RNvXs0_NtNtNtCs1B75dzsrioZ_11rust_webapi14infrastructure10repository15item_repositoryNtB5_22InMemoryItemRepositoryNtNtNtCs8Y1garwNj5t_6domain10repository15item_repository14ItemRepository10find_by_id
FNDA:0,_RNvXs0_NtNtNtCs1B75dzsrioZ_11rust_webapi14infrastructure10repository15item_repositoryNtB5_22InMemoryItemRepositoryNtNtNtCs8Y1garwNj5t_6domain10repository15item_repository14ItemRepository6create
FNDA:0,_RNvXs0_NtNtNtCs1B75dzsrioZ_11rust_webapi14infrastructure10repository15item_repositoryNtB5_22InMemoryItemRepositoryNtNtNtCs8Y1garwNj5t_6domain10repository15item_repository14ItemRepository6delete
FNDA:0,_RNvXs0_NtNtNtCs1B75dzsrioZ_11rust_webapi14infrastructure10repository15item_repositoryNtB5_22InMemoryItemRepositoryNtNtNtCs8Y1garwNj5t_6domain10repository15item_repository14ItemRepository6update
FNDA:0,_RNvXs0_NtNtNtCs1B75dzsrioZ_11rust_webapi14infrastructure10repository15item_repositoryNtB5_22InMemoryItemRepositoryNtNtNtCs8Y1garwNj5t_6domain10repository15item_repository14ItemRepository8find_all
FNDA:0,_RNvXs1_NtNtNtCs1B75dzsrioZ_11rust_webapi14infrastructure10repository15item_repositoryNtB5_22PostgresItemRepositoryNtNtNtCs8Y1garwNj5t_6domain10repository15item_repository14ItemRepository10find_by_id
FNDA:0,_RNvXs1_NtNtNtCs1B75dzsrioZ_11rust_webapi14infrastructure10repository15item_repositoryNtB5_22PostgresItemRepositoryNtNtNtCs8Y1garwNj5t_6domain10repository15item_repository14ItemRepository6create
FNDA:0,_RNvXs1_NtNtNtCs1B75dzsrioZ_11rust_webapi14infrastructure10repository15item_repositoryNtB5_22PostgresItemRepositoryNtNtNtCs8Y1garwNj5t_6domain10repository15item_repository14ItemRepository6delete
FNDA:0,_RNvXs1_NtNtNtCs1B75dzsrioZ_11rust_webapi14infrastructure10repository15item_repositoryNtB5_22PostgresItemRepositoryNtNtNtCs8Y1garwNj5t_6domain10repository15item_repository14ItemRepository6update
FNDA:0,_RNvXs1_NtNtNtCs1B75dzsrioZ_11rust_webapi14infrastructure10repository15item_repositoryNtB5_22PostgresItemRepositoryNtNtNtCs8Y1garwNj5t_6domain10repository15item_repository14ItemRepository8find_all
FNF:23
FNH:0
DA:14,0
DA:15,0
DA:16,0
DA:17,0
DA:18,0
DA:23,0
DA:24,0
DA:25,0
DA:26,0
DA:28,0
DA:29,0
DA:30,0
DA:31,0
DA:33,0
DA:34,0
DA:35,0
DA:36,0
DA:37,0
DA:39,0
DA:40,0
DA:41,0
DA:42,0
DA:43,0
DA:45,0
DA:47,0
DA:49,0
DA:50,0
DA:51,0
DA:52,0
DA:60,0
DA:61,0
DA:62,0
DA:67,0
DA:68,0
DA:69,0
DA:70,0
DA:72,0
DA:73,0
DA:74,0
DA:75,0
DA:76,0
DA:77,0
DA:78,0
DA:79,0
DA:80,0
DA:82,0
DA:83,0
DA:84,0
DA:87,0
DA:89,0
DA:90,0
DA:91,0
DA:92,0
DA:93,0
DA:95,0
DA:96,0
DA:97,0
DA:98,0
DA:99,0
DA:100,0
DA:101,0
DA:102,0
DA:103,0
DA:104,0
DA:107,0
DA:109,0
DA:110,0
DA:111,0
DA:112,0
DA:113,0
DA:114,0
DA:115,0
DA:116,0
DA:117,0
DA:119,0
DA:120,0
DA:121,0
DA:122,0
DA:123,0
DA:124,0
DA:125,0
DA:126,0
DA:127,0
DA:130,0
DA:132,0
DA:133,0
DA:134,0
DA:135,0
DA:136,0
DA:137,0
DA:138,0
DA:139,0
DA:140,0
DA:142,0
DA:143,0
DA:144,0
DA:145,0
DA:146,0
DA:147,0
DA:148,0
DA:149,0
DA:150,0
DA:151,0
DA:154,0
DA:156,0
DA:157,0
DA:158,0
DA:159,0
DA:160,0
DA:162,0
DA:163,0
DA:164,0
DA:165,0
DA:166,0
DA:169,0
BRF:0
BRH:0
LF:127
LH:0
end_of_record
SF:/Users/kentishi/rust_webapi/src/infrastructure/repository/user_repository.rs
FN:75,_RNCNCNvXs1_NtNtNtCs1B75dzsrioZ_11rust_webapi14infrastructure10repository15user_repositoryNtB9_22PostgresUserRepositoryNtNtNtCs8Y1garwNj5t_6domain10repository15user_repository14UserRepository8find_all00Bf_
FN:28,_RNCNvXs0_NtNtNtCs1B75dzsrioZ_11rust_webapi14infrastructure10repository15user_repositoryNtB7_22InMemoryUserRepositoryNtNtNtCs8Y1garwNj5t_6domain10repository15user_repository14UserRepository10find_by_id0Bd_
FN:33,_RNCNvXs0_NtNtNtCs1B75dzsrioZ_11rust_webapi14infrastructure10repository15user_repositoryNtB7_22InMemoryUserRepositoryNtNtNtCs8Y1garwNj5t_6domain10repository15user_repository14UserRepository6create0Bd_
FN:49,_RNCNvXs0_NtNtNtCs1B75dzsrioZ_11rust_webapi14infrastructure10repository15user_repositoryNtB7_22InMemoryUserRepositoryNtNtNtCs8Y1garwNj5t_6domain10repository15user_repository14UserRepository6delete0Bd_
FN:39,_RNCNvXs0_NtNtNtCs1B75dzsrioZ_11rust_webapi14infrastructure10repository15user_repositoryNtB7_22InMemoryUserRepositoryNtNtNtCs8Y1garwNj5t_6domain10repository15user_repository14UserRepository6update0Bd_
FN:23,_RNCNvXs0_NtNtNtCs1B75dzsrioZ_11rust_webapi14infrastructure10repository15user_repositoryNtB7_22InMemoryUserRepositoryNtNtNtCs8Y1garwNj5t_6domain10repository15user_repository14UserRepository8find_all0Bd_
FN:89,_RNCNvXs1_NtNtNtCs1B75dzsrioZ_11rust_webapi14infrastructure10repository15user_repositoryNtB7_22PostgresUserRepositoryNtNtNtCs8Y1garwNj5t_6domain10repository15user_repository14UserRepository10find_by_id0Bd_
FN:109,_RNCNvXs1_NtNtNtCs1B75dzsrioZ_11rust_webapi14infrastructure10repository15user_repositoryNtB7_22PostgresUserRepositoryNtNtNtCs8Y1garwNj5t_6domain10repository15user_repository14UserRepository6create0Bd_
FN:156,_RNCNvXs1_NtNtNtCs1B75dzsrioZ_11rust_webapi14infrastructure10repository15user_repositoryNtB7_22PostgresUserRepositoryNtNtNtCs8Y1garwNj5t_6domain10repository15user_repository14UserRepository6delete0Bd_
FN:132,_RNCNvXs1_NtNtNtCs1B75dzsrioZ_11rust_webapi14infrastructure10repository15user_repositoryNtB7_22PostgresUserRepositoryNtNtNtCs8Y1garwNj5t_6domain10repository15user_repository14UserRepository6update0Bd_
FN:67,_RNCNvXs1_NtNtNtCs1B75dzsrioZ_11rust_webapi14infrastructure10repository15user_repositoryNtB7_22PostgresUserRepositoryNtNtNtCs8Y1garwNj5t_6domain10repository15user_repository14UserRepository8find_all0Bd_
FN:14,_RNvMNtNtNtCs1B75dzsrioZ_11rust_webapi14infrastructure10repository15user_repositoryNtB2_22InMemoryUserRepository3new
FN:60,_RNvMs_NtNtNtCs1B75dzsrioZ_11rust_webapi14infrastructure10repository15user_repositoryNtB4_22PostgresUserRepository3new
FN:31,_RNvXs0_NtNtNtCs1B75dzsrioZ_11rust_webapi14infrastructure10repository15user_repositoryNtB5_22InMemoryUserRepositoryNtNtNtCs8Y1garwNj5t_6domain10repository15user_repository14UserRepository10find_by_id
FN:37,_RNvXs0_NtNtNtCs1B75dzsrioZ_11rust_webapi14infrastructure10repository15user_repositoryNtB5_22InMemoryUserRepositoryNtNtNtCs8Y1garwNj5t_6domain10repository15user_repository14UserRepository6create
FN:52,_RNvXs0_NtNtNtCs1B75dzsrioZ_11rust_webapi14infrastructure10repository15user_repositoryNtB5_22InMemoryUserRepositoryNtNtNtCs8Y1garwNj5t_6domain10repository15user_repository14UserRepository6delete
FN:47,_RNvXs0_NtNtNtCs1B75dzsrioZ_11rust_webapi14infrastructure10repository15user_repositoryNtB5_22InMemoryUserRepositoryNtNtNtCs8Y1garwNj5t_6domain10repository15user_repository14UserRepository6update
FN:26,_RNvXs0_NtNtNtCs1B75dzsrioZ_11rust_webapi14infrastructure10repository15user_repositoryNtB5_22InMemoryUserRepositoryNtNtNtCs8Y1garwNj5t_6domain10repository15user_repository14UserRepository8find_all
FN:107,_RNvXs1_NtNtNtCs1B75dzsrioZ_11rust_webapi14infrastructure10repository15user_repositoryNtB5_22PostgresUserRepositoryNtNtNtCs8Y1garwNj5t_6domain10repository15user_repository14UserRepository10find_by_id
FN:130,_RNvXs1_NtNtNtCs1B75dzsrioZ_11rust_webapi14infrastructure10repository15user_repositoryNtB5_22PostgresUserRepositoryNtNtNtCs8Y1garwNj5t_6domain10repository15user_repository14UserRepository6create
FN:169,_RNvXs1_NtNtNtCs1B75dzsrioZ_11rust_webapi14infrastructure10repository15user_repositoryNtB5_22PostgresUserRepositoryNtNtNtCs8Y1garwNj5t_6domain10repository15user_repository14UserRepository6delete
FN:154,_RNvXs1_NtNtNtCs1B75dzsrioZ_11rust_webapi14infrastructure10repository15user_repositoryNtB5_22PostgresUserRepositoryNtNtNtCs8Y1garwNj5t_6domain10repository15user_repository14UserRepository6update
FN:87,_RNvXs1_NtNtNtCs1B75dzsrioZ_11rust_webapi14infrastructure10repository15user_repositoryNtB5_22PostgresUserRepositoryNtNtNtCs8Y1garwNj5t_6domain10repository15user_repository14UserRepository8find_all
FNDA:0,_RNCNCNvXs1_NtNtNtCs1B75dzsrioZ_11rust_webapi14infrastructure10repository15user_repositoryNtB9_22PostgresUserRepositoryNtNtNtCs8Y1garwNj5t_6domain10repository15user_repository14UserRepository8find_all00Bf_
FNDA:0,_RNCNvXs0_NtNtNtCs1B75dzsrioZ_11rust_webapi14infrastructure10repository15user_repositoryNtB7_22InMemoryUserRepositoryNtNtNtCs8Y1garwNj5t_6domain10repository15user_repository14UserRepository10find_by_id0Bd_
FNDA:0,_RNCNvXs0_NtNtNtCs1B75dzsrioZ_11rust_webapi14infrastructure10repository15user_repositoryNtB7_22InMemoryUserRepositoryNtNtNtCs8Y1garwNj5t_6domain10repository15user_repository14UserRepository6create0Bd_
FNDA:0,_RNCNvXs0_NtNtNtCs1B75dzsrioZ_11rust_webapi14infrastructure10repository15user_repositoryNtB7_22InMemoryUserRepositoryNtNtNtCs8Y1garwNj5t_6domain10repository15user_repository14UserRepository6delete0Bd_
FNDA:0,_RNCNvXs0_NtNtNtCs1B75dzsrioZ_11rust_webapi14infrastructure10repository15user_repositoryNtB7_22InMemoryUserRepositoryNtNtNtCs8Y1garwNj5t_6domain10repository15user_repository14UserRepository6update0Bd_
FNDA:0,_RNCNvXs0_NtNtNtCs1B75dzsrioZ_11rust_webapi14infrastructure10repository15user_repositoryNtB7_22InMemoryUserRepositoryNtNtNtCs8Y1garwNj5t_6domain10repository15user_repository14UserRepository8find_all0Bd_
FNDA:0,_RNCNvXs1_NtNtNtCs1B75dzsrioZ_11rust_webapi14infrastructure10repository15user_repositoryNtB7_22PostgresUserRepositoryNtNtNtCs8Y1garwNj5t_6domain10repository15user_repository14UserRepository10find_by_id0Bd_
FNDA:0,_RNCNvXs1_NtNtNtCs1B75dzsrioZ_11rust_webapi14infrastructure10repository15user_repositoryNtB7_22PostgresUserRepositoryNtNtNtCs8Y1garwNj5t_6domain10repository15user_repository14UserRepository6create0Bd_
FNDA:0,_RNCNvXs1_NtNtNtCs1B75dzsrioZ_11rust_webapi14infrastructure10repository15user_repositoryNtB7_22PostgresUserRepositoryNtNtNtCs8Y1garwNj5t_6domain10repository15user_repository14UserRepository6delete0Bd_
FNDA:0,_RNCNvXs1_NtNtNtCs1B75dzsrioZ_11rust_webapi14infrastructure10repository15user_repositoryNtB7_22PostgresUserRepositoryNtNtNtCs8Y1garwNj5t_6domain10repository15user_repository14UserRepository6update0Bd_
FNDA:0,_RNCNvXs1_NtNtNtCs1B75dzsrioZ_11rust_webapi14infrastructure10repository15user_repositoryNtB7_22PostgresUserRepositoryNtNtNtCs8Y1garwNj5t_6domain10repository15user_repository14UserRepository8find_all0Bd_
FNDA:0,_RNvMNtNtNtCs1B75dzsrioZ_11rust_webapi14infrastructure10repository15user_repositoryNtB2_22InMemoryUserRepository3new
FNDA:0,_RNvMs_NtNtNtCs1B75dzsrioZ_11rust_webapi14infrastructure10repository15user_repositoryNtB4_22PostgresUserRepository3new
FNDA:0,_RNvXs0_NtNtNtCs1B75dzsrioZ_11rust_webapi14infrastructure10repository15user_repositoryNtB5_22InMemoryUserRepositoryNtNtNtCs8Y1garwNj5t_6domain10repository15user_repository14UserRepository10find_by_id
FNDA:0,_RNvXs0_NtNtNtCs1B75dzsrioZ_11rust_webapi14infrastructure10repository15user_repositoryNtB5_22InMemoryUserRepositoryNtNtNtCs8Y1garwNj5t_6domain10repository15user_repository14UserRepository6create
FNDA:0,_RNvXs0_NtNtNtCs1B75dzsrioZ_11rust_webapi14infrastructure10repository15user_repositoryNtB5_22InMemoryUserRepositoryNtNtNtCs8Y1garwNj5t_6domain10repository15user_repository14UserRepository6delete
FNDA:0,_RNvXs0_NtNtNtCs1B75dzsrioZ_11rust_webapi14infrastructure10repository15user_repositoryNtB5_22InMemoryUserRepositoryNtNtNtCs8Y1garwNj5t_6domain10repository15user_repository14UserRepository6update
FNDA:0,_RNvXs0_NtNtNtCs1B75dzsrioZ_11rust_webapi14infrastructure10repository15user_repositoryNtB5_22InMemoryUserRepositoryNtNtNtCs8Y1garwNj5t_6domain10repository15user_repository14UserRepository8find_all
FNDA:0,_RNvXs1_NtNtNtCs1B75dzsrioZ_11rust_webapi14infrastructure10repository15user_repositoryNtB5_22PostgresUserRepositoryNtNtNtCs8Y1garwNj5t_6domain10repository15user_repository14UserRepository10find_by_id
FNDA:0,_RNvXs1_NtNtNtCs1B75dzsrioZ_11rust_webapi14infrastructure10repository15user_repositoryNtB5_22PostgresUserRepositoryNtNtNtCs8Y1garwNj5t_6domain10repository15user_repository14UserRepository6create
FNDA:0,_RNvXs1_NtNtNtCs1B75dzsrioZ_11rust_webapi14infrastructure10repository15user_repositoryNtB5_22PostgresUserRepositoryNtNtNtCs8Y1garwNj5t_6domain10repository15user_repository14UserRepository6delete
FNDA:0,_RNvXs1_NtNtNtCs1B75dzsrioZ_11rust_webapi14infrastructure10repository15user_repositoryNtB5_22PostgresUserRepositoryNtNtNtCs8Y1garwNj5t_6domain10repository15user_repository14UserRepository6update
FNDA:0,_RNvXs1_NtNtNtCs1B75dzsrioZ_11rust_webapi14infrastructure10repository15user_repositoryNtB5_22PostgresUserRepositoryNtNtNtCs8Y1garwNj5t_6domain10repository15user_repository14UserRepository8find_all
FNF:23
FNH:0
DA:14,0
DA:15,0
DA:16,0
DA:17,0
DA:18,0
DA:23,0
DA:24,0
DA:25,0
DA:26,0
DA:28,0
DA:29,0
DA:30,0
DA:31,0
DA:33,0
DA:34,0
DA:35,0
DA:36,0
DA:37,0
DA:39,0
DA:40,0
DA:41,0
DA:42,0
DA:43,0
DA:45,0
DA:47,0
DA:49,0
DA:50,0
DA:51,0
DA:52,0
DA:60,0
DA:61,0
DA:62,0
DA:67,0
DA:68,0
DA:69,0
DA:70,0
DA:72,0
DA:73,0
DA:74,0
DA:75,0
DA:76,0
DA:77,0
DA:78,0
DA:79,0
DA:80,0
DA:82,0
DA:83,0
DA:84,0
DA:87,0
DA:89,0
DA:90,0
DA:91,0
DA:92,0
DA:93,0
DA:95,0
DA:96,0
DA:97,0
DA:98,0
DA:99,0
DA:100,0
DA:101,0
DA:102,0
DA:103,0
DA:104,0
DA:107,0
DA:109,0
DA:110,0
DA:111,0
DA:112,0
DA:113,0
DA:114,0
DA:115,0
DA:116,0
DA:117,0
DA:119,0
DA:120,0
DA:121,0
DA:122,0
DA:123,0
DA:124,0
DA:125,0
DA:126,0
DA:127,0
DA:130,0
DA:132,0
DA:133,0
DA:134,0
DA:135,0
DA:136,0
DA:137,0
DA:138,0
DA:139,0
DA:140,0
DA:142,0
DA:143,0
DA:144,0
DA:145,0
DA:146,0
DA:147,0
DA:148,0
DA:149,0
DA:150,0
DA:151,0
DA:154,0
DA:156,0
DA:157,0
DA:158,0
DA:159,0
DA:160,0
DA:162,0
DA:163,0
DA:164,0
DA:165,0
DA:166,0
DA:169,0
BRF:0
BRH:0
LF:127
LH:0
end_of_record
SF:/Users/kentishi/rust_webapi/src/main.rs
FN:114,_RNCNCNCNCNvCs1B75dzsrioZ_11rust_webapi4main0000B9_
FN:134,_RNCNCNCNCNvCs1B75dzsrioZ_11rust_webapi4main00s_00B9_
FN:109,_RNCNCNCNvCs1B75dzsrioZ_11rust_webapi4main000B7_
FN:134,_RNCNCNCNvCs1B75dzsrioZ_11rust_webapi4main00s_0B7_
FN:101,_RNCNCNvCs1B75dzsrioZ_11rust_webapi4main00B5_
FNDA:0,_RNCNCNCNCNvCs1B75dzsrioZ_11rust_webapi4main0000B9_
FNDA:0,_RNCNCNCNCNvCs1B75dzsrioZ_11rust_webapi4main00s_00B9_
FNDA:0,_RNCNCNCNvCs1B75dzsrioZ_11rust_webapi4main000B7_
FNDA:0,_RNCNCNCNvCs1B75dzsrioZ_11rust_webapi4main00s_0B7_
FNDA:0,_RNCNCNvCs1B75dzsrioZ_11rust_webapi4main00B5_
FNF:5
FNH:0
DA:101,0
DA:102,0
DA:103,0
DA:104,0
DA:105,0
DA:106,0
DA:107,0
DA:108,0
DA:109,0
DA:110,0
DA:111,0
DA:112,0
DA:113,0
DA:114,0
DA:115,0
DA:116,0
DA:117,0
DA:118,0
DA:119,0
DA:120,0
DA:121,0
DA:122,0
DA:123,0
DA:124,0
DA:125,0
DA:126,0
DA:127,0
DA:128,0
DA:129,0
DA:130,0
DA:131,0
DA:132,0
DA:133,0
DA:134,0
DA:135,0
DA:136,0
DA:137,0
DA:138,0
DA:139,0
DA:140,0
DA:141,0
DA:142,0
DA:143,0
DA:144,0
DA:145,0
DA:146,0
DA:147,0
DA:148,0
DA:149,0
BRF:0
BRH:0
LF:53
LH:0
end_of_record
SF:/Users/kentishi/rust_webapi/src/presentation/api/item_handler.rs
FN:104,_RINvMs4_NtNtNtNtNtNtCs1B75dzsrioZ_11rust_webapi12presentation3api12item_handler5tests33___mock_MockItemRep_ItemRepository10___find_allNtB6_6Common5timespEBi_
FN:104,_RINvMs4_NtNtNtNtNtNtCs1B75dzsrioZ_11rust_webapi12presentation3api12item_handler5tests33___mock_MockItemRep_ItemRepository10___find_allNtB6_6Common5withfpEBi_
FN:104,_RINvMs4_NtNtNtNtNtNtCs1B75dzsrioZ_11rust_webapi12presentation3api12item_handler5tests33___mock_MockItemRep_ItemRepository10___find_allNtB6_6Common8withf_stpEBi_
FN:104,_RINvMs4_NtNtNtNtNtNtCs1B75dzsrioZ_11rust_webapi12presentation3api12item_handler5tests33___mock_MockItemRep_ItemRepository12___find_by_idNtB6_6Common5timespEBi_
FN:104,_RINvMs4_NtNtNtNtNtNtCs1B75dzsrioZ_11rust_webapi12presentation3api12item_handler5tests33___mock_MockItemRep_ItemRepository12___find_by_idNtB6_6Common5withfpEBi_
FN:104,_RINvMs4_NtNtNtNtNtNtCs1B75dzsrioZ_11rust_webapi12presentation3api12item_handler5tests33___mock_MockItemRep_ItemRepository12___find_by_idNtB6_6Common8withf_stpEBi_
FN:104,_RINvMs4_NtNtNtNtNtNtCs1B75dzsrioZ_11rust_webapi12presentation3api12item_handler5tests33___mock_MockItemRep_ItemRepository8___createNtB6_6Common4withpEBi_
FN:104,_RINvMs4_NtNtNtNtNtNtCs1B75dzsrioZ_11rust_webapi12presentation3api12item_handler5tests33___mock_MockItemRep_ItemRepository8___createNtB6_6Common5timespEBi_
FN:104,_RINvMs4_NtNtNtNtNtNtCs1B75dzsrioZ_11rust_webapi12presentation3api12item_handler5tests33___mock_MockItemRep_ItemRepository8___createNtB6_6Common5withfpEBi_
FN:104,_RINvMs4_NtNtNtNtNtNtCs1B75dzsrioZ_11rust_webapi12presentation3api12item_handler5tests33___mock_MockItemRep_ItemRepository8___createNtB6_6Common8withf_stpEBi_
FN:104,_RINvMs4_NtNtNtNtNtNtCs1B75dzsrioZ_11rust_webapi12presentation3api12item_handler5tests33___mock_MockItemRep_ItemRepository8___deleteNtB6_6Common5timespEBi_
FN:104,_RINvMs4_NtNtNtNtNtNtCs1B75dzsrioZ_11rust_webapi12presentation3api12item_handler5tests33___mock_MockItemRep_ItemRepository8___deleteNtB6_6Common5withfpEBi_
FN:104,_RINvMs4_NtNtNtNtNtNtCs1B75dzsrioZ_11rust_webapi12presentation3api12item_handler5tests33___mock_MockItemRep_ItemRepository8___deleteNtB6_6Common8withf_stpEBi_
FN:104,_RINvMs4_NtNtNtNtNtNtCs1B75dzsrioZ_11rust_webapi12presentation3api12item_handler5tests33___mock_MockItemRep_ItemRepository8___updateNtB6_6Common4withpEBi_
FN:104,_RINvMs4_NtNtNtNtNtNtCs1B75dzsrioZ_11rust_webapi12presentation3api12item_handler5tests33___mock_MockItemRep_ItemRepository8___updateNtB6_6Common5timespEBi_
FN:104,_RINvMs4_NtNtNtNtNtNtCs1B75dzsrioZ_11rust_webapi12presentation3api12item_handler5tests33___mock_MockItemRep_ItemRepository8___updateNtB6_6Common5withfpEBi_
FN:104,_RINvMs4_NtNtNtNtNtNtCs1B75dzsrioZ_11rust_webapi12presentation3api12item_handler5tests33___mock_MockItemRep_ItemRepository8___updateNtB6_6Common8withf_stpEBi_
FN:114,_RINvMs6_NtNtNtNtNtNtCs1B75dzsrioZ_11rust_webapi12presentation3api12item_handler5tests33___mock_MockItemRep_ItemRepository10___find_allNtB6_11Expectation12return_constpEBi_
FN:104,_RINvMs6_NtNtNtNtNtNtCs1B75dzsrioZ_11rust_webapi12presentation3api12item_handler5tests33___mock_MockItemRep_ItemRepository10___find_allNtB6_11Expectation12returning_stpEBi_
FN:104,_RINvMs6_NtNtNtNtNtNtCs1B75dzsrioZ_11rust_webapi12presentation3api12item_handler5tests33___mock_MockItemRep_ItemRepository10___find_allNtB6_11Expectation14return_once_stpEBi_
FN:114,_RINvMs6_NtNtNtNtNtNtCs1B75dzsrioZ_11rust_webapi12presentation3api12item_handler5tests33___mock_MockItemRep_ItemRepository10___find_allNtB6_11Expectation15return_const_stpEBi_
FN:104,_RINvMs6_NtNtNtNtNtNtCs1B75dzsrioZ_11rust_webapi12presentation3api12item_handler5tests33___mock_MockItemRep_ItemRepository10___find_allNtB6_11Expectation5timespEBi_
FN:104,_RINvMs6_NtNtNtNtNtNtCs1B75dzsrioZ_11rust_webapi12presentation3api12item_handler5tests33___mock_MockItemRep_ItemRepository10___find_allNtB6_11Expectation5withfpEBi_
FN:104,_RINvMs6_NtNtNtNtNtNtCs1B75dzsrioZ_11rust_webapi12presentation3api12item_handler5tests33___mock_MockItemRep_ItemRepository10___find_allNtB6_11Expectation8withf_stpEBi_
FN:104,_RINvMs6_NtNtNtNtNtNtCs1B75dzsrioZ_11rust_webapi12presentation3api12item_handler5tests33___mock_MockItemRep_ItemRepository10___find_allNtB6_11Expectation9returningpEBi_
FN:114,_RINvMs6_NtNtNtNtNtNtCs1B75dzsrioZ_11rust_webapi12presentation3api12item_handler5tests33___mock_MockItemRep_ItemRepository12___find_by_idNtB6_11Expectation12return_constpEBi_
FN:104,_RINvMs6_NtNtNtNtNtNtCs1B75dzsrioZ_11rust_webapi12presentation3api12item_handler5tests33___mock_MockItemRep_ItemRepository12___find_by_idNtB6_11Expectation12returning_stpEBi_
FN:104,_RINvMs6_NtNtNtNtNtNtCs1B75dzsrioZ_11rust_webapi12presentation3api12item_handler5tests33___mock_MockItemRep_ItemRepository12___find_by_idNtB6_11Expectation14return_once_stpEBi_
FN:114,_RINvMs6_NtNtNtNtNtNtCs1B75dzsrioZ_11rust_webapi12presentation3api12item_handler5tests33___mock_MockItemRep_ItemRepository12___find_by_idNtB6_11Expectation15return_const_stpEBi_
FN:104,_RINvMs6_NtNtNtNtNtNtCs1B75dzsrioZ_11rust_webapi12presentation3api12item_handler5tests33___mock_MockItemRep_ItemRepository12___find_by_idNtB6_11Expectation5timespEBi_
FN:104,_RINvMs6_NtNtNtNtNtNtCs1B75dzsrioZ_11rust_webapi12presentation3api12item_handler5tests33___mock_MockItemRep_ItemRepository12___find_by_idNtB6_11Expectation5withfpEBi_
FN:104,_RINvMs6_NtNtNtNtNtNtCs1B75dzsrioZ_11rust_webapi12presentation3api12item_handler5tests33___mock_MockItemRep_ItemRepository12___find_by_idNtB6_11Expectation8withf_stpEBi_
FN:104,_RINvMs6_NtNtNtNtNtNtCs1B75dzsrioZ_11rust_webapi12presentation3api12item_handler5tests33___mock_MockItemRep_ItemRepository12___find_by_idNtB6_11Expectation9returningpEBi_
FN:114,_RINvMs6_NtNtNtNtNtNtCs1B75dzsrioZ_11rust_webapi12presentation3api12item_handler5tests33___mock_MockItemRep_ItemRepository8___createNtB6_11Expectation12return_constpEBi_
FN:104,_RINvMs6_NtNtNtNtNtNtCs1B75dzsrioZ_11rust_webapi12presentation3api12item_handler5tests33___mock_MockItemRep_ItemRepository8___createNtB6_11Expectation12returning_stpEBi_
FN:104,_RINvMs6_NtNtNtNtNtNtCs1B75dzsrioZ_11rust_webapi12presentation3api12item_handler5tests33___mock_MockItemRep_ItemRepository8___createNtB6_11Expectation14return_once_stpEBi_
FN:114,_RINvMs6_NtNtNtNtNtNtCs1B75dzsrioZ_11rust_webapi12presentation3api12item_handler5tests33___mock_MockItemRep_ItemRepository8___createNtB6_11Expectation15return_const_stpEBi_
FN:104,_RINvMs6_NtNtNtNtNtNtCs1B75dzsrioZ_11rust_webapi12presentation3api12item_handler5tests33___mock_MockItemRep_ItemRepository8___createNtB6_11Expectation4withpEBi_
FN:104,_RINvMs6_NtNtNtNtNtNtCs1B75dzsrioZ_11rust_webapi12presentation3api12item_handler5tests33___mock_MockItemRep_ItemRepository8___createNtB6_11Expectation5timespEBi_
FN:104,_RINvMs6_NtNtNtNtNtNtCs1B75dzsrioZ_11rust_webapi12presentation3api12item_handler5tests33___mock_MockItemRep_ItemRepository8___createNtB6_11Expectation5withfpEBi_
FN:104,_RINvMs6_NtNtNtNtNtNtCs1B75dzsrioZ_11rust_webapi12presentation3api12item_handler5tests33___mock_MockItemRep_ItemRepository8___createNtB6_11Expectation8withf_stpEBi_
FN:104,_RINvMs6_NtNtNtNtNtNtCs1B75dzsrioZ_11rust_webapi12presentation3api12item_handler5tests33___mock_MockItemRep_ItemRepository8___createNtB6_11Expectation9returningpEBi_
FN:114,_RINvMs6_NtNtNtNtNtNtCs1B75dzsrioZ_11rust_webapi12presentation3api12item_handler5tests33___mock_MockItemRep_ItemRepository8___deleteNtB6_11Expectation12return_constpEBi_
FN:104,_RINvMs6_NtNtNtNtNtNtCs1B75dzsrioZ_11rust_webapi12presentation3api12item_handler5tests33___mock_MockItemRep_ItemRepository8___deleteNtB6_11Expectation12returning_stpEBi_
FN:104,_RINvMs6_NtNtNtNtNtNtCs1B75dzsrioZ_11rust_webapi12presentation3api12item_handler5tests33___mock_MockItemRep_ItemRepository8___deleteNtB6_11Expectation14return_once_stpEBi_
FN:114,_RINvMs6_NtNtNtNtNtNtCs1B75dzsrioZ_11rust_webapi12presentation3api12item_handler5tests33___mock_MockItemRep_ItemRepository8___deleteNtB6_11Expectation15return_const_stpEBi_
FN:104,_RINvMs6_NtNtNtNtNtNtCs1B75dzsrioZ_11rust_webapi12presentation3api12item_handler5tests33___mock_MockItemRep_ItemRepository8___deleteNtB6_11Expectation5timespEBi_
FN:104,_RINvMs6_NtNtNtNtNtNtCs1B75dzsrioZ_11rust_webapi12presentation3api12item_handler5tests33___mock_MockItemRep_ItemRepository8___deleteNtB6_11Expectation5withfpEBi_
FN:104,_RINvMs6_NtNtNtNtNtNtCs1B75dzsrioZ_11rust_webapi12presentation3api12item_handler5tests33___mock_MockItemRep_ItemRepository8___deleteNtB6_11Expectation8withf_stpEBi_
FN:104,_RINvMs6_NtNtNtNtNtNtCs1B75dzsrioZ_11rust_webapi12presentation3api12item_handler5tests33___mock_MockItemRep_ItemRepository8___deleteNtB6_11Expectation9returningpEBi_
FN:114,_RINvMs6_NtNtNtNtNtNtCs1B75dzsrioZ_11rust_webapi12presentation3api12item_handler5tests33___mock_MockItemRep_ItemRepository8___updateNtB6_11Expectation12return_constpEBi_
FN:104,_RINvMs6_NtNtNtNtNtNtCs1B75dzsrioZ_11rust_webapi12presentation3api12item_handler5tests33___mock_MockItemRep_ItemRepository8___updateNtB6_11Expectation12returning_stpEBi_
FN:104,_RINvMs6_NtNtNtNtNtNtCs1B75dzsrioZ_11rust_webapi12presentation3api12item_handler5tests33___mock_MockItemRep_ItemRepository8___updateNtB6_11Expectation14return_once_stpEBi_
FN:114,_RINvMs6_NtNtNtNtNtNtCs1B75dzsrioZ_11rust_webapi12presentation3api12item_handler5tests33___mock_MockItemRep_ItemRepository8___updateNtB6_11Expectation15return_const_stpEBi_
FN:104,_RINvMs6_NtNtNtNtNtNtCs1B75dzsrioZ_11rust_webapi12presentation3api12item_handler5tests33___mock_MockItemRep_ItemRepository8___updateNtB6_11Expectation4withpEBi_
FN:104,_RINvMs6_NtNtNtNtNtNtCs1B75dzsrioZ_11rust_webapi12presentation3api12item_handler5tests33___mock_MockItemRep_ItemRepository8___updateNtB6_11Expectation5timespEBi_
FN:104,_RINvMs6_NtNtNtNtNtNtCs1B75dzsrioZ_11rust_webapi12presentation3api12item_handler5tests33___mock_MockItemRep_ItemRepository8___updateNtB6_11Expectation5withfpEBi_
FN:104,_RINvMs6_NtNtNtNtNtNtCs1B75dzsrioZ_11rust_webapi12presentation3api12item_handler5tests33___mock_MockItemRep_ItemRepository8___updateNtB6_11Expectation8withf_stpEBi_
FN:104,_RINvMs6_NtNtNtNtNtNtCs1B75dzsrioZ_11rust_webapi12presentation3api12item_handler5tests33___mock_MockItemRep_ItemRepository8___updateNtB6_11Expectation9returningpEBi_
FN:104,_RNCINvMs6_NtNtNtNtNtNtCs1B75dzsrioZ_11rust_webapi12presentation3api12item_handler5tests33___mock_MockItemRep_ItemRepository10___find_allNtB8_11Expectation12return_constpE0Bk_
FN:104,_RNCINvMs6_NtNtNtNtNtNtCs1B75dzsrioZ_11rust_webapi12presentation3api12item_handler5tests33___mock_MockItemRep_ItemRepository10___find_allNtB8_11Expectation15return_const_stpE0Bk_
FN:104,_RNCINvMs6_NtNtNtNtNtNtCs1B75dzsrioZ_11rust_webapi12presentation3api12item_handler5tests33___mock_MockItemRep_ItemRepository12___find_by_idNtB8_11Expectation12return_constpE0Bk_
FN:104,_RNCINvMs6_NtNtNtNtNtNtCs1B75dzsrioZ_11rust_webapi12presentation3api12item_handler5tests33___mock_MockItemRep_ItemRepository12___find_by_idNtB8_11Expectation15return_const_stpE0Bk_
FN:104,_RNCINvMs6_NtNtNtNtNtNtCs1B75dzsrioZ_11rust_webapi12presentation3api12item_handler5tests33___mock_MockItemRep_ItemRepository8___createNtB8_11Expectation12return_constpE0Bk_
FN:104,_RNCINvMs6_NtNtNtNtNtNtCs1B75dzsrioZ_11rust_webapi12presentation3api12item_handler5tests33___mock_MockItemRep_ItemRepository8___createNtB8_11Expectation15return_const_stpE0Bk_
FN:104,_RNCINvMs6_NtNtNtNtNtNtCs1B75dzsrioZ_11rust_webapi12presentation3api12item_handler5tests33___mock_MockItemRep_ItemRepository8___deleteNtB8_11Expectation12return_constpE0Bk_
FN:104,_RNCINvMs6_NtNtNtNtNtNtCs1B75dzsrioZ_11rust_webapi12presentation3api12item_handler5tests33___mock_MockItemRep_ItemRepository8___deleteNtB8_11Expectation15return_const_stpE0Bk_
FN:104,_RNCINvMs6_NtNtNtNtNtNtCs1B75dzsrioZ_11rust_webapi12presentation3api12item_handler5tests33___mock_MockItemRep_ItemRepository8___updateNtB8_11Expectation12return_constpE0Bk_
FN:104,_RNCINvMs6_NtNtNtNtNtNtCs1B75dzsrioZ_11rust_webapi12presentation3api12item_handler5tests33___mock_MockItemRep_ItemRepository8___updateNtB8_11Expectation15return_const_stpE0Bk_
FN:104,_RNvMs1_NtNtNtNtCs1B75dzsrioZ_11rust_webapi12presentation3api12item_handler5testsNtB5_26MockItemRep_ItemRepository10checkpoint
FN:104,_RNvMs2_NtNtNtNtCs1B75dzsrioZ_11rust_webapi12presentation3api12item_handler5testsNtB5_11MockItemRep10checkpoint
FN:114,_RNvMs4_NtNtNtNtNtNtCs1B75dzsrioZ_11rust_webapi12presentation3api12item_handler5tests33___mock_MockItemRep_ItemRepository10___find_allNtB5_6Common11in_sequence
FN:104,_RNvMs4_NtNtNtNtNtNtCs1B75dzsrioZ_11rust_webapi12presentation3api12item_handler5tests33___mock_MockItemRep_ItemRepository10___find_allNtB5_6Common4with
FN:104,_RNvMs4_NtNtNtNtNtNtCs1B75dzsrioZ_11rust_webapi12presentation3api12item_handler5tests33___mock_MockItemRep_ItemRepository10___find_allNtB5_6Common5never
FN:114,_RNvMs4_NtNtNtNtNtNtCs1B75dzsrioZ_11rust_webapi12presentation3api12item_handler5tests33___mock_MockItemRep_ItemRepository12___find_by_idNtB5_6Common11in_sequence
FN:104,_RNvMs4_NtNtNtNtNtNtCs1B75dzsrioZ_11rust_webapi12presentation3api12item_handler5tests33___mock_MockItemRep_ItemRepository12___find_by_idNtB5_6Common5never
FN:114,_RNvMs4_NtNtNtNtNtNtCs1B75dzsrioZ_11rust_webapi12presentation3api12item_handler5tests33___mock_MockItemRep_ItemRepository8___createNtB5_6Common11in_sequence
FN:104,_RNvMs4_NtNtNtNtNtNtCs1B75dzsrioZ_11rust_webapi12presentation3api12item_handler5tests33___mock_MockItemRep_ItemRepository8___createNtB5_6Common5never
FN:114,_RNvMs4_NtNtNtNtNtNtCs1B75dzsrioZ_11rust_webapi12presentation3api12item_handler5tests33___mock_MockItemRep_ItemRepository8___deleteNtB5_6Common11in_sequence
FN:104,_RNvMs4_NtNtNtNtNtNtCs1B75dzsrioZ_11rust_webapi12presentation3api12item_handler5tests33___mock_MockItemRep_ItemRepository8___deleteNtB5_6Common5never
FN:114,_RNvMs4_NtNtNtNtNtNtCs1B75dzsrioZ_11rust_webapi12presentation3api12item_handler5tests33___mock_MockItemRep_ItemRepository8___updateNtB5_6Common11in_sequence
FN:104,_RNvMs4_NtNtNtNtNtNtCs1B75dzsrioZ_11rust_webapi12presentation3api12item_handler5tests33___mock_MockItemRep_ItemRepository8___updateNtB5_6Common5never
FN:104,_RNvMs6_NtNtNtNtNtNtCs1B75dzsrioZ_11rust_webapi12presentation3api12item_handler5tests33___mock_MockItemRep_ItemRepository10___find_allNtB5_11Expectation11in_sequence
FN:104,_RNvMs6_NtNtNtNtNtNtCs1B75dzsrioZ_11rust_webapi12presentation3api12item_handler5tests33___mock_MockItemRep_ItemRepository10___find_allNtB5_11Expectation3new
FN:104,_RNvMs6_NtNtNtNtNtNtCs1B75dzsrioZ_11rust_webapi12presentation3api12item_handler5tests33___mock_MockItemRep_ItemRepository10___find_allNtB5_11Expectation4once
FN:104,_RNvMs6_NtNtNtNtNtNtCs1B75dzsrioZ_11rust_webapi12presentation3api12item_handler5tests33___mock_MockItemRep_ItemRepository10___find_allNtB5_11Expectation4with
FN:104,_RNvMs6_NtNtNtNtNtNtCs1B75dzsrioZ_11rust_webapi12presentation3api12item_handler5tests33___mock_MockItemRep_ItemRepository10___find_allNtB5_11Expectation5never
FN:104,_RNvMs6_NtNtNtNtNtNtCs1B75dzsrioZ_11rust_webapi12presentation3api12item_handler5tests33___mock_MockItemRep_ItemRepository12___find_by_idNtB5_11Expectation11in_sequence
FN:104,_RNvMs6_NtNtNtNtNtNtCs1B75dzsrioZ_11rust_webapi12presentation3api12item_handler5tests33___mock_MockItemRep_ItemRepository12___find_by_idNtB5_11Expectation3new
FN:104,_RNvMs6_NtNtNtNtNtNtCs1B75dzsrioZ_11rust_webapi12presentation3api12item_handler5tests33___mock_MockItemRep_ItemRepository12___find_by_idNtB5_11Expectation4once
FN:104,_RNvMs6_NtNtNtNtNtNtCs1B75dzsrioZ_11rust_webapi12presentation3api12item_handler5tests33___mock_MockItemRep_ItemRepository12___find_by_idNtB5_11Expectation5never
FN:104,_RNvMs6_NtNtNtNtNtNtCs1B75dzsrioZ_11rust_webapi12presentation3api12item_handler5tests33___mock_MockItemRep_ItemRepository8___createNtB5_11Expectation11in_sequence
FN:104,_RNvMs6_NtNtNtNtNtNtCs1B75dzsrioZ_11rust_webapi12presentation3api12item_handler5tests33___mock_MockItemRep_ItemRepository8___createNtB5_11Expectation3new
FN:104,_RNvMs6_NtNtNtNtNtNtCs1B75dzsrioZ_11rust_webapi12presentation3api12item_handler5tests33___mock_MockItemRep_ItemRepository8___createNtB5_11Expectation4once
FN:104,_RNvMs6_NtNtNtNtNtNtCs1B75dzsrioZ_11rust_webapi12presentation3api12item_handler5tests33___mock_MockItemRep_ItemRepository8___createNtB5_11Expectation5never
FN:104,_RNvMs6_NtNtNtNtNtNtCs1B75dzsrioZ_11rust_webapi12presentation3api12item_handler5tests33___mock_MockItemRep_ItemRepository8___deleteNtB5_11Expectation11in_sequence
FN:104,_RNvMs6_NtNtNtNtNtNtCs1B75dzsrioZ_11rust_webapi12presentation3api12item_handler5tests33___mock_MockItemRep_ItemRepository8___deleteNtB5_11Expectation3new
FN:104,_RNvMs6_NtNtNtNtNtNtCs1B75dzsrioZ_11rust_webapi12presentation3api12item_handler5tests33___mock_MockItemRep_ItemRepository8___deleteNtB5_11Expectation4once
FN:104,_RNvMs6_NtNtNtNtNtNtCs1B75dzsrioZ_11rust_webapi12presentation3api12item_handler5tests33___mock_MockItemRep_ItemRepository8___deleteNtB5_11Expectation5never
FN:104,_RNvMs6_NtNtNtNtNtNtCs1B75dzsrioZ_11rust_webapi12presentation3api12item_handler5tests33___mock_MockItemRep_ItemRepository8___updateNtB5_11Expectation11in_sequence
FN:104,_RNvMs6_NtNtNtNtNtNtCs1B75dzsrioZ_11rust_webapi12presentation3api12item_handler5tests33___mock_MockItemRep_ItemRepository8___updateNtB5_11Expectation3new
FN:104,_RNvMs6_NtNtNtNtNtNtCs1B75dzsrioZ_11rust_webapi12presentation3api12item_handler5tests33___mock_MockItemRep_ItemRepository8___updateNtB5_11Expectation4once
FN:104,_RNvMs6_NtNtNtNtNtNtCs1B75dzsrioZ_11rust_webapi12presentation3api12item_handler5tests33___mock_MockItemRep_ItemRepository8___updateNtB5_11Expectation5never
FN:104,_RNvMs8_NtNtNtNtNtNtCs1B75dzsrioZ_11rust_webapi12presentation3api12item_handler5tests33___mock_MockItemRep_ItemRepository10___find_allNtB5_12Expectations10checkpoint
FN:104,_RNvMs8_NtNtNtNtNtNtCs1B75dzsrioZ_11rust_webapi12presentation3api12item_handler5tests33___mock_MockItemRep_ItemRepository10___find_allNtB5_12Expectations3new
FN:104,_RNvMs8_NtNtNtNtNtNtCs1B75dzsrioZ_11rust_webapi12presentation3api12item_handler5tests33___mock_MockItemRep_ItemRepository12___find_by_idNtB5_12Expectations10checkpoint
FN:104,_RNvMs8_NtNtNtNtNtNtCs1B75dzsrioZ_11rust_webapi12presentation3api12item_handler5tests33___mock_MockItemRep_ItemRepository12___find_by_idNtB5_12Expectations3new
FN:104,_RNvMs8_NtNtNtNtNtNtCs1B75dzsrioZ_11rust_webapi12presentation3api12item_handler5tests33___mock_MockItemRep_ItemRepository8___createNtB5_12Expectations10checkpoint
FN:104,_RNvMs8_NtNtNtNtNtNtCs1B75dzsrioZ_11rust_webapi12presentation3api12item_handler5tests33___mock_MockItemRep_ItemRepository8___createNtB5_12Expectations3new
FN:104,_RNvMs8_NtNtNtNtNtNtCs1B75dzsrioZ_11rust_webapi12presentation3api12item_handler5tests33___mock_MockItemRep_ItemRepository8___deleteNtB5_12Expectations10checkpoint
FN:104,_RNvMs8_NtNtNtNtNtNtCs1B75dzsrioZ_11rust_webapi12presentation3api12item_handler5tests33___mock_MockItemRep_ItemRepository8___deleteNtB5_12Expectations3new
FN:104,_RNvMs8_NtNtNtNtNtNtCs1B75dzsrioZ_11rust_webapi12presentation3api12item_handler5tests33___mock_MockItemRep_ItemRepository8___updateNtB5_12Expectations10checkpoint
FN:104,_RNvMs8_NtNtNtNtNtNtCs1B75dzsrioZ_11rust_webapi12presentation3api12item_handler5tests33___mock_MockItemRep_ItemRepository8___updateNtB5_12Expectations3new
FN:104,_RNvMs2_NtNtNtNtCs1B75dzsrioZ_11rust_webapi12presentation3api12item_handler5testsNtB5_11MockItemRep3new
FN:104,_RNvMs3_NtNtNtNtCs1B75dzsrioZ_11rust_webapi12presentation3api12item_handler5testsNtB5_11MockItemRep13expect_create
FN:104,_RNvMs3_NtNtNtNtCs1B75dzsrioZ_11rust_webapi12presentation3api12item_handler5testsNtB5_11MockItemRep13expect_delete
FN:104,_RNvMs3_NtNtNtNtCs1B75dzsrioZ_11rust_webapi12presentation3api12item_handler5testsNtB5_11MockItemRep13expect_update
FN:104,_RNvMs3_NtNtNtNtCs1B75dzsrioZ_11rust_webapi12presentation3api12item_handler5testsNtB5_11MockItemRep15expect_find_all
FN:104,_RNvMs3_NtNtNtNtCs1B75dzsrioZ_11rust_webapi12presentation3api12item_handler5testsNtB5_11MockItemRep17expect_find_by_id
FN:104,_RNvXs0_NtNtNtNtCs1B75dzsrioZ_11rust_webapi12presentation3api12item_handler5testsNtB5_26MockItemRep_ItemRepositoryNtNtCsfvfooZQ3Axs_4core7default7Default7default
FN:114,_RNvXs4_NtNtNtNtCs1B75dzsrioZ_11rust_webapi12presentation3api12item_handler5testsNtB5_11MockItemRepNtNtNtCs8Y1garwNj5t_6domain10repository15item_repository14ItemRepository10find_by_id
FN:114,_RNvXs4_NtNtNtNtCs1B75dzsrioZ_11rust_webapi12presentation3api12item_handler5testsNtB5_11MockItemRepNtNtNtCs8Y1garwNj5t_6domain10repository15item_repository14ItemRepository6create
FN:114,_RNvXs4_NtNtNtNtCs1B75dzsrioZ_11rust_webapi12presentation3api12item_handler5testsNtB5_11MockItemRepNtNtNtCs8Y1garwNj5t_6domain10repository15item_repository14ItemRepository6delete
FN:114,_RNvXs4_NtNtNtNtCs1B75dzsrioZ_11rust_webapi12presentation3api12item_handler5testsNtB5_11MockItemRepNtNtNtCs8Y1garwNj5t_6domain10repository15item_repository14ItemRepository6update
FN:114,_RNvXs4_NtNtNtNtCs1B75dzsrioZ_11rust_webapi12presentation3api12item_handler5testsNtB5_11MockItemRepNtNtNtCs8Y1garwNj5t_6domain10repository15item_repository14ItemRepository8find_all
FN:104,_RNvXs_NtNtNtNtCs1B75dzsrioZ_11rust_webapi12presentation3api12item_handler5testsNtB4_11MockItemRepNtNtCsfvfooZQ3Axs_4core7default7Default7default
FN:114,_RNvMNtNtNtNtNtNtCs1B75dzsrioZ_11rust_webapi12presentation3api12item_handler5tests33___mock_MockItemRep_ItemRepository10___find_allNtB2_5Rfunc8call_mut
FN:114,_RNvMs0_NtNtNtNtNtNtCs1B75dzsrioZ_11rust_webapi12presentation3api12item_handler5tests33___mock_MockItemRep_ItemRepository10___find_allNtB5_7Matcher7matches
FN:114,_RNvMs4_NtNtNtNtNtNtCs1B75dzsrioZ_11rust_webapi12presentation3api12item_handler5tests33___mock_MockItemRep_ItemRepository10___find_allNtB5_6Common15verify_sequence
FN:114,_RNvMs4_NtNtNtNtNtNtCs1B75dzsrioZ_11rust_webapi12presentation3api12item_handler5tests33___mock_MockItemRep_ItemRepository10___find_allNtB5_6Common16satisfy_sequence
FN:114,_RNvMs4_NtNtNtNtNtNtCs1B75dzsrioZ_11rust_webapi12presentation3api12item_handler5tests33___mock_MockItemRep_ItemRepository10___find_allNtB5_6Common4call
FN:104,_RNvMs4_NtNtNtNtNtNtCs1B75dzsrioZ_11rust_webapi12presentation3api12item_handler5tests33___mock_MockItemRep_ItemRepository10___find_allNtB5_6Common7is_done
FN:104,_RNvMs4_NtNtNtNtNtNtCs1B75dzsrioZ_11rust_webapi12presentation3api12item_handler5tests33___mock_MockItemRep_ItemRepository10___find_allNtB5_6Common7matches
FN:114,_RNvMs6_NtNtNtNtNtNtCs1B75dzsrioZ_11rust_webapi12presentation3api12item_handler5tests33___mock_MockItemRep_ItemRepository10___find_allNtB5_11Expectation4call
FN:104,_RNvMs6_NtNtNtNtNtNtCs1B75dzsrioZ_11rust_webapi12presentation3api12item_handler5tests33___mock_MockItemRep_ItemRepository10___find_allNtB5_11Expectation7is_done
FN:104,_RNvMs6_NtNtNtNtNtNtCs1B75dzsrioZ_11rust_webapi12presentation3api12item_handler5tests33___mock_MockItemRep_ItemRepository10___find_allNtB5_11Expectation7matches
FN:104,_RNvMs8_NtNtNtNtNtNtCs1B75dzsrioZ_11rust_webapi12presentation3api12item_handler5tests33___mock_MockItemRep_ItemRepository10___find_allNtB5_12Expectations6expect
FN:114,_RNvMsa_NtNtNtNtNtNtCs1B75dzsrioZ_11rust_webapi12presentation3api12item_handler5tests33___mock_MockItemRep_ItemRepository10___find_allNtB5_12Expectations4call
FN:104,_RNvXs1_NtNtNtNtNtNtCs1B75dzsrioZ_11rust_webapi12presentation3api12item_handler5tests33___mock_MockItemRep_ItemRepository10___find_allNtB5_7MatcherNtNtCsfvfooZQ3Axs_4core7default7Default7default
FN:114,_RNvXs2_NtNtNtNtNtNtCs1B75dzsrioZ_11rust_webapi12presentation3api12item_handler5tests33___mock_MockItemRep_ItemRepository10___find_allNtB5_7MatcherNtNtCsfvfooZQ3Axs_4core3fmt7Display3fmt
FN:104,_RNvXs3_NtNtNtNtNtNtCs1B75dzsrioZ_11rust_webapi12presentation3api12item_handler5tests33___mock_MockItemRep_ItemRepository10___find_allNtB5_6CommonNtNtCsfvfooZQ3Axs_4core7default7Default7default
FN:104,_RNvXs7_NtNtNtNtNtNtCs1B75dzsrioZ_11rust_webapi12presentation3api12item_handler5tests33___mock_MockItemRep_ItemRepository10___find_allNtB5_11ExpectationNtNtCsfvfooZQ3Axs_4core7default7Default7default
FN:104,_RNvXs9_NtNtNtNtNtNtCs1B75dzsrioZ_11rust_webapi12presentation3api12item_handler5tests33___mock_MockItemRep_ItemRepository10___find_allNtB5_12ExpectationsNtNtCsfvfooZQ3Axs_4core7default7Default7default
FN:104,_RNvXs_NtNtNtNtNtNtCs1B75dzsrioZ_11rust_webapi12presentation3api12item_handler5tests33___mock_MockItemRep_ItemRepository10___find_allNtB4_5RfuncNtNtCsfvfooZQ3Axs_4core7default7Default7default
FN:104,_RINvMs6_NtNtNtNtNtNtCs1B75dzsrioZ_11rust_webapi12presentation3api12item_handler5tests33___mock_MockItemRep_ItemRepository8___createNtB6_11Expectation11return_onceNCNCNvBa_s_16test_create_item00EBi_
FN:104,_RNCNvMs0_NtNtNtNtNtNtCs1B75dzsrioZ_11rust_webapi12presentation3api12item_handler5tests33___mock_MockItemRep_ItemRepository8___createNtB7_7Matcher7matches0Bj_
FN:114,_RNCNvMsa_NtNtNtNtNtNtCs1B75dzsrioZ_11rust_webapi12presentation3api12item_handler5tests33___mock_MockItemRep_ItemRepository8___createNtB7_12Expectations4call0Bj_
FN:104,_RNCNvMsa_NtNtNtNtNtNtCs1B75dzsrioZ_11rust_webapi12presentation3api12item_handler5tests33___mock_MockItemRep_ItemRepository8___createNtB7_12Expectations4calls_0Bj_
FN:114,_RNvMNtNtNtNtNtNtCs1B75dzsrioZ_11rust_webapi12presentation3api12item_handler5tests33___mock_MockItemRep_ItemRepository8___createNtB2_5Rfunc8call_mut
FN:114,_RNvMs0_NtNtNtNtNtNtCs1B75dzsrioZ_11rust_webapi12presentation3api12item_handler5tests33___mock_MockItemRep_ItemRepository8___createNtB5_7Matcher7matches
FN:114,_RNvMs4_NtNtNtNtNtNtCs1B75dzsrioZ_11rust_webapi12presentation3api12item_handler5tests33___mock_MockItemRep_ItemRepository8___createNtB5_6Common15verify_sequence
FN:114,_RNvMs4_NtNtNtNtNtNtCs1B75dzsrioZ_11rust_webapi12presentation3api12item_handler5tests33___mock_MockItemRep_ItemRepository8___createNtB5_6Common16satisfy_sequence
FN:114,_RNvMs4_NtNtNtNtNtNtCs1B75dzsrioZ_11rust_webapi12presentation3api12item_handler5tests33___mock_MockItemRep_ItemRepository8___createNtB5_6Common4call
FN:104,_RNvMs4_NtNtNtNtNtNtCs1B75dzsrioZ_11rust_webapi12presentation3api12item_handler5tests33___mock_MockItemRep_ItemRepository8___createNtB5_6Common7is_done
FN:104,_RNvMs4_NtNtNtNtNtNtCs1B75dzsrioZ_11rust_webapi12presentation3api12item_handler5tests33___mock_MockItemRep_ItemRepository8___createNtB5_6Common7matches
FN:114,_RNvMs6_NtNtNtNtNtNtCs1B75dzsrioZ_11rust_webapi12presentation3api12item_handler5tests33___mock_MockItemRep_ItemRepository8___createNtB5_11Expectation4call
FN:104,_RNvMs6_NtNtNtNtNtNtCs1B75dzsrioZ_11rust_webapi12presentation3api12item_handler5tests33___mock_MockItemRep_ItemRepository8___createNtB5_11Expectation7is_done
FN:104,_RNvMs6_NtNtNtNtNtNtCs1B75dzsrioZ_11rust_webapi12presentation3api12item_handler5tests33___mock_MockItemRep_ItemRepository8___createNtB5_11Expectation7matches
FN:104,_RNvMs8_NtNtNtNtNtNtCs1B75dzsrioZ_11rust_webapi12presentation3api12item_handler5tests33___mock_MockItemRep_ItemRepository8___createNtB5_12Expectations6expect
FN:114,_RNvMsa_NtNtNtNtNtNtCs1B75dzsrioZ_11rust_webapi12presentation3api12item_handler5tests33___mock_MockItemRep_ItemRepository8___createNtB5_12Expectations4call
FN:104,_RNvXs1_NtNtNtNtNtNtCs1B75dzsrioZ_11rust_webapi12presentation3api12item_handler5tests33___mock_MockItemRep_ItemRepository8___createNtB5_7MatcherNtNtCsfvfooZQ3Axs_4core7default7Default7default
FN:114,_RNvXs2_NtNtNtNtNtNtCs1B75dzsrioZ_11rust_webapi12presentation3api12item_handler5tests33___mock_MockItemRep_ItemRepository8___createNtB5_7MatcherNtNtCsfvfooZQ3Axs_4core3fmt7Display3fmt
FN:104,_RNvXs3_NtNtNtNtNtNtCs1B75dzsrioZ_11rust_webapi12presentation3api12item_handler5tests33___mock_MockItemRep_ItemRepository8___createNtB5_6CommonNtNtCsfvfooZQ3Axs_4core7default7Default7default
FN:104,_RNvXs7_NtNtNtNtNtNtCs1B75dzsrioZ_11rust_webapi12presentation3api12item_handler5tests33___mock_MockItemRep_ItemRepository8___createNtB5_11ExpectationNtNtCsfvfooZQ3Axs_4core7default7Default7default
FN:104,_RNvXs9_NtNtNtNtNtNtCs1B75dzsrioZ_11rust_webapi12presentation3api12item_handler5tests33___mock_MockItemRep_ItemRepository8___createNtB5_12ExpectationsNtNtCsfvfooZQ3Axs_4core7default7Default7default
FN:104,_RNvXs_NtNtNtNtNtNtCs1B75dzsrioZ_11rust_webapi12presentation3api12item_handler5tests33___mock_MockItemRep_ItemRepository8___createNtB4_5RfuncNtNtCsfvfooZQ3Axs_4core7default7Default7default
FN:114,_RNvMNtNtNtNtNtNtCs1B75dzsrioZ_11rust_webapi12presentation3api12item_handler5tests33___mock_MockItemRep_ItemRepository12___find_by_idNtB2_5Rfunc8call_mut
FN:114,_RNvMs0_NtNtNtNtNtNtCs1B75dzsrioZ_11rust_webapi12presentation3api12item_handler5tests33___mock_MockItemRep_ItemRepository12___find_by_idNtB5_7Matcher7matches
FN:114,_RNvMs4_NtNtNtNtNtNtCs1B75dzsrioZ_11rust_webapi12presentation3api12item_handler5tests33___mock_MockItemRep_ItemRepository12___find_by_idNtB5_6Common15verify_sequence
FN:114,_RNvMs4_NtNtNtNtNtNtCs1B75dzsrioZ_11rust_webapi12presentation3api12item_handler5tests33___mock_MockItemRep_ItemRepository12___find_by_idNtB5_6Common16satisfy_sequence
FN:114,_RNvMs4_NtNtNtNtNtNtCs1B75dzsrioZ_11rust_webapi12presentation3api12item_handler5tests33___mock_MockItemRep_ItemRepository12___find_by_idNtB5_6Common4call
FN:104,_RNvMs4_NtNtNtNtNtNtCs1B75dzsrioZ_11rust_webapi12presentation3api12item_handler5tests33___mock_MockItemRep_ItemRepository12___find_by_idNtB5_6Common7is_done
FN:104,_RNvMs4_NtNtNtNtNtNtCs1B75dzsrioZ_11rust_webapi12presentation3api12item_handler5tests33___mock_MockItemRep_ItemRepository12___find_by_idNtB5_6Common7matches
FN:114,_RNvMs6_NtNtNtNtNtNtCs1B75dzsrioZ_11rust_webapi12presentation3api12item_handler5tests33___mock_MockItemRep_ItemRepository12___find_by_idNtB5_11Expectation4call
FN:104,_RNvMs6_NtNtNtNtNtNtCs1B75dzsrioZ_11rust_webapi12presentation3api12item_handler5tests33___mock_MockItemRep_ItemRepository12___find_by_idNtB5_11Expectation7is_done
FN:104,_RNvMs6_NtNtNtNtNtNtCs1B75dzsrioZ_11rust_webapi12presentation3api12item_handler5tests33___mock_MockItemRep_ItemRepository12___find_by_idNtB5_11Expectation7matches
FN:104,_RNvMs8_NtNtNtNtNtNtCs1B75dzsrioZ_11rust_webapi12presentation3api12item_handler5tests33___mock_MockItemRep_ItemRepository12___find_by_idNtB5_12Expectations6expect
FN:114,_RNvMsa_NtNtNtNtNtNtCs1B75dzsrioZ_11rust_webapi12presentation3api12item_handler5tests33___mock_MockItemRep_ItemRepository12___find_by_idNtB5_12Expectations4call
FN:104,_RNvXs1_NtNtNtNtNtNtCs1B75dzsrioZ_11rust_webapi12presentation3api12item_handler5tests33___mock_MockItemRep_ItemRepository12___find_by_idNtB5_7MatcherNtNtCsfvfooZQ3Axs_4core7default7Default7default
FN:114,_RNvXs2_NtNtNtNtNtNtCs1B75dzsrioZ_11rust_webapi12presentation3api12item_handler5tests33___mock_MockItemRep_ItemRepository12___find_by_idNtB5_7MatcherNtNtCsfvfooZQ3Axs_4core3fmt7Display3fmt
FN:104,_RNvXs3_NtNtNtNtNtNtCs1B75dzsrioZ_11rust_webapi12presentation3api12item_handler5tests33___mock_MockItemRep_ItemRepository12___find_by_idNtB5_6CommonNtNtCsfvfooZQ3Axs_4core7default7Default7default
FN:104,_RNvXs7_NtNtNtNtNtNtCs1B75dzsrioZ_11rust_webapi12presentation3api12item_handler5tests33___mock_MockItemRep_ItemRepository12___find_by_idNtB5_11ExpectationNtNtCsfvfooZQ3Axs_4core7default7Default7default
FN:104,_RNvXs9_NtNtNtNtNtNtCs1B75dzsrioZ_11rust_webapi12presentation3api12item_handler5tests33___mock_MockItemRep_ItemRepository12___find_by_idNtB5_12ExpectationsNtNtCsfvfooZQ3Axs_4core7default7Default7default
FN:104,_RNvXs_NtNtNtNtNtNtCs1B75dzsrioZ_11rust_webapi12presentation3api12item_handler5tests33___mock_MockItemRep_ItemRepository12___find_by_idNtB4_5RfuncNtNtCsfvfooZQ3Axs_4core7default7Default7default
FN:104,_RINvMs4_NtNtNtNtNtNtCs1B75dzsrioZ_11rust_webapi12presentation3api12item_handler5tests33___mock_MockItemRep_ItemRepository8___deleteNtB6_6Common4withINtNtCs9l2CZqY40TY_10predicates3ord11EqPredicateyEEBi_
FN:104,_RINvMs6_NtNtNtNtNtNtCs1B75dzsrioZ_11rust_webapi12presentation3api12item_handler5tests33___mock_MockItemRep_ItemRepository8___deleteNtB6_11Expectation11return_onceNCNCNvBa_s_24test_delete_item_success00EBi_
FN:104,_RINvMs6_NtNtNtNtNtNtCs1B75dzsrioZ_11rust_webapi12presentation3api12item_handler5tests33___mock_MockItemRep_ItemRepository8___deleteNtB6_11Expectation11return_onceNCNCNvBa_s_26test_delete_item_not_found00EBi_
FN:104,_RINvMs6_NtNtNtNtNtNtCs1B75dzsrioZ_11rust_webapi12presentation3api12item_handler5tests33___mock_MockItemRep_ItemRepository8___deleteNtB6_11Expectation4withINtNtCs9l2CZqY40TY_10predicates3ord11EqPredicateyEEBi_
FN:104,_RNCNvMs0_NtNtNtNtNtNtCs1B75dzsrioZ_11rust_webapi12presentation3api12item_handler5tests33___mock_MockItemRep_ItemRepository8___deleteNtB7_7Matcher7matches0Bj_
FN:114,_RNCNvMsa_NtNtNtNtNtNtCs1B75dzsrioZ_11rust_webapi12presentation3api12item_handler5tests33___mock_MockItemRep_ItemRepository8___deleteNtB7_12Expectations4call0Bj_
FN:104,_RNCNvMsa_NtNtNtNtNtNtCs1B75dzsrioZ_11rust_webapi12presentation3api12item_handler5tests33___mock_MockItemRep_ItemRepository8___deleteNtB7_12Expectations4calls_0Bj_
FN:117,_RNvMNtNtNtNtCs1B75dzsrioZ_11rust_webapi12presentation3api12item_handler5testsNtNtNtNtBa_14infrastructure4auth10middleware12KeycloakUser4mock
FN:104,_RINvMs6_NtNtNtNtNtNtCs1B75dzsrioZ_11rust_webapi12presentation3api12item_handler5tests33___mock_MockItemRep_ItemRepository10___find_allNtB6_11Expectation11return_onceNCNCNvBa_s_14test_get_items00EBi_
FN:104,_RNCNvMs0_NtNtNtNtNtNtCs1B75dzsrioZ_11rust_webapi12presentation3api12item_handler5tests33___mock_MockItemRep_ItemRepository10___find_allNtB7_7Matcher7matches0Bj_
FN:114,_RNCNvMsa_NtNtNtNtNtNtCs1B75dzsrioZ_11rust_webapi12presentation3api12item_handler5tests33___mock_MockItemRep_ItemRepository10___find_allNtB7_12Expectations4call0Bj_
FN:104,_RNCNvMsa_NtNtNtNtNtNtCs1B75dzsrioZ_11rust_webapi12presentation3api12item_handler5tests33___mock_MockItemRep_ItemRepository10___find_allNtB7_12Expectations4calls_0Bj_
FN:114,_RNvXs5_NtNtNtNtNtNtCs1B75dzsrioZ_11rust_webapi12presentation3api12item_handler5tests33___mock_MockItemRep_ItemRepository10___find_allNtB5_6CommonNtNtNtCsfvfooZQ3Axs_4core3ops4drop4Drop4drop
FN:114,_RNvXs5_NtNtNtNtNtNtCs1B75dzsrioZ_11rust_webapi12presentation3api12item_handler5tests33___mock_MockItemRep_ItemRepository12___find_by_idNtB5_6CommonNtNtNtCsfvfooZQ3Axs_4core3ops4drop4Drop4drop
FN:114,_RNvXs5_NtNtNtNtNtNtCs1B75dzsrioZ_11rust_webapi12presentation3api12item_handler5tests33___mock_MockItemRep_ItemRepository8___createNtB5_6CommonNtNtNtCsfvfooZQ3Axs_4core3ops4drop4Drop4drop
FN:114,_RNvXs5_NtNtNtNtNtNtCs1B75dzsrioZ_11rust_webapi12presentation3api12item_handler5tests33___mock_MockItemRep_ItemRepository8___deleteNtB5_6CommonNtNtNtCsfvfooZQ3Axs_4core3ops4drop4Drop4drop
FN:114,_RNvXs5_NtNtNtNtNtNtCs1B75dzsrioZ_11rust_webapi12presentation3api12item_handler5tests33___mock_MockItemRep_ItemRepository8___updateNtB5_6CommonNtNtNtCsfvfooZQ3Axs_4core3ops4drop4Drop4drop
FN:114,_RNvMNtNtNtNtNtNtCs1B75dzsrioZ_11rust_webapi12presentation3api12item_handler5tests33___mock_MockItemRep_ItemRepository8___updateNtB2_5Rfunc8call_mut
FN:114,_RNvMs0_NtNtNtNtNtNtCs1B75dzsrioZ_11rust_webapi12presentation3api12item_handler5tests33___mock_MockItemRep_ItemRepository8___updateNtB5_7Matcher7matches
FN:114,_RNvMs4_NtNtNtNtNtNtCs1B75dzsrioZ_11rust_webapi12presentation3api12item_handler5tests33___mock_MockItemRep_ItemRepository8___updateNtB5_6Common15verify_sequence
FN:114,_RNvMs4_NtNtNtNtNtNtCs1B75dzsrioZ_11rust_webapi12presentation3api12item_handler5tests33___mock_MockItemRep_ItemRepository8___updateNtB5_6Common16satisfy_sequence
FN:114,_RNvMs4_NtNtNtNtNtNtCs1B75dzsrioZ_11rust_webapi12presentation3api12item_handler5tests33___mock_MockItemRep_ItemRepository8___updateNtB5_6Common4call
FN:104,_RNvMs4_NtNtNtNtNtNtCs1B75dzsrioZ_11rust_webapi12presentation3api12item_handler5tests33___mock_MockItemRep_ItemRepository8___updateNtB5_6Common7is_done
FN:104,_RNvMs4_NtNtNtNtNtNtCs1B75dzsrioZ_11rust_webapi12presentation3api12item_handler5tests33___mock_MockItemRep_ItemRepository8___updateNtB5_6Common7matches
FN:114,_RNvMs6_NtNtNtNtNtNtCs1B75dzsrioZ_11rust_webapi12presentation3api12item_handler5tests33___mock_MockItemRep_ItemRepository8___updateNtB5_11Expectation4call
FN:104,_RNvMs6_NtNtNtNtNtNtCs1B75dzsrioZ_11rust_webapi12presentation3api12item_handler5tests33___mock_MockItemRep_ItemRepository8___updateNtB5_11Expectation7is_done
FN:104,_RNvMs6_NtNtNtNtNtNtCs1B75dzsrioZ_11rust_webapi12presentation3api12item_handler5tests33___mock_MockItemRep_ItemRepository8___updateNtB5_11Expectation7matches
FN:104,_RNvMs8_NtNtNtNtNtNtCs1B75dzsrioZ_11rust_webapi12presentation3api12item_handler5tests33___mock_MockItemRep_ItemRepository8___updateNtB5_12Expectations6expect
FN:114,_RNvMsa_NtNtNtNtNtNtCs1B75dzsrioZ_11rust_webapi12presentation3api12item_handler5tests33___mock_MockItemRep_ItemRepository8___updateNtB5_12Expectations4call
FN:104,_RNvXs1_NtNtNtNtNtNtCs1B75dzsrioZ_11rust_webapi12presentation3api12item_handler5tests33___mock_MockItemRep_ItemRepository8___updateNtB5_7MatcherNtNtCsfvfooZQ3Axs_4core7default7Default7default
FN:114,_RNvXs2_NtNtNtNtNtNtCs1B75dzsrioZ_11rust_webapi12presentation3api12item_handler5tests33___mock_MockItemRep_ItemRepository8___updateNtB5_7MatcherNtNtCsfvfooZQ3Axs_4core3fmt7Display3fmt
FN:104,_RNvXs3_NtNtNtNtNtNtCs1B75dzsrioZ_11rust_webapi12presentation3api12item_handler5tests33___mock_MockItemRep_ItemRepository8___updateNtB5_6CommonNtNtCsfvfooZQ3Axs_4core7default7Default7default
FN:104,_RNvXs7_NtNtNtNtNtNtCs1B75dzsrioZ_11rust_webapi12presentation3api12item_handler5tests33___mock_MockItemRep_ItemRepository8___updateNtB5_11ExpectationNtNtCsfvfooZQ3Axs_4core7default7Default7default
FN:104,_RNvXs9_NtNtNtNtNtNtCs1B75dzsrioZ_11rust_webapi12presentation3api12item_handler5tests33___mock_MockItemRep_ItemRepository8___updateNtB5_12ExpectationsNtNtCsfvfooZQ3Axs_4core7default7Default7default
FN:104,_RNvXs_NtNtNtNtNtNtCs1B75dzsrioZ_11rust_webapi12presentation3api12item_handler5tests33___mock_MockItemRep_ItemRepository8___updateNtB4_5RfuncNtNtCsfvfooZQ3Axs_4core7default7Default7default
FN:50,_RNvMNtNtNtCs1B75dzsrioZ_11rust_webapi12presentation3api12item_handlerNtB2_11ItemHandler11create_item
FN:77,_RNvMNtNtNtCs1B75dzsrioZ_11rust_webapi12presentation3api12item_handlerNtB2_11ItemHandler11delete_item
FN:59,_RNvMNtNtNtCs1B75dzsrioZ_11rust_webapi12presentation3api12item_handlerNtB2_11ItemHandler11update_item
FN:14,_RNvMNtNtNtCs1B75dzsrioZ_11rust_webapi12presentation3api12item_handlerNtB2_11ItemHandler3new
FN:18,_RNvMNtNtNtCs1B75dzsrioZ_11rust_webapi12presentation3api12item_handlerNtB2_11ItemHandler5index
FN:33,_RNvMNtNtNtCs1B75dzsrioZ_11rust_webapi12presentation3api12item_handlerNtB2_11ItemHandler8get_item
FN:22,_RNvMNtNtNtCs1B75dzsrioZ_11rust_webapi12presentation3api12item_handlerNtB2_11ItemHandler9get_items
FN:114,_RNvMNtNtNtNtNtNtCs1B75dzsrioZ_11rust_webapi12presentation3api12item_handler5tests33___mock_MockItemRep_ItemRepository8___deleteNtB2_5Rfunc8call_mut
FN:114,_RNvMs0_NtNtNtNtNtNtCs1B75dzsrioZ_11rust_webapi12presentation3api12item_handler5tests33___mock_MockItemRep_ItemRepository8___deleteNtB5_7Matcher7matches
FN:114,_RNvMs4_NtNtNtNtNtNtCs1B75dzsrioZ_11rust_webapi12presentation3api12item_handler5tests33___mock_MockItemRep_ItemRepository8___deleteNtB5_6Common15verify_sequence
FN:114,_RNvMs4_NtNtNtNtNtNtCs1B75dzsrioZ_11rust_webapi12presentation3api12item_handler5tests33___mock_MockItemRep_ItemRepository8___deleteNtB5_6Common16satisfy_sequence
FN:114,_RNvMs4_NtNtNtNtNtNtCs1B75dzsrioZ_11rust_webapi12presentation3api12item_handler5tests33___mock_MockItemRep_ItemRepository8___deleteNtB5_6Common4call
FN:104,_RNvMs4_NtNtNtNtNtNtCs1B75dzsrioZ_11rust_webapi12presentation3api12item_handler5tests33___mock_MockItemRep_ItemRepository8___deleteNtB5_6Common7is_done
FN:104,_RNvMs4_NtNtNtNtNtNtCs1B75dzsrioZ_11rust_webapi12presentation3api12item_handler5tests33___mock_MockItemRep_ItemRepository8___deleteNtB5_6Common7matches
FN:114,_RNvMs6_NtNtNtNtNtNtCs1B75dzsrioZ_11rust_webapi12presentation3api12item_handler5tests33___mock_MockItemRep_ItemRepository8___deleteNtB5_11Expectation4call
FN:104,_RNvMs6_NtNtNtNtNtNtCs1B75dzsrioZ_11rust_webapi12presentation3api12item_handler5tests33___mock_MockItemRep_ItemRepository8___deleteNtB5_11Expectation7is_done
FN:104,_RNvMs6_NtNtNtNtNtNtCs1B75dzsrioZ_11rust_webapi12presentation3api12item_handler5tests33___mock_MockItemRep_ItemRepository8___deleteNtB5_11Expectation7matches
FN:104,_RNvMs8_NtNtNtNtNtNtCs1B75dzsrioZ_11rust_webapi12presentation3api12item_handler5tests33___mock_MockItemRep_ItemRepository8___deleteNtB5_12Expectations6expect
FN:114,_RNvMsa_NtNtNtNtNtNtCs1B75dzsrioZ_11rust_webapi12presentation3api12item_handler5tests33___mock_MockItemRep_ItemRepository8___deleteNtB5_12Expectations4call
FN:104,_RNvXs1_NtNtNtNtNtNtCs1B75dzsrioZ_11rust_webapi12presentation3api12item_handler5tests33___mock_MockItemRep_ItemRepository8___deleteNtB5_7MatcherNtNtCsfvfooZQ3Axs_4core7default7Default7default
FN:114,_RNvXs2_NtNtNtNtNtNtCs1B75dzsrioZ_11rust_webapi12presentation3api12item_handler5tests33___mock_MockItemRep_ItemRepository8___deleteNtB5_7MatcherNtNtCsfvfooZQ3Axs_4core3fmt7Display3fmt
FN:104,_RNvXs3_NtNtNtNtNtNtCs1B75dzsrioZ_11rust_webapi12presentation3api12item_handler5tests33___mock_MockItemRep_ItemRepository8___deleteNtB5_6CommonNtNtCsfvfooZQ3Axs_4core7default7Default7default
FN:104,_RNvXs7_NtNtNtNtNtNtCs1B75dzsrioZ_11rust_webapi12presentation3api12item_handler5tests33___mock_MockItemRep_ItemRepository8___deleteNtB5_11ExpectationNtNtCsfvfooZQ3Axs_4core7default7Default7default
FN:104,_RNvXs9_NtNtNtNtNtNtCs1B75dzsrioZ_11rust_webapi12presentation3api12item_handler5tests33___mock_MockItemRep_ItemRepository8___deleteNtB5_12ExpectationsNtNtCsfvfooZQ3Axs_4core7default7Default7default
FN:104,_RNvXs_NtNtNtNtNtNtCs1B75dzsrioZ_11rust_webapi12presentation3api12item_handler5tests33___mock_MockItemRep_ItemRepository8___deleteNtB4_5RfuncNtNtCsfvfooZQ3Axs_4core7default7Default7default
FN:178,_RNCNCNvNtNtNtNtCs1B75dzsrioZ_11rust_webapi12presentation3api12item_handler5testss_14test_get_items00Bd_
FN:245,_RNCNCNvNtNtNtNtCs1B75dzsrioZ_11rust_webapi12presentation3api12item_handler5testss_16test_create_item00Bd_
FN:201,_RNCNCNvNtNtNtNtCs1B75dzsrioZ_11rust_webapi12presentation3api12item_handler5testss_19test_get_item_found00Bd_
FN:273,_RNCNCNvNtNtNtNtCs1B75dzsrioZ_11rust_webapi12presentation3api12item_handler5testss_22test_update_item_found00Bd_
FN:280,_RNCNCNvNtNtNtNtCs1B75dzsrioZ_11rust_webapi12presentation3api12item_handler5testss_22test_update_item_found0s_0Bd_
FN:218,_RNCNCNvNtNtNtNtCs1B75dzsrioZ_11rust_webapi12presentation3api12item_handler5testss_23test_get_item_not_found00Bd_
FN:321,_RNCNCNvNtNtNtNtCs1B75dzsrioZ_11rust_webapi12presentation3api12item_handler5testss_24test_delete_item_success00Bd_
FN:338,_RNCNCNvNtNtNtNtCs1B75dzsrioZ_11rust_webapi12presentation3api12item_handler5testss_26test_delete_item_not_found00Bd_
FN:303,_RNCNCNvNtNtNtNtCs1B75dzsrioZ_11rust_webapi12presentation3api12item_handler5testss_26test_update_item_not_found00Bd_
FN:114,_RNCNvXs4_NtNtNtNtCs1B75dzsrioZ_11rust_webapi12presentation3api12item_handler5testsNtB7_11MockItemRepNtNtNtCs8Y1garwNj5t_6domain10repository15item_repository14ItemRepository10find_by_id0Bf_
FN:114,_RNCNvXs4_NtNtNtNtCs1B75dzsrioZ_11rust_webapi12presentation3api12item_handler5testsNtB7_11MockItemRepNtNtNtCs8Y1garwNj5t_6domain10repository15item_repository14ItemRepository6create0Bf_
FN:114,_RNCNvXs4_NtNtNtNtCs1B75dzsrioZ_11rust_webapi12presentation3api12item_handler5testsNtB7_11MockItemRepNtNtNtCs8Y1garwNj5t_6domain10repository15item_repository14ItemRepository6delete0Bf_
FN:114,_RNCNvXs4_NtNtNtNtCs1B75dzsrioZ_11rust_webapi12presentation3api12item_handler5testsNtB7_11MockItemRepNtNtNtCs8Y1garwNj5t_6domain10repository15item_repository14ItemRepository6update0Bf_
FN:114,_RNCNvXs4_NtNtNtNtCs1B75dzsrioZ_11rust_webapi12presentation3api12item_handler5testsNtB7_11MockItemRepNtNtNtCs8Y1garwNj5t_6domain10repository15item_repository14ItemRepository8find_all0Bf_
FN:53,_RNCNvMNtNtNtCs1B75dzsrioZ_11rust_webapi12presentation3api12item_handlerNtB4_11ItemHandler11create_item0Ba_
FN:80,_RNCNvMNtNtNtCs1B75dzsrioZ_11rust_webapi12presentation3api12item_handlerNtB4_11ItemHandler11delete_item0Ba_
FN:63,_RNCNvMNtNtNtCs1B75dzsrioZ_11rust_webapi12presentation3api12item_handlerNtB4_11ItemHandler11update_item0Ba_
FN:18,_RNCNvMNtNtNtCs1B75dzsrioZ_11rust_webapi12presentation3api12item_handlerNtB4_11ItemHandler5index0Ba_
FN:36,_RNCNvMNtNtNtCs1B75dzsrioZ_11rust_webapi12presentation3api12item_handlerNtB4_11ItemHandler8get_item0Ba_
FN:25,_RNCNvMNtNtNtCs1B75dzsrioZ_11rust_webapi12presentation3api12item_handlerNtB4_11ItemHandler9get_items0Ba_
FN:104,_RINvMs6_NtNtNtNtNtNtCs1B75dzsrioZ_11rust_webapi12presentation3api12item_handler5tests33___mock_MockItemRep_ItemRepository8___updateNtB6_11Expectation11return_onceNCNCNvBa_s_22test_update_item_found0s_0EBi_
FN:104,_RNCNvMs0_NtNtNtNtNtNtCs1B75dzsrioZ_11rust_webapi12presentation3api12item_handler5tests33___mock_MockItemRep_ItemRepository8___updateNtB7_7Matcher7matches0Bj_
FN:114,_RNCNvMsa_NtNtNtNtNtNtCs1B75dzsrioZ_11rust_webapi12presentation3api12item_handler5tests33___mock_MockItemRep_ItemRepository8___updateNtB7_12Expectations4call0Bj_
FN:104,_RNCNvMsa_NtNtNtNtNtNtCs1B75dzsrioZ_11rust_webapi12presentation3api12item_handler5tests33___mock_MockItemRep_ItemRepository8___updateNtB7_12Expectations4calls_0Bj_
FN:104,_RINvMs4_NtNtNtNtNtNtCs1B75dzsrioZ_11rust_webapi12presentation3api12item_handler5tests33___mock_MockItemRep_ItemRepository12___find_by_idNtB6_6Common4withINtNtCs9l2CZqY40TY_10predicates3ord11EqPredicateyEEBi_
FN:104,_RINvMs6_NtNtNtNtNtNtCs1B75dzsrioZ_11rust_webapi12presentation3api12item_handler5tests33___mock_MockItemRep_ItemRepository12___find_by_idNtB6_11Expectation11return_onceNCNCNvBa_s_19test_get_item_found00EBi_
FN:104,_RINvMs6_NtNtNtNtNtNtCs1B75dzsrioZ_11rust_webapi12presentation3api12item_handler5tests33___mock_MockItemRep_ItemRepository12___find_by_idNtB6_11Expectation11return_onceNCNCNvBa_s_22test_update_item_found00EBi_
FN:104,_RINvMs6_NtNtNtNtNtNtCs1B75dzsrioZ_11rust_webapi12presentation3api12item_handler5tests33___mock_MockItemRep_ItemRepository12___find_by_idNtB6_11Expectation11return_onceNCNCNvBa_s_23test_get_item_not_found00EBi_
FN:104,_RINvMs6_NtNtNtNtNtNtCs1B75dzsrioZ_11rust_webapi12presentation3api12item_handler5tests33___mock_MockItemRep_ItemRepository12___find_by_idNtB6_11Expectation11return_onceNCNCNvBa_s_26test_update_item_not_found00EBi_
FN:104,_RINvMs6_NtNtNtNtNtNtCs1B75dzsrioZ_11rust_webapi12presentation3api12item_handler5tests33___mock_MockItemRep_ItemRepository12___find_by_idNtB6_11Expectation4withINtNtCs9l2CZqY40TY_10predicates3ord11EqPredicateyEEBi_
FN:104,_RNCNvMs0_NtNtNtNtNtNtCs1B75dzsrioZ_11rust_webapi12presentation3api12item_handler5tests33___mock_MockItemRep_ItemRepository12___find_by_idNtB7_7Matcher7matches0Bj_
FN:114,_RNCNvMsa_NtNtNtNtNtNtCs1B75dzsrioZ_11rust_webapi12presentation3api12item_handler5tests33___mock_MockItemRep_ItemRepository12___find_by_idNtB7_12Expectations4call0Bj_
FN:104,_RNCNvMsa_NtNtNtNtNtNtCs1B75dzsrioZ_11rust_webapi12presentation3api12item_handler5tests33___mock_MockItemRep_ItemRepository12___find_by_idNtB7_12Expectations4calls_0Bj_
FNDA:0,_RINvMs4_NtNtNtNtNtNtCs1B75dzsrioZ_11rust_webapi12presentation3api12item_handler5tests33___mock_MockItemRep_ItemRepository10___find_allNtB6_6Common5timespEBi_
FNDA:0,_RINvMs4_NtNtNtNtNtNtCs1B75dzsrioZ_11rust_webapi12presentation3api12item_handler5tests33___mock_MockItemRep_ItemRepository10___find_allNtB6_6Common5withfpEBi_
FNDA:0,_RINvMs4_NtNtNtNtNtNtCs1B75dzsrioZ_11rust_webapi12presentation3api12item_handler5tests33___mock_MockItemRep_ItemRepository10___find_allNtB6_6Common8withf_stpEBi_
FNDA:0,_RINvMs4_NtNtNtNtNtNtCs1B75dzsrioZ_11rust_webapi12presentation3api12item_handler5tests33___mock_MockItemRep_ItemRepository12___find_by_idNtB6_6Common5timespEBi_
FNDA:0,_RINvMs4_NtNtNtNtNtNtCs1B75dzsrioZ_11rust_webapi12presentation3api12item_handler5tests33___mock_MockItemRep_ItemRepository12___find_by_idNtB6_6Common5withfpEBi_
FNDA:0,_RINvMs4_NtNtNtNtNtNtCs1B75dzsrioZ_11rust_webapi12presentation3api12item_handler5tests33___mock_MockItemRep_ItemRepository12___find_by_idNtB6_6Common8withf_stpEBi_
FNDA:0,_RINvMs4_NtNtNtNtNtNtCs1B75dzsrioZ_11rust_webapi12presentation3api12item_handler5tests33___mock_MockItemRep_ItemRepository8___createNtB6_6Common4withpEBi_
FNDA:0,_RINvMs4_NtNtNtNtNtNtCs1B75dzsrioZ_11rust_webapi12presentation3api12item_handler5tests33___mock_MockItemRep_ItemRepository8___createNtB6_6Common5timespEBi_
FNDA:0,_RINvMs4_NtNtNtNtNtNtCs1B75dzsrioZ_11rust_webapi12presentation3api12item_handler5tests33___mock_MockItemRep_ItemRepository8___createNtB6_6Common5withfpEBi_
FNDA:0,_RINvMs4_NtNtNtNtNtNtCs1B75dzsrioZ_11rust_webapi12presentation3api12item_handler5tests33___mock_MockItemRep_ItemRepository8___createNtB6_6Common8withf_stpEBi_
FNDA:0,_RINvMs4_NtNtNtNtNtNtCs1B75dzsrioZ_11rust_webapi12presentation3api12item_handler5tests33___mock_MockItemRep_ItemRepository8___deleteNtB6_6Common5timespEBi_
FNDA:0,_RINvMs4_NtNtNtNtNtNtCs1B75dzsrioZ_11rust_webapi12presentation3api12item_handler5tests33___mock_MockItemRep_ItemRepository8___deleteNtB6_6Common5withfpEBi_
FNDA:0,_RINvMs4_NtNtNtNtNtNtCs1B75dzsrioZ_11rust_webapi12presentation3api12item_handler5tests33___mock_MockItemRep_ItemRepository8___deleteNtB6_6Common8withf_stpEBi_
FNDA:0,_RINvMs4_NtNtNtNtNtNtCs1B75dzsrioZ_11rust_webapi12presentation3api12item_handler5tests33___mock_MockItemRep_ItemRepository8___updateNtB6_6Common4withpEBi_
FNDA:0,_RINvMs4_NtNtNtNtNtNtCs1B75dzsrioZ_11rust_webapi12presentation3api12item_handler5tests33___mock_MockItemRep_ItemRepository8___updateNtB6_6Common5timespEBi_
FNDA:0,_RINvMs4_NtNtNtNtNtNtCs1B75dzsrioZ_11rust_webapi12presentation3api12item_handler5tests33___mock_MockItemRep_ItemRepository8___updateNtB6_6Common5withfpEBi_
FNDA:0,_RINvMs4_NtNtNtNtNtNtCs1B75dzsrioZ_11rust_webapi12presentation3api12item_handler5tests33___mock_MockItemRep_ItemRepository8___updateNtB6_6Common8withf_stpEBi_
FNDA:0,_RINvMs6_NtNtNtNtNtNtCs1B75dzsrioZ_11rust_webapi12presentation3api12item_handler5tests33___mock_MockItemRep_ItemRepository10___find_allNtB6_11Expectation12return_constpEBi_
FNDA:0,_RINvMs6_NtNtNtNtNtNtCs1B75dzsrioZ_11rust_webapi12presentation3api12item_handler5tests33___mock_MockItemRep_ItemRepository10___find_allNtB6_11Expectation12returning_stpEBi_
FNDA:0,_RINvMs6_NtNtNtNtNtNtCs1B75dzsrioZ_11rust_webapi12presentation3api12item_handler5tests33___mock_MockItemRep_ItemRepository10___find_allNtB6_11Expectation14return_once_stpEBi_
FNDA:0,_RINvMs6_NtNtNtNtNtNtCs1B75dzsrioZ_11rust_webapi12presentation3api12item_handler5tests33___mock_MockItemRep_ItemRepository10___find_allNtB6_11Expectation15return_const_stpEBi_
FNDA:0,_RINvMs6_NtNtNtNtNtNtCs1B75dzsrioZ_11rust_webapi12presentation3api12item_handler5tests33___mock_MockItemRep_ItemRepository10___find_allNtB6_11Expectation5timespEBi_
FNDA:0,_RINvMs6_NtNtNtNtNtNtCs1B75dzsrioZ_11rust_webapi12presentation3api12item_handler5tests33___mock_MockItemRep_ItemRepository10___find_allNtB6_11Expectation5withfpEBi_
FNDA:0,_RINvMs6_NtNtNtNtNtNtCs1B75dzsrioZ_11rust_webapi12presentation3api12item_handler5tests33___mock_MockItemRep_ItemRepository10___find_allNtB6_11Expectation8withf_stpEBi_
FNDA:0,_RINvMs6_NtNtNtNtNtNtCs1B75dzsrioZ_11rust_webapi12presentation3api12item_handler5tests33___mock_MockItemRep_ItemRepository10___find_allNtB6_11Expectation9returningpEBi_
FNDA:0,_RINvMs6_NtNtNtNtNtNtCs1B75dzsrioZ_11rust_webapi12presentation3api12item_handler5tests33___mock_MockItemRep_ItemRepository12___find_by_idNtB6_11Expectation12return_constpEBi_
FNDA:0,_RINvMs6_NtNtNtNtNtNtCs1B75dzsrioZ_11rust_webapi12presentation3api12item_handler5tests33___mock_MockItemRep_ItemRepository12___find_by_idNtB6_11Expectation12returning_stpEBi_
FNDA:0,_RINvMs6_NtNtNtNtNtNtCs1B75dzsrioZ_11rust_webapi12presentation3api12item_handler5tests33___mock_MockItemRep_ItemRepository12___find_by_idNtB6_11Expectation14return_once_stpEBi_
FNDA:0,_RINvMs6_NtNtNtNtNtNtCs1B75dzsrioZ_11rust_webapi12presentation3api12item_handler5tests33___mock_MockItemRep_ItemRepository12___find_by_idNtB6_11Expectation15return_const_stpEBi_
FNDA:0,_RINvMs6_NtNtNtNtNtNtCs1B75dzsrioZ_11rust_webapi12presentation3api12item_handler5tests33___mock_MockItemRep_ItemRepository12___find_by_idNtB6_11Expectation5timespEBi_
FNDA:0,_RINvMs6_NtNtNtNtNtNtCs1B75dzsrioZ_11rust_webapi12presentation3api12item_handler5tests33___mock_MockItemRep_ItemRepository12___find_by_idNtB6_11Expectation5withfpEBi_
FNDA:0,_RINvMs6_NtNtNtNtNtNtCs1B75dzsrioZ_11rust_webapi12presentation3api12item_handler5tests33___mock_MockItemRep_ItemRepository12___find_by_idNtB6_11Expectation8withf_stpEBi_
FNDA:0,_RINvMs6_NtNtNtNtNtNtCs1B75dzsrioZ_11rust_webapi12presentation3api12item_handler5tests33___mock_MockItemRep_ItemRepository12___find_by_idNtB6_11Expectation9returningpEBi_
FNDA:0,_RINvMs6_NtNtNtNtNtNtCs1B75dzsrioZ_11rust_webapi12presentation3api12item_handler5tests33___mock_MockItemRep_ItemRepository8___createNtB6_11Expectation12return_constpEBi_
FNDA:0,_RINvMs6_NtNtNtNtNtNtCs1B75dzsrioZ_11rust_webapi12presentation3api12item_handler5tests33___mock_MockItemRep_ItemRepository8___createNtB6_11Expectation12returning_stpEBi_
FNDA:0,_RINvMs6_NtNtNtNtNtNtCs1B75dzsrioZ_11rust_webapi12presentation3api12item_handler5tests33___mock_MockItemRep_ItemRepository8___createNtB6_11Expectation14return_once_stpEBi_
FNDA:0,_RINvMs6_NtNtNtNtNtNtCs1B75dzsrioZ_11rust_webapi12presentation3api12item_handler5tests33___mock_MockItemRep_ItemRepository8___createNtB6_11Expectation15return_const_stpEBi_
FNDA:0,_RINvMs6_NtNtNtNtNtNtCs1B75dzsrioZ_11rust_webapi12presentation3api12item_handler5tests33___mock_MockItemRep_ItemRepository8___createNtB6_11Expectation4withpEBi_
FNDA:0,_RINvMs6_NtNtNtNtNtNtCs1B75dzsrioZ_11rust_webapi12presentation3api12item_handler5tests33___mock_MockItemRep_ItemRepository8___createNtB6_11Expectation5timespEBi_
FNDA:0,_RINvMs6_NtNtNtNtNtNtCs1B75dzsrioZ_11rust_webapi12presentation3api12item_handler5tests33___mock_MockItemRep_ItemRepository8___createNtB6_11Expectation5withfpEBi_
FNDA:0,_RINvMs6_NtNtNtNtNtNtCs1B75dzsrioZ_11rust_webapi12presentation3api12item_handler5tests33___mock_MockItemRep_ItemRepository8___createNtB6_11Expectation8withf_stpEBi_
FNDA:0,_RINvMs6_NtNtNtNtNtNtCs1B75dzsrioZ_11rust_webapi12presentation3api12item_handler5tests33___mock_MockItemRep_ItemRepository8___createNtB6_11Expectation9returningpEBi_
FNDA:0,_RINvMs6_NtNtNtNtNtNtCs1B75dzsrioZ_11rust_webapi12presentation3api12item_handler5tests33___mock_MockItemRep_ItemRepository8___deleteNtB6_11Expectation12return_constpEBi_
FNDA:0,_RINvMs6_NtNtNtNtNtNtCs1B75dzsrioZ_11rust_webapi12presentation3api12item_handler5tests33___mock_MockItemRep_ItemRepository8___deleteNtB6_11Expectation12returning_stpEBi_
FNDA:0,_RINvMs6_NtNtNtNtNtNtCs1B75dzsrioZ_11rust_webapi12presentation3api12item_handler5tests33___mock_MockItemRep_ItemRepository8___deleteNtB6_11Expectation14return_once_stpEBi_
FNDA:0,_RINvMs6_NtNtNtNtNtNtCs1B75dzsrioZ_11rust_webapi12presentation3api12item_handler5tests33___mock_MockItemRep_ItemRepository8___deleteNtB6_11Expectation15return_const_stpEBi_
FNDA:0,_RINvMs6_NtNtNtNtNtNtCs1B75dzsrioZ_11rust_webapi12presentation3api12item_handler5tests33___mock_MockItemRep_ItemRepository8___deleteNtB6_11Expectation5timespEBi_
FNDA:0,_RINvMs6_NtNtNtNtNtNtCs1B75dzsrioZ_11rust_webapi12presentation3api12item_handler5tests33___mock_MockItemRep_ItemRepository8___deleteNtB6_11Expectation5withfpEBi_
FNDA:0,_RINvMs6_NtNtNtNtNtNtCs1B75dzsrioZ_11rust_webapi12presentation3api12item_handler5tests33___mock_MockItemRep_ItemRepository8___deleteNtB6_11Expectation8withf_stpEBi_
FNDA:0,_RINvMs6_NtNtNtNtNtNtCs1B75dzsrioZ_11rust_webapi12presentation3api12item_handler5tests33___mock_MockItemRep_ItemRepository8___deleteNtB6_11Expectation9returningpEBi_
FNDA:0,_RINvMs6_NtNtNtNtNtNtCs1B75dzsrioZ_11rust_webapi12presentation3api12item_handler5tests33___mock_MockItemRep_ItemRepository8___updateNtB6_11Expectation12return_constpEBi_
FNDA:0,_RINvMs6_NtNtNtNtNtNtCs1B75dzsrioZ_11rust_webapi12presentation3api12item_handler5tests33___mock_MockItemRep_ItemRepository8___updateNtB6_11Expectation12returning_stpEBi_
FNDA:0,_RINvMs6_NtNtNtNtNtNtCs1B75dzsrioZ_11rust_webapi12presentation3api12item_handler5tests33___mock_MockItemRep_ItemRepository8___updateNtB6_11Expectation14return_once_stpEBi_
FNDA:0,_RINvMs6_NtNtNtNtNtNtCs1B75dzsrioZ_11rust_webapi12presentation3api12item_handler5tests33___mock_MockItemRep_ItemRepository8___updateNtB6_11Expectation15return_const_stpEBi_
FNDA:0,_RINvMs6_NtNtNtNtNtNtCs1B75dzsrioZ_11rust_webapi12presentation3api12item_handler5tests33___mock_MockItemRep_ItemRepository8___updateNtB6_11Expectation4withpEBi_
FNDA:0,_RINvMs6_NtNtNtNtNtNtCs1B75dzsrioZ_11rust_webapi12presentation3api12item_handler5tests33___mock_MockItemRep_ItemRepository8___updateNtB6_11Expectation5timespEBi_
FNDA:0,_RINvMs6_NtNtNtNtNtNtCs1B75dzsrioZ_11rust_webapi12presentation3api12item_handler5tests33___mock_MockItemRep_ItemRepository8___updateNtB6_11Expectation5withfpEBi_
FNDA:0,_RINvMs6_NtNtNtNtNtNtCs1B75dzsrioZ_11rust_webapi12presentation3api12item_handler5tests33___mock_MockItemRep_ItemRepository8___updateNtB6_11Expectation8withf_stpEBi_
FNDA:0,_RINvMs6_NtNtNtNtNtNtCs1B75dzsrioZ_11rust_webapi12presentation3api12item_handler5tests33___mock_MockItemRep_ItemRepository8___updateNtB6_11Expectation9returningpEBi_
FNDA:0,_RNCINvMs6_NtNtNtNtNtNtCs1B75dzsrioZ_11rust_webapi12presentation3api12item_handler5tests33___mock_MockItemRep_ItemRepository10___find_allNtB8_11Expectation12return_constpE0Bk_
FNDA:0,_RNCINvMs6_NtNtNtNtNtNtCs1B75dzsrioZ_11rust_webapi12presentation3api12item_handler5tests33___mock_MockItemRep_ItemRepository10___find_allNtB8_11Expectation15return_const_stpE0Bk_
FNDA:0,_RNCINvMs6_NtNtNtNtNtNtCs1B75dzsrioZ_11rust_webapi12presentation3api12item_handler5tests33___mock_MockItemRep_ItemRepository12___find_by_idNtB8_11Expectation12return_constpE0Bk_
FNDA:0,_RNCINvMs6_NtNtNtNtNtNtCs1B75dzsrioZ_11rust_webapi12presentation3api12item_handler5tests33___mock_MockItemRep_ItemRepository12___find_by_idNtB8_11Expectation15return_const_stpE0Bk_
FNDA:0,_RNCINvMs6_NtNtNtNtNtNtCs1B75dzsrioZ_11rust_webapi12presentation3api12item_handler5tests33___mock_MockItemRep_ItemRepository8___createNtB8_11Expectation12return_constpE0Bk_
FNDA:0,_RNCINvMs6_NtNtNtNtNtNtCs1B75dzsrioZ_11rust_webapi12presentation3api12item_handler5tests33___mock_MockItemRep_ItemRepository8___createNtB8_11Expectation15return_const_stpE0Bk_
FNDA:0,_RNCINvMs6_NtNtNtNtNtNtCs1B75dzsrioZ_11rust_webapi12presentation3api12item_handler5tests33___mock_MockItemRep_ItemRepository8___deleteNtB8_11Expectation12return_constpE0Bk_
FNDA:0,_RNCINvMs6_NtNtNtNtNtNtCs1B75dzsrioZ_11rust_webapi12presentation3api12item_handler5tests33___mock_MockItemRep_ItemRepository8___deleteNtB8_11Expectation15return_const_stpE0Bk_
FNDA:0,_RNCINvMs6_NtNtNtNtNtNtCs1B75dzsrioZ_11rust_webapi12presentation3api12item_handler5tests33___mock_MockItemRep_ItemRepository8___updateNtB8_11Expectation12return_constpE0Bk_
FNDA:0,_RNCINvMs6_NtNtNtNtNtNtCs1B75dzsrioZ_11rust_webapi12presentation3api12item_handler5tests33___mock_MockItemRep_ItemRepository8___updateNtB8_11Expectation15return_const_stpE0Bk_
FNDA:0,_RNvMs1_NtNtNtNtCs1B75dzsrioZ_11rust_webapi12presentation3api12item_handler5testsNtB5_26MockItemRep_ItemRepository10checkpoint
FNDA:0,_RNvMs2_NtNtNtNtCs1B75dzsrioZ_11rust_webapi12presentation3api12item_handler5testsNtB5_11MockItemRep10checkpoint
FNDA:0,_RNvMs4_NtNtNtNtNtNtCs1B75dzsrioZ_11rust_webapi12presentation3api12item_handler5tests33___mock_MockItemRep_ItemRepository10___find_allNtB5_6Common11in_sequence
FNDA:0,_RNvMs4_NtNtNtNtNtNtCs1B75dzsrioZ_11rust_webapi12presentation3api12item_handler5tests33___mock_MockItemRep_ItemRepository10___find_allNtB5_6Common4with
FNDA:0,_RNvMs4_NtNtNtNtNtNtCs1B75dzsrioZ_11rust_webapi12presentation3api12item_handler5tests33___mock_MockItemRep_ItemRepository10___find_allNtB5_6Common5never
FNDA:0,_RNvMs4_NtNtNtNtNtNtCs1B75dzsrioZ_11rust_webapi12presentation3api12item_handler5tests33___mock_MockItemRep_ItemRepository12___find_by_idNtB5_6Common11in_sequence
FNDA:0,_RNvMs4_NtNtNtNtNtNtCs1B75dzsrioZ_11rust_webapi12presentation3api12item_handler5tests33___mock_MockItemRep_ItemRepository12___find_by_idNtB5_6Common5never
FNDA:0,_RNvMs4_NtNtNtNtNtNtCs1B75dzsrioZ_11rust_webapi12presentation3api12item_handler5tests33___mock_MockItemRep_ItemRepository8___createNtB5_6Common11in_sequence
FNDA:0,_RNvMs4_NtNtNtNtNtNtCs1B75dzsrioZ_11rust_webapi12presentation3api12item_handler5tests33___mock_MockItemRep_ItemRepository8___createNtB5_6Common5never
FNDA:0,_RNvMs4_NtNtNtNtNtNtCs1B75dzsrioZ_11rust_webapi12presentation3api12item_handler5tests33___mock_MockItemRep_ItemRepository8___deleteNtB5_6Common11in_sequence
FNDA:0,_RNvMs4_NtNtNtNtNtNtCs1B75dzsrioZ_11rust_webapi12presentation3api12item_handler5tests33___mock_MockItemRep_ItemRepository8___deleteNtB5_6Common5never
FNDA:0,_RNvMs4_NtNtNtNtNtNtCs1B75dzsrioZ_11rust_webapi12presentation3api12item_handler5tests33___mock_MockItemRep_ItemRepository8___updateNtB5_6Common11in_sequence
FNDA:0,_RNvMs4_NtNtNtNtNtNtCs1B75dzsrioZ_11rust_webapi12presentation3api12item_handler5tests33___mock_MockItemRep_ItemRepository8___updateNtB5_6Common5never
FNDA:0,_RNvMs6_NtNtNtNtNtNtCs1B75dzsrioZ_11rust_webapi12presentation3api12item_handler5tests33___mock_MockItemRep_ItemRepository10___find_allNtB5_11Expectation11in_sequence
FNDA:0,_RNvMs6_NtNtNtNtNtNtCs1B75dzsrioZ_11rust_webapi12presentation3api12item_handler5tests33___mock_MockItemRep_ItemRepository10___find_allNtB5_11Expectation3new
FNDA:0,_RNvMs6_NtNtNtNtNtNtCs1B75dzsrioZ_11rust_webapi12presentation3api12item_handler5tests33___mock_MockItemRep_ItemRepository10___find_allNtB5_11Expectation4once
FNDA:0,_RNvMs6_NtNtNtNtNtNtCs1B75dzsrioZ_11rust_webapi12presentation3api12item_handler5tests33___mock_MockItemRep_ItemRepository10___find_allNtB5_11Expectation4with
FNDA:0,_RNvMs6_NtNtNtNtNtNtCs1B75dzsrioZ_11rust_webapi12presentation3api12item_handler5tests33___mock_MockItemRep_ItemRepository10___find_allNtB5_11Expectation5never
FNDA:0,_RNvMs6_NtNtNtNtNtNtCs1B75dzsrioZ_11rust_webapi12presentation3api12item_handler5tests33___mock_MockItemRep_ItemRepository12___find_by_idNtB5_11Expectation11in_sequence
FNDA:0,_RNvMs6_NtNtNtNtNtNtCs1B75dzsrioZ_11rust_webapi12presentation3api12item_handler5tests33___mock_MockItemRep_ItemRepository12___find_by_idNtB5_11Expectation3new
FNDA:0,_RNvMs6_NtNtNtNtNtNtCs1B75dzsrioZ_11rust_webapi12presentation3api12item_handler5tests33___mock_MockItemRep_ItemRepository12___find_by_idNtB5_11Expectation4once
FNDA:0,_RNvMs6_NtNtNtNtNtNtCs1B75dzsrioZ_11rust_webapi12presentation3api12item_handler5tests33___mock_MockItemRep_ItemRepository12___find_by_idNtB5_11Expectation5never
FNDA:0,_RNvMs6_NtNtNtNtNtNtCs1B75dzsrioZ_11rust_webapi12presentation3api12item_handler5tests33___mock_MockItemRep_ItemRepository8___createNtB5_11Expectation11in_sequence
FNDA:0,_RNvMs6_NtNtNtNtNtNtCs1B75dzsrioZ_11rust_webapi12presentation3api12item_handler5tests33___mock_MockItemRep_ItemRepository8___createNtB5_11Expectation3new
FNDA:0,_RNvMs6_NtNtNtNtNtNtCs1B75dzsrioZ_11rust_webapi12presentation3api12item_handler5tests33___mock_MockItemRep_ItemRepository8___createNtB5_11Expectation4once
FNDA:0,_RNvMs6_NtNtNtNtNtNtCs1B75dzsrioZ_11rust_webapi12presentation3api12item_handler5tests33___mock_MockItemRep_ItemRepository8___createNtB5_11Expectation5never
FNDA:0,_RNvMs6_NtNtNtNtNtNtCs1B75dzsrioZ_11rust_webapi12presentation3api12item_handler5tests33___mock_MockItemRep_ItemRepository8___deleteNtB5_11Expectation11in_sequence
FNDA:0,_RNvMs6_NtNtNtNtNtNtCs1B75dzsrioZ_11rust_webapi12presentation3api12item_handler5tests33___mock_MockItemRep_ItemRepository8___deleteNtB5_11Expectation3new
FNDA:0,_RNvMs6_NtNtNtNtNtNtCs1B75dzsrioZ_11rust_webapi12presentation3api12item_handler5tests33___mock_MockItemRep_ItemRepository8___deleteNtB5_11Expectation4once
FNDA:0,_RNvMs6_NtNtNtNtNtNtCs1B75dzsrioZ_11rust_webapi12presentation3api12item_handler5tests33___mock_MockItemRep_ItemRepository8___deleteNtB5_11Expectation5never
FNDA:0,_RNvMs6_NtNtNtNtNtNtCs1B75dzsrioZ_11rust_webapi12presentation3api12item_handler5tests33___mock_MockItemRep_ItemRepository8___updateNtB5_11Expectation11in_sequence
FNDA:0,_RNvMs6_NtNtNtNtNtNtCs1B75dzsrioZ_11rust_webapi12presentation3api12item_handler5tests33___mock_MockItemRep_ItemRepository8___updateNtB5_11Expectation3new
FNDA:0,_RNvMs6_NtNtNtNtNtNtCs1B75dzsrioZ_11rust_webapi12presentation3api12item_handler5tests33___mock_MockItemRep_ItemRepository8___updateNtB5_11Expectation4once
FNDA:0,_RNvMs6_NtNtNtNtNtNtCs1B75dzsrioZ_11rust_webapi12presentation3api12item_handler5tests33___mock_MockItemRep_ItemRepository8___updateNtB5_11Expectation5never
FNDA:0,_RNvMs8_NtNtNtNtNtNtCs1B75dzsrioZ_11rust_webapi12presentation3api12item_handler5tests33___mock_MockItemRep_ItemRepository10___find_allNtB5_12Expectations10checkpoint
FNDA:0,_RNvMs8_NtNtNtNtNtNtCs1B75dzsrioZ_11rust_webapi12presentation3api12item_handler5tests33___mock_MockItemRep_ItemRepository10___find_allNtB5_12Expectations3new
FNDA:0,_RNvMs8_NtNtNtNtNtNtCs1B75dzsrioZ_11rust_webapi12presentation3api12item_handler5tests33___mock_MockItemRep_ItemRepository12___find_by_idNtB5_12Expectations10checkpoint
FNDA:0,_RNvMs8_NtNtNtNtNtNtCs1B75dzsrioZ_11rust_webapi12presentation3api12item_handler5tests33___mock_MockItemRep_ItemRepository12___find_by_idNtB5_12Expectations3new
FNDA:0,_RNvMs8_NtNtNtNtNtNtCs1B75dzsrioZ_11rust_webapi12presentation3api12item_handler5tests33___mock_MockItemRep_ItemRepository8___createNtB5_12Expectations10checkpoint
FNDA:0,_RNvMs8_NtNtNtNtNtNtCs1B75dzsrioZ_11rust_webapi12presentation3api12item_handler5tests33___mock_MockItemRep_ItemRepository8___createNtB5_12Expectations3new
FNDA:0,_RNvMs8_NtNtNtNtNtNtCs1B75dzsrioZ_11rust_webapi12presentation3api12item_handler5tests33___mock_MockItemRep_ItemRepository8___deleteNtB5_12Expectations10checkpoint
FNDA:0,_RNvMs8_NtNtNtNtNtNtCs1B75dzsrioZ_11rust_webapi12presentation3api12item_handler5tests33___mock_MockItemRep_ItemRepository8___deleteNtB5_12Expectations3new
FNDA:0,_RNvMs8_NtNtNtNtNtNtCs1B75dzsrioZ_11rust_webapi12presentation3api12item_handler5tests33___mock_MockItemRep_ItemRepository8___updateNtB5_12Expectations10checkpoint
FNDA:0,_RNvMs8_NtNtNtNtNtNtCs1B75dzsrioZ_11rust_webapi12presentation3api12item_handler5tests33___mock_MockItemRep_ItemRepository8___updateNtB5_12Expectations3new
FNDA:8,_RNvMs2_NtNtNtNtCs1B75dzsrioZ_11rust_webapi12presentation3api12item_handler5testsNtB5_11MockItemRep3new
FNDA:1,_RNvMs3_NtNtNtNtCs1B75dzsrioZ_11rust_webapi12presentation3api12item_handler5testsNtB5_11MockItemRep13expect_create
FNDA:2,_RNvMs3_NtNtNtNtCs1B75dzsrioZ_11rust_webapi12presentation3api12item_handler5testsNtB5_11MockItemRep13expect_delete
FNDA:1,_RNvMs3_NtNtNtNtCs1B75dzsrioZ_11rust_webapi12presentation3api12item_handler5testsNtB5_11MockItemRep13expect_update
FNDA:1,_RNvMs3_NtNtNtNtCs1B75dzsrioZ_11rust_webapi12presentation3api12item_handler5testsNtB5_11MockItemRep15expect_find_all
FNDA:4,_RNvMs3_NtNtNtNtCs1B75dzsrioZ_11rust_webapi12presentation3api12item_handler5testsNtB5_11MockItemRep17expect_find_by_id
FNDA:8,_RNvXs0_NtNtNtNtCs1B75dzsrioZ_11rust_webapi12presentation3api12item_handler5testsNtB5_26MockItemRep_ItemRepositoryNtNtCsfvfooZQ3Axs_4core7default7Default7default
FNDA:4,_RNvXs4_NtNtNtNtCs1B75dzsrioZ_11rust_webapi12presentation3api12item_handler5testsNtB5_11MockItemRepNtNtNtCs8Y1garwNj5t_6domain10repository15item_repository14ItemRepository10find_by_id
FNDA:1,_RNvXs4_NtNtNtNtCs1B75dzsrioZ_11rust_webapi12presentation3api12item_handler5testsNtB5_11MockItemRepNtNtNtCs8Y1garwNj5t_6domain10repository15item_repository14ItemRepository6create
FNDA:2,_RNvXs4_NtNtNtNtCs1B75dzsrioZ_11rust_webapi12presentation3api12item_handler5testsNtB5_11MockItemRepNtNtNtCs8Y1garwNj5t_6domain10repository15item_repository14ItemRepository6delete
FNDA:1,_RNvXs4_NtNtNtNtCs1B75dzsrioZ_11rust_webapi12presentation3api12item_handler5testsNtB5_11MockItemRepNtNtNtCs8Y1garwNj5t_6domain10repository15item_repository14ItemRepository6update
FNDA:1,_RNvXs4_NtNtNtNtCs1B75dzsrioZ_11rust_webapi12presentation3api12item_handler5testsNtB5_11MockItemRepNtNtNtCs8Y1garwNj5t_6domain10repository15item_repository14ItemRepository8find_all
FNDA:8,_RNvXs_NtNtNtNtCs1B75dzsrioZ_11rust_webapi12presentation3api12item_handler5testsNtB4_11MockItemRepNtNtCsfvfooZQ3Axs_4core7default7Default7default
FNDA:1,_RNvMNtNtNtNtNtNtCs1B75dzsrioZ_11rust_webapi12presentation3api12item_handler5tests33___mock_MockItemRep_ItemRepository10___find_allNtB2_5Rfunc8call_mut
FNDA:1,_RNvMs0_NtNtNtNtNtNtCs1B75dzsrioZ_11rust_webapi12presentation3api12item_handler5tests33___mock_MockItemRep_ItemRepository10___find_allNtB5_7Matcher7matches
FNDA:1,_RNvMs4_NtNtNtNtNtNtCs1B75dzsrioZ_11rust_webapi12presentation3api12item_handler5tests33___mock_MockItemRep_ItemRepository10___find_allNtB5_6Common15verify_sequence
FNDA:1,_RNvMs4_NtNtNtNtNtNtCs1B75dzsrioZ_11rust_webapi12presentation3api12item_handler5tests33___mock_MockItemRep_ItemRepository10___find_allNtB5_6Common16satisfy_sequence
FNDA:1,_RNvMs4_NtNtNtNtNtNtCs1B75dzsrioZ_11rust_webapi12presentation3api12item_handler5tests33___mock_MockItemRep_ItemRepository10___find_allNtB5_6Common4call
FNDA:1,_RNvMs4_NtNtNtNtNtNtCs1B75dzsrioZ_11rust_webapi12presentation3api12item_handler5tests33___mock_MockItemRep_ItemRepository10___find_allNtB5_6Common7is_done
FNDA:1,_RNvMs4_NtNtNtNtNtNtCs1B75dzsrioZ_11rust_webapi12presentation3api12item_handler5tests33___mock_MockItemRep_ItemRepository10___find_allNtB5_6Common7matches
FNDA:1,_RNvMs6_NtNtNtNtNtNtCs1B75dzsrioZ_11rust_webapi12presentation3api12item_handler5tests33___mock_MockItemRep_ItemRepository10___find_allNtB5_11Expectation4call
FNDA:1,_RNvMs6_NtNtNtNtNtNtCs1B75dzsrioZ_11rust_webapi12presentation3api12item_handler5tests33___mock_MockItemRep_ItemRepository10___find_allNtB5_11Expectation7is_done
FNDA:1,_RNvMs6_NtNtNtNtNtNtCs1B75dzsrioZ_11rust_webapi12presentation3api12item_handler5tests33___mock_MockItemRep_ItemRepository10___find_allNtB5_11Expectation7matches
FNDA:1,_RNvMs8_NtNtNtNtNtNtCs1B75dzsrioZ_11rust_webapi12presentation3api12item_handler5tests33___mock_MockItemRep_ItemRepository10___find_allNtB5_12Expectations6expect
FNDA:1,_RNvMsa_NtNtNtNtNtNtCs1B75dzsrioZ_11rust_webapi12presentation3api12item_handler5tests33___mock_MockItemRep_ItemRepository10___find_allNtB5_12Expectations4call
FNDA:1,_RNvXs1_NtNtNtNtNtNtCs1B75dzsrioZ_11rust_webapi12presentation3api12item_handler5tests33___mock_MockItemRep_ItemRepository10___find_allNtB5_7MatcherNtNtCsfvfooZQ3Axs_4core7default7Default7default
FNDA:1,_RNvXs2_NtNtNtNtNtNtCs1B75dzsrioZ_11rust_webapi12presentation3api12item_handler5tests33___mock_MockItemRep_ItemRepository10___find_allNtB5_7MatcherNtNtCsfvfooZQ3Axs_4core3fmt7Display3fmt
FNDA:1,_RNvXs3_NtNtNtNtNtNtCs1B75dzsrioZ_11rust_webapi12presentation3api12item_handler5tests33___mock_MockItemRep_ItemRepository10___find_allNtB5_6CommonNtNtCsfvfooZQ3Axs_4core7default7Default7default
FNDA:1,_RNvXs7_NtNtNtNtNtNtCs1B75dzsrioZ_11rust_webapi12presentation3api12item_handler5tests33___mock_MockItemRep_ItemRepository10___find_allNtB5_11ExpectationNtNtCsfvfooZQ3Axs_4core7default7Default7default
FNDA:8,_RNvXs9_NtNtNtNtNtNtCs1B75dzsrioZ_11rust_webapi12presentation3api12item_handler5tests33___mock_MockItemRep_ItemRepository10___find_allNtB5_12ExpectationsNtNtCsfvfooZQ3Axs_4core7default7Default7default
FNDA:1,_RNvXs_NtNtNtNtNtNtCs1B75dzsrioZ_11rust_webapi12presentation3api12item_handler5tests33___mock_MockItemRep_ItemRepository10___find_allNtB4_5RfuncNtNtCsfvfooZQ3Axs_4core7default7Default7default
FNDA:1,_RINvMs6_NtNtNtNtNtNtCs1B75dzsrioZ_11rust_webapi12presentation3api12item_handler5tests33___mock_MockItemRep_ItemRepository8___createNtB6_11Expectation11return_onceNCNCNvBa_s_16test_create_item00EBi_
FNDA:0,_RNCNvMs0_NtNtNtNtNtNtCs1B75dzsrioZ_11rust_webapi12presentation3api12item_handler5tests33___mock_MockItemRep_ItemRepository8___createNtB7_7Matcher7matches0Bj_
FNDA:1,_RNCNvMsa_NtNtNtNtNtNtCs1B75dzsrioZ_11rust_webapi12presentation3api12item_handler5tests33___mock_MockItemRep_ItemRepository8___createNtB7_12Expectations4call0Bj_
FNDA:1,_RNCNvMsa_NtNtNtNtNtNtCs1B75dzsrioZ_11rust_webapi12presentation3api12item_handler5tests33___mock_MockItemRep_ItemRepository8___createNtB7_12Expectations4calls_0Bj_
FNDA:1,_RNvMNtNtNtNtNtNtCs1B75dzsrioZ_11rust_webapi12presentation3api12item_handler5tests33___mock_MockItemRep_ItemRepository8___createNtB2_5Rfunc8call_mut
FNDA:1,_RNvMs0_NtNtNtNtNtNtCs1B75dzsrioZ_11rust_webapi12presentation3api12item_handler5tests33___mock_MockItemRep_ItemRepository8___createNtB5_7Matcher7matches
FNDA:1,_RNvMs4_NtNtNtNtNtNtCs1B75dzsrioZ_11rust_webapi12presentation3api12item_handler5tests33___mock_MockItemRep_ItemRepository8___createNtB5_6Common15verify_sequence
FNDA:1,_RNvMs4_NtNtNtNtNtNtCs1B75dzsrioZ_11rust_webapi12presentation3api12item_handler5tests33___mock_MockItemRep_ItemRepository8___createNtB5_6Common16satisfy_sequence
FNDA:1,_RNvMs4_NtNtNtNtNtNtCs1B75dzsrioZ_11rust_webapi12presentation3api12item_handler5tests33___mock_MockItemRep_ItemRepository8___createNtB5_6Common4call
FNDA:1,_RNvMs4_NtNtNtNtNtNtCs1B75dzsrioZ_11rust_webapi12presentation3api12item_handler5tests33___mock_MockItemRep_ItemRepository8___createNtB5_6Common7is_done
FNDA:1,_RNvMs4_NtNtNtNtNtNtCs1B75dzsrioZ_11rust_webapi12presentation3api12item_handler5tests33___mock_MockItemRep_ItemRepository8___createNtB5_6Common7matches
FNDA:1,_RNvMs6_NtNtNtNtNtNtCs1B75dzsrioZ_11rust_webapi12presentation3api12item_handler5tests33___mock_MockItemRep_ItemRepository8___createNtB5_11Expectation4call
FNDA:1,_RNvMs6_NtNtNtNtNtNtCs1B75dzsrioZ_11rust_webapi12presentation3api12item_handler5tests33___mock_MockItemRep_ItemRepository8___createNtB5_11Expectation7is_done
FNDA:1,_RNvMs6_NtNtNtNtNtNtCs1B75dzsrioZ_11rust_webapi12presentation3api12item_handler5tests33___mock_MockItemRep_ItemRepository8___createNtB5_11Expectation7matches
FNDA:1,_RNvMs8_NtNtNtNtNtNtCs1B75dzsrioZ_11rust_webapi12presentation3api12item_handler5tests33___mock_MockItemRep_ItemRepository8___createNtB5_12Expectations6expect
FNDA:1,_RNvMsa_NtNtNtNtNtNtCs1B75dzsrioZ_11rust_webapi12presentation3api12item_handler5tests33___mock_MockItemRep_ItemRepository8___createNtB5_12Expectations4call
FNDA:1,_RNvXs1_NtNtNtNtNtNtCs1B75dzsrioZ_11rust_webapi12presentation3api12item_handler5tests33___mock_MockItemRep_ItemRepository8___createNtB5_7MatcherNtNtCsfvfooZQ3Axs_4core7default7Default7default
FNDA:1,_RNvXs2_NtNtNtNtNtNtCs1B75dzsrioZ_11rust_webapi12presentation3api12item_handler5tests33___mock_MockItemRep_ItemRepository8___createNtB5_7MatcherNtNtCsfvfooZQ3Axs_4core3fmt7Display3fmt
FNDA:1,_RNvXs3_NtNtNtNtNtNtCs1B75dzsrioZ_11rust_webapi12presentation3api12item_handler5tests33___mock_MockItemRep_ItemRepository8___createNtB5_6CommonNtNtCsfvfooZQ3Axs_4core7default7Default7default
FNDA:1,_RNvXs7_NtNtNtNtNtNtCs1B75dzsrioZ_11rust_webapi12presentation3api12item_handler5tests33___mock_MockItemRep_ItemRepository8___createNtB5_11ExpectationNtNtCsfvfooZQ3Axs_4core7default7Default7default
FNDA:8,_RNvXs9_NtNtNtNtNtNtCs1B75dzsrioZ_11rust_webapi12presentation3api12item_handler5tests33___mock_MockItemRep_ItemRepository8___createNtB5_12ExpectationsNtNtCsfvfooZQ3Axs_4core7default7Default7default
FNDA:1,_RNvXs_NtNtNtNtNtNtCs1B75dzsrioZ_11rust_webapi12presentation3api12item_handler5tests33___mock_MockItemRep_ItemRepository8___createNtB4_5RfuncNtNtCsfvfooZQ3Axs_4core7default7Default7default
FNDA:4,_RNvMNtNtNtNtNtNtCs1B75dzsrioZ_11rust_webapi12presentation3api12item_handler5tests33___mock_MockItemRep_ItemRepository12___find_by_idNtB2_5Rfunc8call_mut
FNDA:4,_RNvMs0_NtNtNtNtNtNtCs1B75dzsrioZ_11rust_webapi12presentation3api12item_handler5tests33___mock_MockItemRep_ItemRepository12___find_by_idNtB5_7Matcher7matches
FNDA:4,_RNvMs4_NtNtNtNtNtNtCs1B75dzsrioZ_11rust_webapi12presentation3api12item_handler5tests33___mock_MockItemRep_ItemRepository12___find_by_idNtB5_6Common15verify_sequence
FNDA:4,_RNvMs4_NtNtNtNtNtNtCs1B75dzsrioZ_11rust_webapi12presentation3api12item_handler5tests33___mock_MockItemRep_ItemRepository12___find_by_idNtB5_6Common16satisfy_sequence
FNDA:4,_RNvMs4_NtNtNtNtNtNtCs1B75dzsrioZ_11rust_webapi12presentation3api12item_handler5tests33___mock_MockItemRep_ItemRepository12___find_by_idNtB5_6Common4call
FNDA:4,_RNvMs4_NtNtNtNtNtNtCs1B75dzsrioZ_11rust_webapi12presentation3api12item_handler5tests33___mock_MockItemRep_ItemRepository12___find_by_idNtB5_6Common7is_done
FNDA:4,_RNvMs4_NtNtNtNtNtNtCs1B75dzsrioZ_11rust_webapi12presentation3api12item_handler5tests33___mock_MockItemRep_ItemRepository12___find_by_idNtB5_6Common7matches
FNDA:4,_RNvMs6_NtNtNtNtNtNtCs1B75dzsrioZ_11rust_webapi12presentation3api12item_handler5tests33___mock_MockItemRep_ItemRepository12___find_by_idNtB5_11Expectation4call
FNDA:4,_RNvMs6_NtNtNtNtNtNtCs1B75dzsrioZ_11rust_webapi12presentation3api12item_handler5tests33___mock_MockItemRep_ItemRepository12___find_by_idNtB5_11Expectation7is_done
FNDA:4,_RNvMs6_NtNtNtNtNtNtCs1B75dzsrioZ_11rust_webapi12presentation3api12item_handler5tests33___mock_MockItemRep_ItemRepository12___find_by_idNtB5_11Expectation7matches
FNDA:4,_RNvMs8_NtNtNtNtNtNtCs1B75dzsrioZ_11rust_webapi12presentation3api12item_handler5tests33___mock_MockItemRep_ItemRepository12___find_by_idNtB5_12Expectations6expect
FNDA:4,_RNvMsa_NtNtNtNtNtNtCs1B75dzsrioZ_11rust_webapi12presentation3api12item_handler5tests33___mock_MockItemRep_ItemRepository12___find_by_idNtB5_12Expectations4call
FNDA:4,_RNvXs1_NtNtNtNtNtNtCs1B75dzsrioZ_11rust_webapi12presentation3api12item_handler5tests33___mock_MockItemRep_ItemRepository12___find_by_idNtB5_7MatcherNtNtCsfvfooZQ3Axs_4core7default7Default7default
FNDA:4,_RNvXs2_NtNtNtNtNtNtCs1B75dzsrioZ_11rust_webapi12presentation3api12item_handler5tests33___mock_MockItemRep_ItemRepository12___find_by_idNtB5_7MatcherNtNtCsfvfooZQ3Axs_4core3fmt7Display3fmt
FNDA:4,_RNvXs3_NtNtNtNtNtNtCs1B75dzsrioZ_11rust_webapi12presentation3api12item_handler5tests33___mock_MockItemRep_ItemRepository12___find_by_idNtB5_6CommonNtNtCsfvfooZQ3Axs_4core7default7Default7default
FNDA:4,_RNvXs7_NtNtNtNtNtNtCs1B75dzsrioZ_11rust_webapi12presentation3api12item_handler5tests33___mock_MockItemRep_ItemRepository12___find_by_idNtB5_11ExpectationNtNtCsfvfooZQ3Axs_4core7default7Default7default
FNDA:8,_RNvXs9_NtNtNtNtNtNtCs1B75dzsrioZ_11rust_webapi12presentation3api12item_handler5tests33___mock_MockItemRep_ItemRepository12___find_by_idNtB5_12ExpectationsNtNtCsfvfooZQ3Axs_4core7default7Default7default
FNDA:4,_RNvXs_NtNtNtNtNtNtCs1B75dzsrioZ_11rust_webapi12presentation3api12item_handler5tests33___mock_MockItemRep_ItemRepository12___find_by_idNtB4_5RfuncNtNtCsfvfooZQ3Axs_4core7default7Default7default
FNDA:2,_RINvMs4_NtNtNtNtNtNtCs1B75dzsrioZ_11rust_webapi12presentation3api12item_handler5tests33___mock_MockItemRep_ItemRepository8___deleteNtB6_6Common4withINtNtCs9l2CZqY40TY_10predicates3ord11EqPredicateyEEBi_
FNDA:1,_RINvMs6_NtNtNtNtNtNtCs1B75dzsrioZ_11rust_webapi12presentation3api12item_handler5tests33___mock_MockItemRep_ItemRepository8___deleteNtB6_11Expectation11return_onceNCNCNvBa_s_24test_delete_item_success00EBi_
FNDA:1,_RINvMs6_NtNtNtNtNtNtCs1B75dzsrioZ_11rust_webapi12presentation3api12item_handler5tests33___mock_MockItemRep_ItemRepository8___deleteNtB6_11Expectation11return_onceNCNCNvBa_s_26test_delete_item_not_found00EBi_
FNDA:2,_RINvMs6_NtNtNtNtNtNtCs1B75dzsrioZ_11rust_webapi12presentation3api12item_handler5tests33___mock_MockItemRep_ItemRepository8___deleteNtB6_11Expectation4withINtNtCs9l2CZqY40TY_10predicates3ord11EqPredicateyEEBi_
FNDA:2,_RNCNvMs0_NtNtNtNtNtNtCs1B75dzsrioZ_11rust_webapi12presentation3api12item_handler5tests33___mock_MockItemRep_ItemRepository8___deleteNtB7_7Matcher7matches0Bj_
FNDA:2,_RNCNvMsa_NtNtNtNtNtNtCs1B75dzsrioZ_11rust_webapi12presentation3api12item_handler5tests33___mock_MockItemRep_ItemRepository8___deleteNtB7_12Expectations4call0Bj_
FNDA:2,_RNCNvMsa_NtNtNtNtNtNtCs1B75dzsrioZ_11rust_webapi12presentation3api12item_handler5tests33___mock_MockItemRep_ItemRepository8___deleteNtB7_12Expectations4calls_0Bj_
FNDA:1,_RNvMNtNtNtNtCs1B75dzsrioZ_11rust_webapi12presentation3api12item_handler5testsNtNtNtNtBa_14infrastructure4auth10middleware12KeycloakUser4mock
FNDA:1,_RINvMs6_NtNtNtNtNtNtCs1B75dzsrioZ_11rust_webapi12presentation3api12item_handler5tests33___mock_MockItemRep_ItemRepository10___find_allNtB6_11Expectation11return_onceNCNCNvBa_s_14test_get_items00EBi_
FNDA:0,_RNCNvMs0_NtNtNtNtNtNtCs1B75dzsrioZ_11rust_webapi12presentation3api12item_handler5tests33___mock_MockItemRep_ItemRepository10___find_allNtB7_7Matcher7matches0Bj_
FNDA:1,_RNCNvMsa_NtNtNtNtNtNtCs1B75dzsrioZ_11rust_webapi12presentation3api12item_handler5tests33___mock_MockItemRep_ItemRepository10___find_allNtB7_12Expectations4call0Bj_
FNDA:1,_RNCNvMsa_NtNtNtNtNtNtCs1B75dzsrioZ_11rust_webapi12presentation3api12item_handler5tests33___mock_MockItemRep_ItemRepository10___find_allNtB7_12Expectations4calls_0Bj_
FNDA:1,_RNvXs5_NtNtNtNtNtNtCs1B75dzsrioZ_11rust_webapi12presentation3api12item_handler5tests33___mock_MockItemRep_ItemRepository10___find_allNtB5_6CommonNtNtNtCsfvfooZQ3Axs_4core3ops4drop4Drop4drop
FNDA:4,_RNvXs5_NtNtNtNtNtNtCs1B75dzsrioZ_11rust_webapi12presentation3api12item_handler5tests33___mock_MockItemRep_ItemRepository12___find_by_idNtB5_6CommonNtNtNtCsfvfooZQ3Axs_4core3ops4drop4Drop4drop
FNDA:1,_RNvXs5_NtNtNtNtNtNtCs1B75dzsrioZ_11rust_webapi12presentation3api12item_handler5tests33___mock_MockItemRep_ItemRepository8___createNtB5_6CommonNtNtNtCsfvfooZQ3Axs_4core3ops4drop4Drop4drop
FNDA:2,_RNvXs5_NtNtNtNtNtNtCs1B75dzsrioZ_11rust_webapi12presentation3api12item_handler5tests33___mock_MockItemRep_ItemRepository8___deleteNtB5_6CommonNtNtNtCsfvfooZQ3Axs_4core3ops4drop4Drop4drop
FNDA:1,_RNvXs5_NtNtNtNtNtNtCs1B75dzsrioZ_11rust_webapi12presentation3api12item_handler5tests33___mock_MockItemRep_ItemRepository8___updateNtB5_6CommonNtNtNtCsfvfooZQ3Axs_4core3ops4drop4Drop4drop
FNDA:1,_RNvMNtNtNtNtNtNtCs1B75dzsrioZ_11rust_webapi12presentation3api12item_handler5tests33___mock_MockItemRep_ItemRepository8___updateNtB2_5Rfunc8call_mut
FNDA:1,_RNvMs0_NtNtNtNtNtNtCs1B75dzsrioZ_11rust_webapi12presentation3api12item_handler5tests33___mock_MockItemRep_ItemRepository8___updateNtB5_7Matcher7matches
FNDA:1,_RNvMs4_NtNtNtNtNtNtCs1B75dzsrioZ_11rust_webapi12presentation3api12item_handler5tests33___mock_MockItemRep_ItemRepository8___updateNtB5_6Common15verify_sequence
FNDA:1,_RNvMs4_NtNtNtNtNtNtCs1B75dzsrioZ_11rust_webapi12presentation3api12item_handler5tests33___mock_MockItemRep_ItemRepository8___updateNtB5_6Common16satisfy_sequence
FNDA:1,_RNvMs4_NtNtNtNtNtNtCs1B75dzsrioZ_11rust_webapi12presentation3api12item_handler5tests33___mock_MockItemRep_ItemRepository8___updateNtB5_6Common4call
FNDA:1,_RNvMs4_NtNtNtNtNtNtCs1B75dzsrioZ_11rust_webapi12presentation3api12item_handler5tests33___mock_MockItemRep_ItemRepository8___updateNtB5_6Common7is_done
FNDA:1,_RNvMs4_NtNtNtNtNtNtCs1B75dzsrioZ_11rust_webapi12presentation3api12item_handler5tests33___mock_MockItemRep_ItemRepository8___updateNtB5_6Common7matches
FNDA:1,_RNvMs6_NtNtNtNtNtNtCs1B75dzsrioZ_11rust_webapi12presentation3api12item_handler5tests33___mock_MockItemRep_ItemRepository8___updateNtB5_11Expectation4call
FNDA:1,_RNvMs6_NtNtNtNtNtNtCs1B75dzsrioZ_11rust_webapi12presentation3api12item_handler5tests33___mock_MockItemRep_ItemRepository8___updateNtB5_11Expectation7is_done
FNDA:1,_RNvMs6_NtNtNtNtNtNtCs1B75dzsrioZ_11rust_webapi12presentation3api12item_handler5tests33___mock_MockItemRep_ItemRepository8___updateNtB5_11Expectation7matches
FNDA:1,_RNvMs8_NtNtNtNtNtNtCs1B75dzsrioZ_11rust_webapi12presentation3api12item_handler5tests33___mock_MockItemRep_ItemRepository8___updateNtB5_12Expectations6expect
FNDA:1,_RNvMsa_NtNtNtNtNtNtCs1B75dzsrioZ_11rust_webapi12presentation3api12item_handler5tests33___mock_MockItemRep_ItemRepository8___updateNtB5_12Expectations4call
FNDA:1,_RNvXs1_NtNtNtNtNtNtCs1B75dzsrioZ_11rust_webapi12presentation3api12item_handler5tests33___mock_MockItemRep_ItemRepository8___updateNtB5_7MatcherNtNtCsfvfooZQ3Axs_4core7default7Default7default
FNDA:1,_RNvXs2_NtNtNtNtNtNtCs1B75dzsrioZ_11rust_webapi12presentation3api12item_handler5tests33___mock_MockItemRep_ItemRepository8___updateNtB5_7MatcherNtNtCsfvfooZQ3Axs_4core3fmt7Display3fmt
FNDA:1,_RNvXs3_NtNtNtNtNtNtCs1B75dzsrioZ_11rust_webapi12presentation3api12item_handler5tests33___mock_MockItemRep_ItemRepository8___updateNtB5_6CommonNtNtCsfvfooZQ3Axs_4core7default7Default7default
FNDA:1,_RNvXs7_NtNtNtNtNtNtCs1B75dzsrioZ_11rust_webapi12presentation3api12item_handler5tests33___mock_MockItemRep_ItemRepository8___updateNtB5_11ExpectationNtNtCsfvfooZQ3Axs_4core7default7Default7default
FNDA:8,_RNvXs9_NtNtNtNtNtNtCs1B75dzsrioZ_11rust_webapi12presentation3api12item_handler5tests33___mock_MockItemRep_ItemRepository8___updateNtB5_12ExpectationsNtNtCsfvfooZQ3Axs_4core7default7Default7default
FNDA:1,_RNvXs_NtNtNtNtNtNtCs1B75dzsrioZ_11rust_webapi12presentation3api12item_handler5tests33___mock_MockItemRep_ItemRepository8___updateNtB4_5RfuncNtNtCsfvfooZQ3Axs_4core7default7Default7default
FNDA:1,_RNvMNtNtNtCs1B75dzsrioZ_11rust_webapi12presentation3api12item_handlerNtB2_11ItemHandler11create_item
FNDA:2,_RNvMNtNtNtCs1B75dzsrioZ_11rust_webapi12presentation3api12item_handlerNtB2_11ItemHandler11delete_item
FNDA:2,_RNvMNtNtNtCs1B75dzsrioZ_11rust_webapi12presentation3api12item_handlerNtB2_11ItemHandler11update_item
FNDA:8,_RNvMNtNtNtCs1B75dzsrioZ_11rust_webapi12presentation3api12item_handlerNtB2_11ItemHandler3new
FNDA:1,_RNvMNtNtNtCs1B75dzsrioZ_11rust_webapi12presentation3api12item_handlerNtB2_11ItemHandler5index
FNDA:2,_RNvMNtNtNtCs1B75dzsrioZ_11rust_webapi12presentation3api12item_handlerNtB2_11ItemHandler8get_item
FNDA:1,_RNvMNtNtNtCs1B75dzsrioZ_11rust_webapi12presentation3api12item_handlerNtB2_11ItemHandler9get_items
FNDA:2,_RNvMNtNtNtNtNtNtCs1B75dzsrioZ_11rust_webapi12presentation3api12item_handler5tests33___mock_MockItemRep_ItemRepository8___deleteNtB2_5Rfunc8call_mut
FNDA:2,_RNvMs0_NtNtNtNtNtNtCs1B75dzsrioZ_11rust_webapi12presentation3api12item_handler5tests33___mock_MockItemRep_ItemRepository8___deleteNtB5_7Matcher7matches
FNDA:2,_RNvMs4_NtNtNtNtNtNtCs1B75dzsrioZ_11rust_webapi12presentation3api12item_handler5tests33___mock_MockItemRep_ItemRepository8___deleteNtB5_6Common15verify_sequence
FNDA:2,_RNvMs4_NtNtNtNtNtNtCs1B75dzsrioZ_11rust_webapi12presentation3api12item_handler5tests33___mock_MockItemRep_ItemRepository8___deleteNtB5_6Common16satisfy_sequence
FNDA:2,_RNvMs4_NtNtNtNtNtNtCs1B75dzsrioZ_11rust_webapi12presentation3api12item_handler5tests33___mock_MockItemRep_ItemRepository8___deleteNtB5_6Common4call
FNDA:2,_RNvMs4_NtNtNtNtNtNtCs1B75dzsrioZ_11rust_webapi12presentation3api12item_handler5tests33___mock_MockItemRep_ItemRepository8___deleteNtB5_6Common7is_done
FNDA:2,_RNvMs4_NtNtNtNtNtNtCs1B75dzsrioZ_11rust_webapi12presentation3api12item_handler5tests33___mock_MockItemRep_ItemRepository8___deleteNtB5_6Common7matches
FNDA:2,_RNvMs6_NtNtNtNtNtNtCs1B75dzsrioZ_11rust_webapi12presentation3api12item_handler5tests33___mock_MockItemRep_ItemRepository8___deleteNtB5_11Expectation4call
FNDA:2,_RNvMs6_NtNtNtNtNtNtCs1B75dzsrioZ_11rust_webapi12presentation3api12item_handler5tests33___mock_MockItemRep_ItemRepository8___deleteNtB5_11Expectation7is_done
FNDA:2,_RNvMs6_NtNtNtNtNtNtCs1B75dzsrioZ_11rust_webapi12presentation3api12item_handler5tests33___mock_MockItemRep_ItemRepository8___deleteNtB5_11Expectation7matches
FNDA:2,_RNvMs8_NtNtNtNtNtNtCs1B75dzsrioZ_11rust_webapi12presentation3api12item_handler5tests33___mock_MockItemRep_ItemRepository8___deleteNtB5_12Expectations6expect
FNDA:2,_RNvMsa_NtNtNtNtNtNtCs1B75dzsrioZ_11rust_webapi12presentation3api12item_handler5tests33___mock_MockItemRep_ItemRepository8___deleteNtB5_12Expectations4call
FNDA:2,_RNvXs1_NtNtNtNtNtNtCs1B75dzsrioZ_11rust_webapi12presentation3api12item_handler5tests33___mock_MockItemRep_ItemRepository8___deleteNtB5_7MatcherNtNtCsfvfooZQ3Axs_4core7default7Default7default
FNDA:2,_RNvXs2_NtNtNtNtNtNtCs1B75dzsrioZ_11rust_webapi12presentation3api12item_handler5tests33___mock_MockItemRep_ItemRepository8___deleteNtB5_7MatcherNtNtCsfvfooZQ3Axs_4core3fmt7Display3fmt
FNDA:2,_RNvXs3_NtNtNtNtNtNtCs1B75dzsrioZ_11rust_webapi12presentation3api12item_handler5tests33___mock_MockItemRep_ItemRepository8___deleteNtB5_6CommonNtNtCsfvfooZQ3Axs_4core7default7Default7default
FNDA:2,_RNvXs7_NtNtNtNtNtNtCs1B75dzsrioZ_11rust_webapi12presentation3api12item_handler5tests33___mock_MockItemRep_ItemRepository8___deleteNtB5_11ExpectationNtNtCsfvfooZQ3Axs_4core7default7Default7default
FNDA:8,_RNvXs9_NtNtNtNtNtNtCs1B75dzsrioZ_11rust_webapi12presentation3api12item_handler5tests33___mock_MockItemRep_ItemRepository8___deleteNtB5_12ExpectationsNtNtCsfvfooZQ3Axs_4core7default7Default7default
FNDA:2,_RNvXs_NtNtNtNtNtNtCs1B75dzsrioZ_11rust_webapi12presentation3api12item_handler5tests33___mock_MockItemRep_ItemRepository8___deleteNtB4_5RfuncNtNtCsfvfooZQ3Axs_4core7default7Default7default
FNDA:1,_RNCNCNvNtNtNtNtCs1B75dzsrioZ_11rust_webapi12presentation3api12item_handler5testss_14test_get_items00Bd_
FNDA:1,_RNCNCNvNtNtNtNtCs1B75dzsrioZ_11rust_webapi12presentation3api12item_handler5testss_16test_create_item00Bd_
FNDA:1,_RNCNCNvNtNtNtNtCs1B75dzsrioZ_11rust_webapi12presentation3api12item_handler5testss_19test_get_item_found00Bd_
FNDA:1,_RNCNCNvNtNtNtNtCs1B75dzsrioZ_11rust_webapi12presentation3api12item_handler5testss_22test_update_item_found00Bd_
FNDA:1,_RNCNCNvNtNtNtNtCs1B75dzsrioZ_11rust_webapi12presentation3api12item_handler5testss_22test_update_item_found0s_0Bd_
FNDA:1,_RNCNCNvNtNtNtNtCs1B75dzsrioZ_11rust_webapi12presentation3api12item_handler5testss_23test_get_item_not_found00Bd_
FNDA:1,_RNCNCNvNtNtNtNtCs1B75dzsrioZ_11rust_webapi12presentation3api12item_handler5testss_24test_delete_item_success00Bd_
FNDA:1,_RNCNCNvNtNtNtNtCs1B75dzsrioZ_11rust_webapi12presentation3api12item_handler5testss_26test_delete_item_not_found00Bd_
FNDA:1,_RNCNCNvNtNtNtNtCs1B75dzsrioZ_11rust_webapi12presentation3api12item_handler5testss_26test_update_item_not_found00Bd_
FNDA:4,_RNCNvXs4_NtNtNtNtCs1B75dzsrioZ_11rust_webapi12presentation3api12item_handler5testsNtB7_11MockItemRepNtNtNtCs8Y1garwNj5t_6domain10repository15item_repository14ItemRepository10find_by_id0Bf_
FNDA:1,_RNCNvXs4_NtNtNtNtCs1B75dzsrioZ_11rust_webapi12presentation3api12item_handler5testsNtB7_11MockItemRepNtNtNtCs8Y1garwNj5t_6domain10repository15item_repository14ItemRepository6create0Bf_
FNDA:2,_RNCNvXs4_NtNtNtNtCs1B75dzsrioZ_11rust_webapi12presentation3api12item_handler5testsNtB7_11MockItemRepNtNtNtCs8Y1garwNj5t_6domain10repository15item_repository14ItemRepository6delete0Bf_
FNDA:1,_RNCNvXs4_NtNtNtNtCs1B75dzsrioZ_11rust_webapi12presentation3api12item_handler5testsNtB7_11MockItemRepNtNtNtCs8Y1garwNj5t_6domain10repository15item_repository14ItemRepository6update0Bf_
FNDA:1,_RNCNvXs4_NtNtNtNtCs1B75dzsrioZ_11rust_webapi12presentation3api12item_handler5testsNtB7_11MockItemRepNtNtNtCs8Y1garwNj5t_6domain10repository15item_repository14ItemRepository8find_all0Bf_
FNDA:1,_RNCNvMNtNtNtCs1B75dzsrioZ_11rust_webapi12presentation3api12item_handlerNtB4_11ItemHandler11create_item0Ba_
FNDA:2,_RNCNvMNtNtNtCs1B75dzsrioZ_11rust_webapi12presentation3api12item_handlerNtB4_11ItemHandler11delete_item0Ba_
FNDA:2,_RNCNvMNtNtNtCs1B75dzsrioZ_11rust_webapi12presentation3api12item_handlerNtB4_11ItemHandler11update_item0Ba_
FNDA:1,_RNCNvMNtNtNtCs1B75dzsrioZ_11rust_webapi12presentation3api12item_handlerNtB4_11ItemHandler5index0Ba_
FNDA:2,_RNCNvMNtNtNtCs1B75dzsrioZ_11rust_webapi12presentation3api12item_handlerNtB4_11ItemHandler8get_item0Ba_
FNDA:1,_RNCNvMNtNtNtCs1B75dzsrioZ_11rust_webapi12presentation3api12item_handlerNtB4_11ItemHandler9get_items0Ba_
FNDA:1,_RINvMs6_NtNtNtNtNtNtCs1B75dzsrioZ_11rust_webapi12presentation3api12item_handler5tests33___mock_MockItemRep_ItemRepository8___updateNtB6_11Expectation11return_onceNCNCNvBa_s_22test_update_item_found0s_0EBi_
FNDA:0,_RNCNvMs0_NtNtNtNtNtNtCs1B75dzsrioZ_11rust_webapi12presentation3api12item_handler5tests33___mock_MockItemRep_ItemRepository8___updateNtB7_7Matcher7matches0Bj_
FNDA:1,_RNCNvMsa_NtNtNtNtNtNtCs1B75dzsrioZ_11rust_webapi12presentation3api12item_handler5tests33___mock_MockItemRep_ItemRepository8___updateNtB7_12Expectations4call0Bj_
FNDA:1,_RNCNvMsa_NtNtNtNtNtNtCs1B75dzsrioZ_11rust_webapi12presentation3api12item_handler5tests33___mock_MockItemRep_ItemRepository8___updateNtB7_12Expectations4calls_0Bj_
FNDA:4,_RINvMs4_NtNtNtNtNtNtCs1B75dzsrioZ_11rust_webapi12presentation3api12item_handler5tests33___mock_MockItemRep_ItemRepository12___find_by_idNtB6_6Common4withINtNtCs9l2CZqY40TY_10predicates3ord11EqPredicateyEEBi_
FNDA:1,_RINvMs6_NtNtNtNtNtNtCs1B75dzsrioZ_11rust_webapi12presentation3api12item_handler5tests33___mock_MockItemRep_ItemRepository12___find_by_idNtB6_11Expectation11return_onceNCNCNvBa_s_19test_get_item_found00EBi_
FNDA:1,_RINvMs6_NtNtNtNtNtNtCs1B75dzsrioZ_11rust_webapi12presentation3api12item_handler5tests33___mock_MockItemRep_ItemRepository12___find_by_idNtB6_11Expectation11return_onceNCNCNvBa_s_22test_update_item_found00EBi_
FNDA:1,_RINvMs6_NtNtNtNtNtNtCs1B75dzsrioZ_11rust_webapi12presentation3api12item_handler5tests33___mock_MockItemRep_ItemRepository12___find_by_idNtB6_11Expectation11return_onceNCNCNvBa_s_23test_get_item_not_found00EBi_
FNDA:1,_RINvMs6_NtNtNtNtNtNtCs1B75dzsrioZ_11rust_webapi12presentation3api12item_handler5tests33___mock_MockItemRep_ItemRepository12___find_by_idNtB6_11Expectation11return_onceNCNCNvBa_s_26test_update_item_not_found00EBi_
FNDA:4,_RINvMs6_NtNtNtNtNtNtCs1B75dzsrioZ_11rust_webapi12presentation3api12item_handler5tests33___mock_MockItemRep_ItemRepository12___find_by_idNtB6_11Expectation4withINtNtCs9l2CZqY40TY_10predicates3ord11EqPredicateyEEBi_
FNDA:4,_RNCNvMs0_NtNtNtNtNtNtCs1B75dzsrioZ_11rust_webapi12presentation3api12item_handler5tests33___mock_MockItemRep_ItemRepository12___find_by_idNtB7_7Matcher7matches0Bj_
FNDA:4,_RNCNvMsa_NtNtNtNtNtNtCs1B75dzsrioZ_11rust_webapi12presentation3api12item_handler5tests33___mock_MockItemRep_ItemRepository12___find_by_idNtB7_12Expectations4call0Bj_
FNDA:4,_RNCNvMsa_NtNtNtNtNtNtCs1B75dzsrioZ_11rust_webapi12presentation3api12item_handler5tests33___mock_MockItemRep_ItemRepository12___find_by_idNtB7_12Expectations4calls_0Bj_
FNF:25
FNH:25
DA:14,8
DA:15,8
DA:16,8
DA:18,1
DA:19,1
DA:20,1
DA:22,1
DA:23,1
DA:24,1
DA:25,1
DA:26,1
DA:27,1
DA:29,1
DA:30,1
DA:31,1
DA:33,2
DA:34,2
DA:35,2
DA:36,2
DA:37,2
DA:38,2
DA:39,1
DA:40,1
DA:41,1
DA:44,1
DA:45,1
DA:48,2
DA:50,1
DA:51,1
DA:52,1
DA:53,1
DA:54,1
DA:55,1
DA:56,1
DA:57,1
DA:59,2
DA:60,2
DA:61,2
DA:62,2
DA:63,2
DA:64,2
DA:65,2
DA:66,1
DA:67,1
DA:68,1
DA:71,1
DA:72,1
DA:75,2
DA:77,2
DA:78,2
DA:79,2
DA:80,2
DA:81,2
DA:82,2
DA:83,1
DA:84,1
DA:86,1
DA:87,1
DA:89,2
DA:104,190
DA:105,190
DA:106,190
DA:107,190
DA:108,190
DA:109,190
DA:110,190
DA:111,190
DA:112,190
DA:113,190
DA:114,190
DA:117,1
DA:118,1
DA:119,1
DA:120,1
DA:121,1
DA:122,1
DA:123,1
DA:124,1
DA:125,1
DA:126,1
DA:127,1
DA:128,1
DA:129,1
DA:130,1
DA:131,1
DA:132,1
DA:133,1
DA:134,1
DA:135,1
DA:136,1
DA:137,1
DA:138,1
DA:139,1
DA:140,1
DA:141,1
DA:142,1
DA:143,1
DA:144,1
DA:145,1
DA:146,1
DA:147,1
DA:148,1
DA:149,1
DA:178,1
DA:201,1
DA:218,1
DA:245,1
DA:273,1
DA:274,1
DA:275,1
DA:276,1
DA:277,1
DA:280,1
DA:303,1
DA:321,1
DA:338,1
BRF:0
BRH:0
LF:123
LH:123
end_of_record
SF:/Users/kentishi/rust_webapi/src/presentation/api/user_handler.rs
FN:91,_RINvMs4_NtNtNtNtNtNtCs1B75dzsrioZ_11rust_webapi12presentation3api12user_handler5tests33___mock_MockUserRep_UserRepository10___find_allNtB6_6Common5timespEBi_
FN:91,_RINvMs4_NtNtNtNtNtNtCs1B75dzsrioZ_11rust_webapi12presentation3api12user_handler5tests33___mock_MockUserRep_UserRepository10___find_allNtB6_6Common5withfpEBi_
FN:91,_RINvMs4_NtNtNtNtNtNtCs1B75dzsrioZ_11rust_webapi12presentation3api12user_handler5tests33___mock_MockUserRep_UserRepository10___find_allNtB6_6Common8withf_stpEBi_
FN:91,_RINvMs4_NtNtNtNtNtNtCs1B75dzsrioZ_11rust_webapi12presentation3api12user_handler5tests33___mock_MockUserRep_UserRepository12___find_by_idNtB6_6Common5timespEBi_
FN:91,_RINvMs4_NtNtNtNtNtNtCs1B75dzsrioZ_11rust_webapi12presentation3api12user_handler5tests33___mock_MockUserRep_UserRepository12___find_by_idNtB6_6Common5withfpEBi_
FN:91,_RINvMs4_NtNtNtNtNtNtCs1B75dzsrioZ_11rust_webapi12presentation3api12user_handler5tests33___mock_MockUserRep_UserRepository12___find_by_idNtB6_6Common8withf_stpEBi_
FN:91,_RINvMs4_NtNtNtNtNtNtCs1B75dzsrioZ_11rust_webapi12presentation3api12user_handler5tests33___mock_MockUserRep_UserRepository8___createNtB6_6Common4withpEBi_
FN:91,_RINvMs4_NtNtNtNtNtNtCs1B75dzsrioZ_11rust_webapi12presentation3api12user_handler5tests33___mock_MockUserRep_UserRepository8___createNtB6_6Common5timespEBi_
FN:91,_RINvMs4_NtNtNtNtNtNtCs1B75dzsrioZ_11rust_webapi12presentation3api12user_handler5tests33___mock_MockUserRep_UserRepository8___createNtB6_6Common8withf_stpEBi_
FN:91,_RINvMs4_NtNtNtNtNtNtCs1B75dzsrioZ_11rust_webapi12presentation3api12user_handler5tests33___mock_MockUserRep_UserRepository8___deleteNtB6_6Common5timespEBi_
FN:91,_RINvMs4_NtNtNtNtNtNtCs1B75dzsrioZ_11rust_webapi12presentation3api12user_handler5tests33___mock_MockUserRep_UserRepository8___deleteNtB6_6Common5withfpEBi_
FN:91,_RINvMs4_NtNtNtNtNtNtCs1B75dzsrioZ_11rust_webapi12presentation3api12user_handler5tests33___mock_MockUserRep_UserRepository8___deleteNtB6_6Common8withf_stpEBi_
FN:91,_RINvMs4_NtNtNtNtNtNtCs1B75dzsrioZ_11rust_webapi12presentation3api12user_handler5tests33___mock_MockUserRep_UserRepository8___updateNtB6_6Common4withpEBi_
FN:91,_RINvMs4_NtNtNtNtNtNtCs1B75dzsrioZ_11rust_webapi12presentation3api12user_handler5tests33___mock_MockUserRep_UserRepository8___updateNtB6_6Common5timespEBi_
FN:91,_RINvMs4_NtNtNtNtNtNtCs1B75dzsrioZ_11rust_webapi12presentation3api12user_handler5tests33___mock_MockUserRep_UserRepository8___updateNtB6_6Common8withf_stpEBi_
FN:101,_RINvMs6_NtNtNtNtNtNtCs1B75dzsrioZ_11rust_webapi12presentation3api12user_handler5tests33___mock_MockUserRep_UserRepository10___find_allNtB6_11Expectation12return_constpEBi_
FN:91,_RINvMs6_NtNtNtNtNtNtCs1B75dzsrioZ_11rust_webapi12presentation3api12user_handler5tests33___mock_MockUserRep_UserRepository10___find_allNtB6_11Expectation12returning_stpEBi_
FN:91,_RINvMs6_NtNtNtNtNtNtCs1B75dzsrioZ_11rust_webapi12presentation3api12user_handler5tests33___mock_MockUserRep_UserRepository10___find_allNtB6_11Expectation14return_once_stpEBi_
FN:101,_RINvMs6_NtNtNtNtNtNtCs1B75dzsrioZ_11rust_webapi12presentation3api12user_handler5tests33___mock_MockUserRep_UserRepository10___find_allNtB6_11Expectation15return_const_stpEBi_
FN:91,_RINvMs6_NtNtNtNtNtNtCs1B75dzsrioZ_11rust_webapi12presentation3api12user_handler5tests33___mock_MockUserRep_UserRepository10___find_allNtB6_11Expectation5timespEBi_
FN:91,_RINvMs6_NtNtNtNtNtNtCs1B75dzsrioZ_11rust_webapi12presentation3api12user_handler5tests33___mock_MockUserRep_UserRepository10___find_allNtB6_11Expectation5withfpEBi_
FN:91,_RINvMs6_NtNtNtNtNtNtCs1B75dzsrioZ_11rust_webapi12presentation3api12user_handler5tests33___mock_MockUserRep_UserRepository10___find_allNtB6_11Expectation8withf_stpEBi_
FN:91,_RINvMs6_NtNtNtNtNtNtCs1B75dzsrioZ_11rust_webapi12presentation3api12user_handler5tests33___mock_MockUserRep_UserRepository10___find_allNtB6_11Expectation9returningpEBi_
FN:101,_RINvMs6_NtNtNtNtNtNtCs1B75dzsrioZ_11rust_webapi12presentation3api12user_handler5tests33___mock_MockUserRep_UserRepository12___find_by_idNtB6_11Expectation12return_constpEBi_
FN:91,_RINvMs6_NtNtNtNtNtNtCs1B75dzsrioZ_11rust_webapi12presentation3api12user_handler5tests33___mock_MockUserRep_UserRepository12___find_by_idNtB6_11Expectation12returning_stpEBi_
FN:91,_RINvMs6_NtNtNtNtNtNtCs1B75dzsrioZ_11rust_webapi12presentation3api12user_handler5tests33___mock_MockUserRep_UserRepository12___find_by_idNtB6_11Expectation14return_once_stpEBi_
FN:101,_RINvMs6_NtNtNtNtNtNtCs1B75dzsrioZ_11rust_webapi12presentation3api12user_handler5tests33___mock_MockUserRep_UserRepository12___find_by_idNtB6_11Expectation15return_const_stpEBi_
FN:91,_RINvMs6_NtNtNtNtNtNtCs1B75dzsrioZ_11rust_webapi12presentation3api12user_handler5tests33___mock_MockUserRep_UserRepository12___find_by_idNtB6_11Expectation5timespEBi_
FN:91,_RINvMs6_NtNtNtNtNtNtCs1B75dzsrioZ_11rust_webapi12presentation3api12user_handler5tests33___mock_MockUserRep_UserRepository12___find_by_idNtB6_11Expectation5withfpEBi_
FN:91,_RINvMs6_NtNtNtNtNtNtCs1B75dzsrioZ_11rust_webapi12presentation3api12user_handler5tests33___mock_MockUserRep_UserRepository12___find_by_idNtB6_11Expectation8withf_stpEBi_
FN:91,_RINvMs6_NtNtNtNtNtNtCs1B75dzsrioZ_11rust_webapi12presentation3api12user_handler5tests33___mock_MockUserRep_UserRepository12___find_by_idNtB6_11Expectation9returningpEBi_
FN:101,_RINvMs6_NtNtNtNtNtNtCs1B75dzsrioZ_11rust_webapi12presentation3api12user_handler5tests33___mock_MockUserRep_UserRepository8___createNtB6_11Expectation12return_constpEBi_
FN:91,_RINvMs6_NtNtNtNtNtNtCs1B75dzsrioZ_11rust_webapi12presentation3api12user_handler5tests33___mock_MockUserRep_UserRepository8___createNtB6_11Expectation12returning_stpEBi_
FN:91,_RINvMs6_NtNtNtNtNtNtCs1B75dzsrioZ_11rust_webapi12presentation3api12user_handler5tests33___mock_MockUserRep_UserRepository8___createNtB6_11Expectation14return_once_stpEBi_
FN:101,_RINvMs6_NtNtNtNtNtNtCs1B75dzsrioZ_11rust_webapi12presentation3api12user_handler5tests33___mock_MockUserRep_UserRepository8___createNtB6_11Expectation15return_const_stpEBi_
FN:91,_RINvMs6_NtNtNtNtNtNtCs1B75dzsrioZ_11rust_webapi12presentation3api12user_handler5tests33___mock_MockUserRep_UserRepository8___createNtB6_11Expectation4withpEBi_
FN:91,_RINvMs6_NtNtNtNtNtNtCs1B75dzsrioZ_11rust_webapi12presentation3api12user_handler5tests33___mock_MockUserRep_UserRepository8___createNtB6_11Expectation5timespEBi_
FN:91,_RINvMs6_NtNtNtNtNtNtCs1B75dzsrioZ_11rust_webapi12presentation3api12user_handler5tests33___mock_MockUserRep_UserRepository8___createNtB6_11Expectation8withf_stpEBi_
FN:91,_RINvMs6_NtNtNtNtNtNtCs1B75dzsrioZ_11rust_webapi12presentation3api12user_handler5tests33___mock_MockUserRep_UserRepository8___createNtB6_11Expectation9returningpEBi_
FN:101,_RINvMs6_NtNtNtNtNtNtCs1B75dzsrioZ_11rust_webapi12presentation3api12user_handler5tests33___mock_MockUserRep_UserRepository8___deleteNtB6_11Expectation12return_constpEBi_
FN:91,_RINvMs6_NtNtNtNtNtNtCs1B75dzsrioZ_11rust_webapi12presentation3api12user_handler5tests33___mock_MockUserRep_UserRepository8___deleteNtB6_11Expectation12returning_stpEBi_
FN:91,_RINvMs6_NtNtNtNtNtNtCs1B75dzsrioZ_11rust_webapi12presentation3api12user_handler5tests33___mock_MockUserRep_UserRepository8___deleteNtB6_11Expectation14return_once_stpEBi_
FN:101,_RINvMs6_NtNtNtNtNtNtCs1B75dzsrioZ_11rust_webapi12presentation3api12user_handler5tests33___mock_MockUserRep_UserRepository8___deleteNtB6_11Expectation15return_const_stpEBi_
FN:91,_RINvMs6_NtNtNtNtNtNtCs1B75dzsrioZ_11rust_webapi12presentation3api12user_handler5tests33___mock_MockUserRep_UserRepository8___deleteNtB6_11Expectation5timespEBi_
FN:91,_RINvMs6_NtNtNtNtNtNtCs1B75dzsrioZ_11rust_webapi12presentation3api12user_handler5tests33___mock_MockUserRep_UserRepository8___deleteNtB6_11Expectation5withfpEBi_
FN:91,_RINvMs6_NtNtNtNtNtNtCs1B75dzsrioZ_11rust_webapi12presentation3api12user_handler5tests33___mock_MockUserRep_UserRepository8___deleteNtB6_11Expectation8withf_stpEBi_
FN:91,_RINvMs6_NtNtNtNtNtNtCs1B75dzsrioZ_11rust_webapi12presentation3api12user_handler5tests33___mock_MockUserRep_UserRepository8___deleteNtB6_11Expectation9returningpEBi_
FN:101,_RINvMs6_NtNtNtNtNtNtCs1B75dzsrioZ_11rust_webapi12presentation3api12user_handler5tests33___mock_MockUserRep_UserRepository8___updateNtB6_11Expectation12return_constpEBi_
FN:91,_RINvMs6_NtNtNtNtNtNtCs1B75dzsrioZ_11rust_webapi12presentation3api12user_handler5tests33___mock_MockUserRep_UserRepository8___updateNtB6_11Expectation12returning_stpEBi_
FN:91,_RINvMs6_NtNtNtNtNtNtCs1B75dzsrioZ_11rust_webapi12presentation3api12user_handler5tests33___mock_MockUserRep_UserRepository8___updateNtB6_11Expectation14return_once_stpEBi_
FN:101,_RINvMs6_NtNtNtNtNtNtCs1B75dzsrioZ_11rust_webapi12presentation3api12user_handler5tests33___mock_MockUserRep_UserRepository8___updateNtB6_11Expectation15return_const_stpEBi_
FN:91,_RINvMs6_NtNtNtNtNtNtCs1B75dzsrioZ_11rust_webapi12presentation3api12user_handler5tests33___mock_MockUserRep_UserRepository8___updateNtB6_11Expectation4withpEBi_
FN:91,_RINvMs6_NtNtNtNtNtNtCs1B75dzsrioZ_11rust_webapi12presentation3api12user_handler5tests33___mock_MockUserRep_UserRepository8___updateNtB6_11Expectation5timespEBi_
FN:91,_RINvMs6_NtNtNtNtNtNtCs1B75dzsrioZ_11rust_webapi12presentation3api12user_handler5tests33___mock_MockUserRep_UserRepository8___updateNtB6_11Expectation8withf_stpEBi_
FN:91,_RINvMs6_NtNtNtNtNtNtCs1B75dzsrioZ_11rust_webapi12presentation3api12user_handler5tests33___mock_MockUserRep_UserRepository8___updateNtB6_11Expectation9returningpEBi_
FN:91,_RNCINvMs6_NtNtNtNtNtNtCs1B75dzsrioZ_11rust_webapi12presentation3api12user_handler5tests33___mock_MockUserRep_UserRepository10___find_allNtB8_11Expectation12return_constpE0Bk_
FN:91,_RNCINvMs6_NtNtNtNtNtNtCs1B75dzsrioZ_11rust_webapi12presentation3api12user_handler5tests33___mock_MockUserRep_UserRepository10___find_allNtB8_11Expectation15return_const_stpE0Bk_
FN:91,_RNCINvMs6_NtNtNtNtNtNtCs1B75dzsrioZ_11rust_webapi12presentation3api12user_handler5tests33___mock_MockUserRep_UserRepository12___find_by_idNtB8_11Expectation12return_constpE0Bk_
FN:91,_RNCINvMs6_NtNtNtNtNtNtCs1B75dzsrioZ_11rust_webapi12presentation3api12user_handler5tests33___mock_MockUserRep_UserRepository12___find_by_idNtB8_11Expectation15return_const_stpE0Bk_
FN:91,_RNCINvMs6_NtNtNtNtNtNtCs1B75dzsrioZ_11rust_webapi12presentation3api12user_handler5tests33___mock_MockUserRep_UserRepository8___createNtB8_11Expectation12return_constpE0Bk_
FN:91,_RNCINvMs6_NtNtNtNtNtNtCs1B75dzsrioZ_11rust_webapi12presentation3api12user_handler5tests33___mock_MockUserRep_UserRepository8___createNtB8_11Expectation15return_const_stpE0Bk_
FN:91,_RNCINvMs6_NtNtNtNtNtNtCs1B75dzsrioZ_11rust_webapi12presentation3api12user_handler5tests33___mock_MockUserRep_UserRepository8___deleteNtB8_11Expectation12return_constpE0Bk_
FN:91,_RNCINvMs6_NtNtNtNtNtNtCs1B75dzsrioZ_11rust_webapi12presentation3api12user_handler5tests33___mock_MockUserRep_UserRepository8___deleteNtB8_11Expectation15return_const_stpE0Bk_
FN:91,_RNCINvMs6_NtNtNtNtNtNtCs1B75dzsrioZ_11rust_webapi12presentation3api12user_handler5tests33___mock_MockUserRep_UserRepository8___updateNtB8_11Expectation12return_constpE0Bk_
FN:91,_RNCINvMs6_NtNtNtNtNtNtCs1B75dzsrioZ_11rust_webapi12presentation3api12user_handler5tests33___mock_MockUserRep_UserRepository8___updateNtB8_11Expectation15return_const_stpE0Bk_
FN:91,_RNvMs0_NtNtNtNtCs1B75dzsrioZ_11rust_webapi12presentation3api12user_handler5testsNtB5_26MockUserRep_UserRepository10checkpoint
FN:91,_RNvMs1_NtNtNtNtCs1B75dzsrioZ_11rust_webapi12presentation3api12user_handler5testsNtB5_11MockUserRep10checkpoint
FN:101,_RNvMs4_NtNtNtNtNtNtCs1B75dzsrioZ_11rust_webapi12presentation3api12user_handler5tests33___mock_MockUserRep_UserRepository10___find_allNtB5_6Common11in_sequence
FN:91,_RNvMs4_NtNtNtNtNtNtCs1B75dzsrioZ_11rust_webapi12presentation3api12user_handler5tests33___mock_MockUserRep_UserRepository10___find_allNtB5_6Common4with
FN:91,_RNvMs4_NtNtNtNtNtNtCs1B75dzsrioZ_11rust_webapi12presentation3api12user_handler5tests33___mock_MockUserRep_UserRepository10___find_allNtB5_6Common5never
FN:101,_RNvMs4_NtNtNtNtNtNtCs1B75dzsrioZ_11rust_webapi12presentation3api12user_handler5tests33___mock_MockUserRep_UserRepository12___find_by_idNtB5_6Common11in_sequence
FN:91,_RNvMs4_NtNtNtNtNtNtCs1B75dzsrioZ_11rust_webapi12presentation3api12user_handler5tests33___mock_MockUserRep_UserRepository12___find_by_idNtB5_6Common5never
FN:101,_RNvMs4_NtNtNtNtNtNtCs1B75dzsrioZ_11rust_webapi12presentation3api12user_handler5tests33___mock_MockUserRep_UserRepository8___createNtB5_6Common11in_sequence
FN:91,_RNvMs4_NtNtNtNtNtNtCs1B75dzsrioZ_11rust_webapi12presentation3api12user_handler5tests33___mock_MockUserRep_UserRepository8___createNtB5_6Common5never
FN:101,_RNvMs4_NtNtNtNtNtNtCs1B75dzsrioZ_11rust_webapi12presentation3api12user_handler5tests33___mock_MockUserRep_UserRepository8___deleteNtB5_6Common11in_sequence
FN:91,_RNvMs4_NtNtNtNtNtNtCs1B75dzsrioZ_11rust_webapi12presentation3api12user_handler5tests33___mock_MockUserRep_UserRepository8___deleteNtB5_6Common5never
FN:101,_RNvMs4_NtNtNtNtNtNtCs1B75dzsrioZ_11rust_webapi12presentation3api12user_handler5tests33___mock_MockUserRep_UserRepository8___updateNtB5_6Common11in_sequence
FN:91,_RNvMs4_NtNtNtNtNtNtCs1B75dzsrioZ_11rust_webapi12presentation3api12user_handler5tests33___mock_MockUserRep_UserRepository8___updateNtB5_6Common5never
FN:91,_RNvMs6_NtNtNtNtNtNtCs1B75dzsrioZ_11rust_webapi12presentation3api12user_handler5tests33___mock_MockUserRep_UserRepository10___find_allNtB5_11Expectation11in_sequence
FN:91,_RNvMs6_NtNtNtNtNtNtCs1B75dzsrioZ_11rust_webapi12presentation3api12user_handler5tests33___mock_MockUserRep_UserRepository10___find_allNtB5_11Expectation3new
FN:91,_RNvMs6_NtNtNtNtNtNtCs1B75dzsrioZ_11rust_webapi12presentation3api12user_handler5tests33___mock_MockUserRep_UserRepository10___find_allNtB5_11Expectation4once
FN:91,_RNvMs6_NtNtNtNtNtNtCs1B75dzsrioZ_11rust_webapi12presentation3api12user_handler5tests33___mock_MockUserRep_UserRepository10___find_allNtB5_11Expectation4with
FN:91,_RNvMs6_NtNtNtNtNtNtCs1B75dzsrioZ_11rust_webapi12presentation3api12user_handler5tests33___mock_MockUserRep_UserRepository10___find_allNtB5_11Expectation5never
FN:91,_RNvMs6_NtNtNtNtNtNtCs1B75dzsrioZ_11rust_webapi12presentation3api12user_handler5tests33___mock_MockUserRep_UserRepository12___find_by_idNtB5_11Expectation11in_sequence
FN:91,_RNvMs6_NtNtNtNtNtNtCs1B75dzsrioZ_11rust_webapi12presentation3api12user_handler5tests33___mock_MockUserRep_UserRepository12___find_by_idNtB5_11Expectation3new
FN:91,_RNvMs6_NtNtNtNtNtNtCs1B75dzsrioZ_11rust_webapi12presentation3api12user_handler5tests33___mock_MockUserRep_UserRepository12___find_by_idNtB5_11Expectation4once
FN:91,_RNvMs6_NtNtNtNtNtNtCs1B75dzsrioZ_11rust_webapi12presentation3api12user_handler5tests33___mock_MockUserRep_UserRepository12___find_by_idNtB5_11Expectation5never
FN:91,_RNvMs6_NtNtNtNtNtNtCs1B75dzsrioZ_11rust_webapi12presentation3api12user_handler5tests33___mock_MockUserRep_UserRepository8___createNtB5_11Expectation11in_sequence
FN:91,_RNvMs6_NtNtNtNtNtNtCs1B75dzsrioZ_11rust_webapi12presentation3api12user_handler5tests33___mock_MockUserRep_UserRepository8___createNtB5_11Expectation3new
FN:91,_RNvMs6_NtNtNtNtNtNtCs1B75dzsrioZ_11rust_webapi12presentation3api12user_handler5tests33___mock_MockUserRep_UserRepository8___createNtB5_11Expectation4once
FN:91,_RNvMs6_NtNtNtNtNtNtCs1B75dzsrioZ_11rust_webapi12presentation3api12user_handler5tests33___mock_MockUserRep_UserRepository8___createNtB5_11Expectation5never
FN:91,_RNvMs6_NtNtNtNtNtNtCs1B75dzsrioZ_11rust_webapi12presentation3api12user_handler5tests33___mock_MockUserRep_UserRepository8___deleteNtB5_11Expectation11in_sequence
FN:91,_RNvMs6_NtNtNtNtNtNtCs1B75dzsrioZ_11rust_webapi12presentation3api12user_handler5tests33___mock_MockUserRep_UserRepository8___deleteNtB5_11Expectation3new
FN:91,_RNvMs6_NtNtNtNtNtNtCs1B75dzsrioZ_11rust_webapi12presentation3api12user_handler5tests33___mock_MockUserRep_UserRepository8___deleteNtB5_11Expectation4once
FN:91,_RNvMs6_NtNtNtNtNtNtCs1B75dzsrioZ_11rust_webapi12presentation3api12user_handler5tests33___mock_MockUserRep_UserRepository8___deleteNtB5_11Expectation5never
FN:91,_RNvMs6_NtNtNtNtNtNtCs1B75dzsrioZ_11rust_webapi12presentation3api12user_handler5tests33___mock_MockUserRep_UserRepository8___updateNtB5_11Expectation11in_sequence
FN:91,_RNvMs6_NtNtNtNtNtNtCs1B75dzsrioZ_11rust_webapi12presentation3api12user_handler5tests33___mock_MockUserRep_UserRepository8___updateNtB5_11Expectation3new
FN:91,_RNvMs6_NtNtNtNtNtNtCs1B75dzsrioZ_11rust_webapi12presentation3api12user_handler5tests33___mock_MockUserRep_UserRepository8___updateNtB5_11Expectation4once
FN:91,_RNvMs6_NtNtNtNtNtNtCs1B75dzsrioZ_11rust_webapi12presentation3api12user_handler5tests33___mock_MockUserRep_UserRepository8___updateNtB5_11Expectation5never
FN:91,_RNvMs8_NtNtNtNtNtNtCs1B75dzsrioZ_11rust_webapi12presentation3api12user_handler5tests33___mock_MockUserRep_UserRepository10___find_allNtB5_12Expectations10checkpoint
FN:91,_RNvMs8_NtNtNtNtNtNtCs1B75dzsrioZ_11rust_webapi12presentation3api12user_handler5tests33___mock_MockUserRep_UserRepository10___find_allNtB5_12Expectations3new
FN:91,_RNvMs8_NtNtNtNtNtNtCs1B75dzsrioZ_11rust_webapi12presentation3api12user_handler5tests33___mock_MockUserRep_UserRepository12___find_by_idNtB5_12Expectations10checkpoint
FN:91,_RNvMs8_NtNtNtNtNtNtCs1B75dzsrioZ_11rust_webapi12presentation3api12user_handler5tests33___mock_MockUserRep_UserRepository12___find_by_idNtB5_12Expectations3new
FN:91,_RNvMs8_NtNtNtNtNtNtCs1B75dzsrioZ_11rust_webapi12presentation3api12user_handler5tests33___mock_MockUserRep_UserRepository8___createNtB5_12Expectations10checkpoint
FN:91,_RNvMs8_NtNtNtNtNtNtCs1B75dzsrioZ_11rust_webapi12presentation3api12user_handler5tests33___mock_MockUserRep_UserRepository8___createNtB5_12Expectations3new
FN:91,_RNvMs8_NtNtNtNtNtNtCs1B75dzsrioZ_11rust_webapi12presentation3api12user_handler5tests33___mock_MockUserRep_UserRepository8___deleteNtB5_12Expectations10checkpoint
FN:91,_RNvMs8_NtNtNtNtNtNtCs1B75dzsrioZ_11rust_webapi12presentation3api12user_handler5tests33___mock_MockUserRep_UserRepository8___deleteNtB5_12Expectations3new
FN:91,_RNvMs8_NtNtNtNtNtNtCs1B75dzsrioZ_11rust_webapi12presentation3api12user_handler5tests33___mock_MockUserRep_UserRepository8___updateNtB5_12Expectations10checkpoint
FN:91,_RNvMs8_NtNtNtNtNtNtCs1B75dzsrioZ_11rust_webapi12presentation3api12user_handler5tests33___mock_MockUserRep_UserRepository8___updateNtB5_12Expectations3new
FN:107,_RNCNCNvNtNtNtNtCs1B75dzsrioZ_11rust_webapi12presentation3api12user_handler5testss_14test_get_users00Bd_
FN:170,_RNCNCNvNtNtNtNtCs1B75dzsrioZ_11rust_webapi12presentation3api12user_handler5testss_16test_create_user00Bd_
FN:173,_RNCNCNvNtNtNtNtCs1B75dzsrioZ_11rust_webapi12presentation3api12user_handler5testss_16test_create_user0s_0Bd_
FN:128,_RNCNCNvNtNtNtNtCs1B75dzsrioZ_11rust_webapi12presentation3api12user_handler5testss_19test_get_user_found00Bd_
FN:205,_RNCNCNvNtNtNtNtCs1B75dzsrioZ_11rust_webapi12presentation3api12user_handler5testss_22test_update_user_found00Bd_
FN:217,_RNCNCNvNtNtNtNtCs1B75dzsrioZ_11rust_webapi12presentation3api12user_handler5testss_22test_update_user_found0s0_0Bd_
FN:212,_RNCNCNvNtNtNtNtCs1B75dzsrioZ_11rust_webapi12presentation3api12user_handler5testss_22test_update_user_found0s_0Bd_
FN:149,_RNCNCNvNtNtNtNtCs1B75dzsrioZ_11rust_webapi12presentation3api12user_handler5testss_23test_get_user_not_found00Bd_
FN:258,_RNCNCNvNtNtNtNtCs1B75dzsrioZ_11rust_webapi12presentation3api12user_handler5testss_24test_delete_user_success00Bd_
FN:275,_RNCNCNvNtNtNtNtCs1B75dzsrioZ_11rust_webapi12presentation3api12user_handler5testss_26test_delete_user_not_found00Bd_
FN:240,_RNCNCNvNtNtNtNtCs1B75dzsrioZ_11rust_webapi12presentation3api12user_handler5testss_26test_update_user_not_found00Bd_
FN:101,_RNCNvXs3_NtNtNtNtCs1B75dzsrioZ_11rust_webapi12presentation3api12user_handler5testsNtB7_11MockUserRepNtNtNtCs8Y1garwNj5t_6domain10repository15user_repository14UserRepository10find_by_id0Bf_
FN:101,_RNCNvXs3_NtNtNtNtCs1B75dzsrioZ_11rust_webapi12presentation3api12user_handler5testsNtB7_11MockUserRepNtNtNtCs8Y1garwNj5t_6domain10repository15user_repository14UserRepository6create0Bf_
FN:101,_RNCNvXs3_NtNtNtNtCs1B75dzsrioZ_11rust_webapi12presentation3api12user_handler5testsNtB7_11MockUserRepNtNtNtCs8Y1garwNj5t_6domain10repository15user_repository14UserRepository6delete0Bf_
FN:101,_RNCNvXs3_NtNtNtNtCs1B75dzsrioZ_11rust_webapi12presentation3api12user_handler5testsNtB7_11MockUserRepNtNtNtCs8Y1garwNj5t_6domain10repository15user_repository14UserRepository6update0Bf_
FN:101,_RNCNvXs3_NtNtNtNtCs1B75dzsrioZ_11rust_webapi12presentation3api12user_handler5testsNtB7_11MockUserRepNtNtNtCs8Y1garwNj5t_6domain10repository15user_repository14UserRepository8find_all0Bf_
FN:101,_RNvMNtNtNtNtNtNtCs1B75dzsrioZ_11rust_webapi12presentation3api12user_handler5tests33___mock_MockUserRep_UserRepository8___deleteNtB2_5Rfunc8call_mut
FN:101,_RNvMs0_NtNtNtNtNtNtCs1B75dzsrioZ_11rust_webapi12presentation3api12user_handler5tests33___mock_MockUserRep_UserRepository8___deleteNtB5_7Matcher7matches
FN:101,_RNvMs4_NtNtNtNtNtNtCs1B75dzsrioZ_11rust_webapi12presentation3api12user_handler5tests33___mock_MockUserRep_UserRepository8___deleteNtB5_6Common15verify_sequence
FN:101,_RNvMs4_NtNtNtNtNtNtCs1B75dzsrioZ_11rust_webapi12presentation3api12user_handler5tests33___mock_MockUserRep_UserRepository8___deleteNtB5_6Common16satisfy_sequence
FN:101,_RNvMs4_NtNtNtNtNtNtCs1B75dzsrioZ_11rust_webapi12presentation3api12user_handler5tests33___mock_MockUserRep_UserRepository8___deleteNtB5_6Common4call
FN:91,_RNvMs4_NtNtNtNtNtNtCs1B75dzsrioZ_11rust_webapi12presentation3api12user_handler5tests33___mock_MockUserRep_UserRepository8___deleteNtB5_6Common7is_done
FN:91,_RNvMs4_NtNtNtNtNtNtCs1B75dzsrioZ_11rust_webapi12presentation3api12user_handler5tests33___mock_MockUserRep_UserRepository8___deleteNtB5_6Common7matches
FN:101,_RNvMs6_NtNtNtNtNtNtCs1B75dzsrioZ_11rust_webapi12presentation3api12user_handler5tests33___mock_MockUserRep_UserRepository8___deleteNtB5_11Expectation4call
FN:91,_RNvMs6_NtNtNtNtNtNtCs1B75dzsrioZ_11rust_webapi12presentation3api12user_handler5tests33___mock_MockUserRep_UserRepository8___deleteNtB5_11Expectation7is_done
FN:91,_RNvMs6_NtNtNtNtNtNtCs1B75dzsrioZ_11rust_webapi12presentation3api12user_handler5tests33___mock_MockUserRep_UserRepository8___deleteNtB5_11Expectation7matches
FN:91,_RNvMs8_NtNtNtNtNtNtCs1B75dzsrioZ_11rust_webapi12presentation3api12user_handler5tests33___mock_MockUserRep_UserRepository8___deleteNtB5_12Expectations6expect
FN:101,_RNvMsa_NtNtNtNtNtNtCs1B75dzsrioZ_11rust_webapi12presentation3api12user_handler5tests33___mock_MockUserRep_UserRepository8___deleteNtB5_12Expectations4call
FN:91,_RNvXs1_NtNtNtNtNtNtCs1B75dzsrioZ_11rust_webapi12presentation3api12user_handler5tests33___mock_MockUserRep_UserRepository8___deleteNtB5_7MatcherNtNtCsfvfooZQ3Axs_4core7default7Default7default
FN:101,_RNvXs2_NtNtNtNtNtNtCs1B75dzsrioZ_11rust_webapi12presentation3api12user_handler5tests33___mock_MockUserRep_UserRepository8___deleteNtB5_7MatcherNtNtCsfvfooZQ3Axs_4core3fmt7Display3fmt
FN:91,_RNvXs3_NtNtNtNtNtNtCs1B75dzsrioZ_11rust_webapi12presentation3api12user_handler5tests33___mock_MockUserRep_UserRepository8___deleteNtB5_6CommonNtNtCsfvfooZQ3Axs_4core7default7Default7default
FN:91,_RNvXs7_NtNtNtNtNtNtCs1B75dzsrioZ_11rust_webapi12presentation3api12user_handler5tests33___mock_MockUserRep_UserRepository8___deleteNtB5_11ExpectationNtNtCsfvfooZQ3Axs_4core7default7Default7default
FN:91,_RNvXs9_NtNtNtNtNtNtCs1B75dzsrioZ_11rust_webapi12presentation3api12user_handler5tests33___mock_MockUserRep_UserRepository8___deleteNtB5_12ExpectationsNtNtCsfvfooZQ3Axs_4core7default7Default7default
FN:91,_RNvXs_NtNtNtNtNtNtCs1B75dzsrioZ_11rust_webapi12presentation3api12user_handler5tests33___mock_MockUserRep_UserRepository8___deleteNtB4_5RfuncNtNtCsfvfooZQ3Axs_4core7default7Default7default
FN:91,_RINvMs6_NtNtNtNtNtNtCs1B75dzsrioZ_11rust_webapi12presentation3api12user_handler5tests33___mock_MockUserRep_UserRepository10___find_allNtB6_11Expectation11return_onceNCNCNvBa_s_14test_get_users00EBi_
FN:91,_RNCNvMs0_NtNtNtNtNtNtCs1B75dzsrioZ_11rust_webapi12presentation3api12user_handler5tests33___mock_MockUserRep_UserRepository10___find_allNtB7_7Matcher7matches0Bj_
FN:101,_RNCNvMsa_NtNtNtNtNtNtCs1B75dzsrioZ_11rust_webapi12presentation3api12user_handler5tests33___mock_MockUserRep_UserRepository10___find_allNtB7_12Expectations4call0Bj_
FN:91,_RNCNvMsa_NtNtNtNtNtNtCs1B75dzsrioZ_11rust_webapi12presentation3api12user_handler5tests33___mock_MockUserRep_UserRepository10___find_allNtB7_12Expectations4calls_0Bj_
FN:91,_RINvMs4_NtNtNtNtNtNtCs1B75dzsrioZ_11rust_webapi12presentation3api12user_handler5tests33___mock_MockUserRep_UserRepository8___deleteNtB6_6Common4withINtNtCs9l2CZqY40TY_10predicates3ord11EqPredicateyEEBi_
FN:91,_RINvMs6_NtNtNtNtNtNtCs1B75dzsrioZ_11rust_webapi12presentation3api12user_handler5tests33___mock_MockUserRep_UserRepository8___deleteNtB6_11Expectation11return_onceNCNCNvBa_s_24test_delete_user_success00EBi_
FN:91,_RINvMs6_NtNtNtNtNtNtCs1B75dzsrioZ_11rust_webapi12presentation3api12user_handler5tests33___mock_MockUserRep_UserRepository8___deleteNtB6_11Expectation11return_onceNCNCNvBa_s_26test_delete_user_not_found00EBi_
FN:91,_RINvMs6_NtNtNtNtNtNtCs1B75dzsrioZ_11rust_webapi12presentation3api12user_handler5tests33___mock_MockUserRep_UserRepository8___deleteNtB6_11Expectation4withINtNtCs9l2CZqY40TY_10predicates3ord11EqPredicateyEEBi_
FN:91,_RNCNvMs0_NtNtNtNtNtNtCs1B75dzsrioZ_11rust_webapi12presentation3api12user_handler5tests33___mock_MockUserRep_UserRepository8___deleteNtB7_7Matcher7matches0Bj_
FN:101,_RNCNvMsa_NtNtNtNtNtNtCs1B75dzsrioZ_11rust_webapi12presentation3api12user_handler5tests33___mock_MockUserRep_UserRepository8___deleteNtB7_12Expectations4call0Bj_
FN:91,_RNCNvMsa_NtNtNtNtNtNtCs1B75dzsrioZ_11rust_webapi12presentation3api12user_handler5tests33___mock_MockUserRep_UserRepository8___deleteNtB7_12Expectations4calls_0Bj_
FN:91,_RINvMs4_NtNtNtNtNtNtCs1B75dzsrioZ_11rust_webapi12presentation3api12user_handler5tests33___mock_MockUserRep_UserRepository12___find_by_idNtB6_6Common4withINtNtCs9l2CZqY40TY_10predicates3ord11EqPredicateyEEBi_
FN:91,_RINvMs6_NtNtNtNtNtNtCs1B75dzsrioZ_11rust_webapi12presentation3api12user_handler5tests33___mock_MockUserRep_UserRepository12___find_by_idNtB6_11Expectation11return_onceNCNCNvBa_s_19test_get_user_found00EBi_
FN:91,_RINvMs6_NtNtNtNtNtNtCs1B75dzsrioZ_11rust_webapi12presentation3api12user_handler5tests33___mock_MockUserRep_UserRepository12___find_by_idNtB6_11Expectation11return_onceNCNCNvBa_s_22test_update_user_found00EBi_
FN:91,_RINvMs6_NtNtNtNtNtNtCs1B75dzsrioZ_11rust_webapi12presentation3api12user_handler5tests33___mock_MockUserRep_UserRepository12___find_by_idNtB6_11Expectation11return_onceNCNCNvBa_s_23test_get_user_not_found00EBi_
FN:91,_RINvMs6_NtNtNtNtNtNtCs1B75dzsrioZ_11rust_webapi12presentation3api12user_handler5tests33___mock_MockUserRep_UserRepository12___find_by_idNtB6_11Expectation11return_onceNCNCNvBa_s_26test_update_user_not_found00EBi_
FN:91,_RINvMs6_NtNtNtNtNtNtCs1B75dzsrioZ_11rust_webapi12presentation3api12user_handler5tests33___mock_MockUserRep_UserRepository12___find_by_idNtB6_11Expectation4withINtNtCs9l2CZqY40TY_10predicates3ord11EqPredicateyEEBi_
FN:91,_RNCNvMs0_NtNtNtNtNtNtCs1B75dzsrioZ_11rust_webapi12presentation3api12user_handler5tests33___mock_MockUserRep_UserRepository12___find_by_idNtB7_7Matcher7matches0Bj_
FN:101,_RNCNvMsa_NtNtNtNtNtNtCs1B75dzsrioZ_11rust_webapi12presentation3api12user_handler5tests33___mock_MockUserRep_UserRepository12___find_by_idNtB7_12Expectations4call0Bj_
FN:91,_RNCNvMsa_NtNtNtNtNtNtCs1B75dzsrioZ_11rust_webapi12presentation3api12user_handler5tests33___mock_MockUserRep_UserRepository12___find_by_idNtB7_12Expectations4calls_0Bj_
FN:101,_RNvMNtNtNtNtNtNtCs1B75dzsrioZ_11rust_webapi12presentation3api12user_handler5tests33___mock_MockUserRep_UserRepository12___find_by_idNtB2_5Rfunc8call_mut
FN:101,_RNvMs0_NtNtNtNtNtNtCs1B75dzsrioZ_11rust_webapi12presentation3api12user_handler5tests33___mock_MockUserRep_UserRepository12___find_by_idNtB5_7Matcher7matches
FN:101,_RNvMs4_NtNtNtNtNtNtCs1B75dzsrioZ_11rust_webapi12presentation3api12user_handler5tests33___mock_MockUserRep_UserRepository12___find_by_idNtB5_6Common15verify_sequence
FN:101,_RNvMs4_NtNtNtNtNtNtCs1B75dzsrioZ_11rust_webapi12presentation3api12user_handler5tests33___mock_MockUserRep_UserRepository12___find_by_idNtB5_6Common16satisfy_sequence
FN:101,_RNvMs4_NtNtNtNtNtNtCs1B75dzsrioZ_11rust_webapi12presentation3api12user_handler5tests33___mock_MockUserRep_UserRepository12___find_by_idNtB5_6Common4call
FN:91,_RNvMs4_NtNtNtNtNtNtCs1B75dzsrioZ_11rust_webapi12presentation3api12user_handler5tests33___mock_MockUserRep_UserRepository12___find_by_idNtB5_6Common7is_done
FN:91,_RNvMs4_NtNtNtNtNtNtCs1B75dzsrioZ_11rust_webapi12presentation3api12user_handler5tests33___mock_MockUserRep_UserRepository12___find_by_idNtB5_6Common7matches
FN:101,_RNvMs6_NtNtNtNtNtNtCs1B75dzsrioZ_11rust_webapi12presentation3api12user_handler5tests33___mock_MockUserRep_UserRepository12___find_by_idNtB5_11Expectation4call
FN:91,_RNvMs6_NtNtNtNtNtNtCs1B75dzsrioZ_11rust_webapi12presentation3api12user_handler5tests33___mock_MockUserRep_UserRepository12___find_by_idNtB5_11Expectation7is_done
FN:91,_RNvMs6_NtNtNtNtNtNtCs1B75dzsrioZ_11rust_webapi12presentation3api12user_handler5tests33___mock_MockUserRep_UserRepository12___find_by_idNtB5_11Expectation7matches
FN:91,_RNvMs8_NtNtNtNtNtNtCs1B75dzsrioZ_11rust_webapi12presentation3api12user_handler5tests33___mock_MockUserRep_UserRepository12___find_by_idNtB5_12Expectations6expect
FN:101,_RNvMsa_NtNtNtNtNtNtCs1B75dzsrioZ_11rust_webapi12presentation3api12user_handler5tests33___mock_MockUserRep_UserRepository12___find_by_idNtB5_12Expectations4call
FN:91,_RNvXs1_NtNtNtNtNtNtCs1B75dzsrioZ_11rust_webapi12presentation3api12user_handler5tests33___mock_MockUserRep_UserRepository12___find_by_idNtB5_7MatcherNtNtCsfvfooZQ3Axs_4core7default7Default7default
FN:101,_RNvXs2_NtNtNtNtNtNtCs1B75dzsrioZ_11rust_webapi12presentation3api12user_handler5tests33___mock_MockUserRep_UserRepository12___find_by_idNtB5_7MatcherNtNtCsfvfooZQ3Axs_4core3fmt7Display3fmt
FN:91,_RNvXs3_NtNtNtNtNtNtCs1B75dzsrioZ_11rust_webapi12presentation3api12user_handler5tests33___mock_MockUserRep_UserRepository12___find_by_idNtB5_6CommonNtNtCsfvfooZQ3Axs_4core7default7Default7default
FN:91,_RNvXs7_NtNtNtNtNtNtCs1B75dzsrioZ_11rust_webapi12presentation3api12user_handler5tests33___mock_MockUserRep_UserRepository12___find_by_idNtB5_11ExpectationNtNtCsfvfooZQ3Axs_4core7default7Default7default
FN:91,_RNvXs9_NtNtNtNtNtNtCs1B75dzsrioZ_11rust_webapi12presentation3api12user_handler5tests33___mock_MockUserRep_UserRepository12___find_by_idNtB5_12ExpectationsNtNtCsfvfooZQ3Axs_4core7default7Default7default
FN:91,_RNvXs_NtNtNtNtNtNtCs1B75dzsrioZ_11rust_webapi12presentation3api12user_handler5tests33___mock_MockUserRep_UserRepository12___find_by_idNtB4_5RfuncNtNtCsfvfooZQ3Axs_4core7default7Default7default
FN:91,_RINvMs4_NtNtNtNtNtNtCs1B75dzsrioZ_11rust_webapi12presentation3api12user_handler5tests33___mock_MockUserRep_UserRepository8___createNtB6_6Common5withfNCNCNvBa_s_16test_create_user00EBi_
FN:91,_RINvMs6_NtNtNtNtNtNtCs1B75dzsrioZ_11rust_webapi12presentation3api12user_handler5tests33___mock_MockUserRep_UserRepository8___createNtB6_11Expectation11return_onceNCNCNvBa_s_16test_create_user0s_0EBi_
FN:91,_RINvMs6_NtNtNtNtNtNtCs1B75dzsrioZ_11rust_webapi12presentation3api12user_handler5tests33___mock_MockUserRep_UserRepository8___createNtB6_11Expectation5withfNCNCNvBa_s_16test_create_user00EBi_
FN:91,_RNCNvMs0_NtNtNtNtNtNtCs1B75dzsrioZ_11rust_webapi12presentation3api12user_handler5tests33___mock_MockUserRep_UserRepository8___createNtB7_7Matcher7matches0Bj_
FN:101,_RNCNvMsa_NtNtNtNtNtNtCs1B75dzsrioZ_11rust_webapi12presentation3api12user_handler5tests33___mock_MockUserRep_UserRepository8___createNtB7_12Expectations4call0Bj_
FN:91,_RNCNvMsa_NtNtNtNtNtNtCs1B75dzsrioZ_11rust_webapi12presentation3api12user_handler5tests33___mock_MockUserRep_UserRepository8___createNtB7_12Expectations4calls_0Bj_
FN:40,_RNvMNtNtNtCs1B75dzsrioZ_11rust_webapi12presentation3api12user_handlerNtB2_11UserHandler11create_user
FN:67,_RNvMNtNtNtCs1B75dzsrioZ_11rust_webapi12presentation3api12user_handlerNtB2_11UserHandler11delete_user
FN:49,_RNvMNtNtNtCs1B75dzsrioZ_11rust_webapi12presentation3api12user_handlerNtB2_11UserHandler11update_user
FN:13,_RNvMNtNtNtCs1B75dzsrioZ_11rust_webapi12presentation3api12user_handlerNtB2_11UserHandler3new
FN:23,_RNvMNtNtNtCs1B75dzsrioZ_11rust_webapi12presentation3api12user_handlerNtB2_11UserHandler8get_user
FN:17,_RNvMNtNtNtCs1B75dzsrioZ_11rust_webapi12presentation3api12user_handlerNtB2_11UserHandler9get_users
FN:43,_RNCNvMNtNtNtCs1B75dzsrioZ_11rust_webapi12presentation3api12user_handlerNtB4_11UserHandler11create_user0Ba_
FN:70,_RNCNvMNtNtNtCs1B75dzsrioZ_11rust_webapi12presentation3api12user_handlerNtB4_11UserHandler11delete_user0Ba_
FN:53,_RNCNvMNtNtNtCs1B75dzsrioZ_11rust_webapi12presentation3api12user_handlerNtB4_11UserHandler11update_user0Ba_
FN:26,_RNCNvMNtNtNtCs1B75dzsrioZ_11rust_webapi12presentation3api12user_handlerNtB4_11UserHandler8get_user0Ba_
FN:17,_RNCNvMNtNtNtCs1B75dzsrioZ_11rust_webapi12presentation3api12user_handlerNtB4_11UserHandler9get_users0Ba_
FN:101,_RNvMNtNtNtNtNtNtCs1B75dzsrioZ_11rust_webapi12presentation3api12user_handler5tests33___mock_MockUserRep_UserRepository10___find_allNtB2_5Rfunc8call_mut
FN:101,_RNvMs0_NtNtNtNtNtNtCs1B75dzsrioZ_11rust_webapi12presentation3api12user_handler5tests33___mock_MockUserRep_UserRepository10___find_allNtB5_7Matcher7matches
FN:101,_RNvMs4_NtNtNtNtNtNtCs1B75dzsrioZ_11rust_webapi12presentation3api12user_handler5tests33___mock_MockUserRep_UserRepository10___find_allNtB5_6Common15verify_sequence
FN:101,_RNvMs4_NtNtNtNtNtNtCs1B75dzsrioZ_11rust_webapi12presentation3api12user_handler5tests33___mock_MockUserRep_UserRepository10___find_allNtB5_6Common16satisfy_sequence
FN:101,_RNvMs4_NtNtNtNtNtNtCs1B75dzsrioZ_11rust_webapi12presentation3api12user_handler5tests33___mock_MockUserRep_UserRepository10___find_allNtB5_6Common4call
FN:91,_RNvMs4_NtNtNtNtNtNtCs1B75dzsrioZ_11rust_webapi12presentation3api12user_handler5tests33___mock_MockUserRep_UserRepository10___find_allNtB5_6Common7is_done
FN:91,_RNvMs4_NtNtNtNtNtNtCs1B75dzsrioZ_11rust_webapi12presentation3api12user_handler5tests33___mock_MockUserRep_UserRepository10___find_allNtB5_6Common7matches
FN:101,_RNvMs6_NtNtNtNtNtNtCs1B75dzsrioZ_11rust_webapi12presentation3api12user_handler5tests33___mock_MockUserRep_UserRepository10___find_allNtB5_11Expectation4call
FN:91,_RNvMs6_NtNtNtNtNtNtCs1B75dzsrioZ_11rust_webapi12presentation3api12user_handler5tests33___mock_MockUserRep_UserRepository10___find_allNtB5_11Expectation7is_done
FN:91,_RNvMs6_NtNtNtNtNtNtCs1B75dzsrioZ_11rust_webapi12presentation3api12user_handler5tests33___mock_MockUserRep_UserRepository10___find_allNtB5_11Expectation7matches
FN:91,_RNvMs8_NtNtNtNtNtNtCs1B75dzsrioZ_11rust_webapi12presentation3api12user_handler5tests33___mock_MockUserRep_UserRepository10___find_allNtB5_12Expectations6expect
FN:101,_RNvMsa_NtNtNtNtNtNtCs1B75dzsrioZ_11rust_webapi12presentation3api12user_handler5tests33___mock_MockUserRep_UserRepository10___find_allNtB5_12Expectations4call
FN:91,_RNvXs1_NtNtNtNtNtNtCs1B75dzsrioZ_11rust_webapi12presentation3api12user_handler5tests33___mock_MockUserRep_UserRepository10___find_allNtB5_7MatcherNtNtCsfvfooZQ3Axs_4core7default7Default7default
FN:101,_RNvXs2_NtNtNtNtNtNtCs1B75dzsrioZ_11rust_webapi12presentation3api12user_handler5tests33___mock_MockUserRep_UserRepository10___find_allNtB5_7MatcherNtNtCsfvfooZQ3Axs_4core3fmt7Display3fmt
FN:91,_RNvXs3_NtNtNtNtNtNtCs1B75dzsrioZ_11rust_webapi12presentation3api12user_handler5tests33___mock_MockUserRep_UserRepository10___find_allNtB5_6CommonNtNtCsfvfooZQ3Axs_4core7default7Default7default
FN:91,_RNvXs7_NtNtNtNtNtNtCs1B75dzsrioZ_11rust_webapi12presentation3api12user_handler5tests33___mock_MockUserRep_UserRepository10___find_allNtB5_11ExpectationNtNtCsfvfooZQ3Axs_4core7default7Default7default
FN:91,_RNvXs9_NtNtNtNtNtNtCs1B75dzsrioZ_11rust_webapi12presentation3api12user_handler5tests33___mock_MockUserRep_UserRepository10___find_allNtB5_12ExpectationsNtNtCsfvfooZQ3Axs_4core7default7Default7default
FN:91,_RNvXs_NtNtNtNtNtNtCs1B75dzsrioZ_11rust_webapi12presentation3api12user_handler5tests33___mock_MockUserRep_UserRepository10___find_allNtB4_5RfuncNtNtCsfvfooZQ3Axs_4core7default7Default7default
FN:91,_RNvMs1_NtNtNtNtCs1B75dzsrioZ_11rust_webapi12presentation3api12user_handler5testsNtB5_11MockUserRep3new
FN:91,_RNvMs2_NtNtNtNtCs1B75dzsrioZ_11rust_webapi12presentation3api12user_handler5testsNtB5_11MockUserRep13expect_create
FN:91,_RNvMs2_NtNtNtNtCs1B75dzsrioZ_11rust_webapi12presentation3api12user_handler5testsNtB5_11MockUserRep13expect_delete
FN:91,_RNvMs2_NtNtNtNtCs1B75dzsrioZ_11rust_webapi12presentation3api12user_handler5testsNtB5_11MockUserRep13expect_update
FN:91,_RNvMs2_NtNtNtNtCs1B75dzsrioZ_11rust_webapi12presentation3api12user_handler5testsNtB5_11MockUserRep15expect_find_all
FN:91,_RNvMs2_NtNtNtNtCs1B75dzsrioZ_11rust_webapi12presentation3api12user_handler5testsNtB5_11MockUserRep17expect_find_by_id
FN:91,_RNvXNtNtNtNtCs1B75dzsrioZ_11rust_webapi12presentation3api12user_handler5testsNtB2_11MockUserRepNtNtCsfvfooZQ3Axs_4core7default7Default7default
FN:101,_RNvXs3_NtNtNtNtCs1B75dzsrioZ_11rust_webapi12presentation3api12user_handler5testsNtB5_11MockUserRepNtNtNtCs8Y1garwNj5t_6domain10repository15user_repository14UserRepository10find_by_id
FN:101,_RNvXs3_NtNtNtNtCs1B75dzsrioZ_11rust_webapi12presentation3api12user_handler5testsNtB5_11MockUserRepNtNtNtCs8Y1garwNj5t_6domain10repository15user_repository14UserRepository6create
FN:101,_RNvXs3_NtNtNtNtCs1B75dzsrioZ_11rust_webapi12presentation3api12user_handler5testsNtB5_11MockUserRepNtNtNtCs8Y1garwNj5t_6domain10repository15user_repository14UserRepository6delete
FN:101,_RNvXs3_NtNtNtNtCs1B75dzsrioZ_11rust_webapi12presentation3api12user_handler5testsNtB5_11MockUserRepNtNtNtCs8Y1garwNj5t_6domain10repository15user_repository14UserRepository6update
FN:101,_RNvXs3_NtNtNtNtCs1B75dzsrioZ_11rust_webapi12presentation3api12user_handler5testsNtB5_11MockUserRepNtNtNtCs8Y1garwNj5t_6domain10repository15user_repository14UserRepository8find_all
FN:91,_RNvXs_NtNtNtNtCs1B75dzsrioZ_11rust_webapi12presentation3api12user_handler5testsNtB4_26MockUserRep_UserRepositoryNtNtCsfvfooZQ3Axs_4core7default7Default7default
FN:91,_RINvMs4_NtNtNtNtNtNtCs1B75dzsrioZ_11rust_webapi12presentation3api12user_handler5tests33___mock_MockUserRep_UserRepository8___updateNtB6_6Common5withfNCNCNvBa_s_22test_update_user_found0s_0EBi_
FN:91,_RINvMs6_NtNtNtNtNtNtCs1B75dzsrioZ_11rust_webapi12presentation3api12user_handler5tests33___mock_MockUserRep_UserRepository8___updateNtB6_11Expectation11return_onceNCNCNvBa_s_22test_update_user_found0s0_0EBi_
FN:91,_RINvMs6_NtNtNtNtNtNtCs1B75dzsrioZ_11rust_webapi12presentation3api12user_handler5tests33___mock_MockUserRep_UserRepository8___updateNtB6_11Expectation5withfNCNCNvBa_s_22test_update_user_found0s_0EBi_
FN:91,_RNCNvMs0_NtNtNtNtNtNtCs1B75dzsrioZ_11rust_webapi12presentation3api12user_handler5tests33___mock_MockUserRep_UserRepository8___updateNtB7_7Matcher7matches0Bj_
FN:101,_RNCNvMsa_NtNtNtNtNtNtCs1B75dzsrioZ_11rust_webapi12presentation3api12user_handler5tests33___mock_MockUserRep_UserRepository8___updateNtB7_12Expectations4call0Bj_
FN:91,_RNCNvMsa_NtNtNtNtNtNtCs1B75dzsrioZ_11rust_webapi12presentation3api12user_handler5tests33___mock_MockUserRep_UserRepository8___updateNtB7_12Expectations4calls_0Bj_
FN:101,_RNvMNtNtNtNtNtNtCs1B75dzsrioZ_11rust_webapi12presentation3api12user_handler5tests33___mock_MockUserRep_UserRepository8___updateNtB2_5Rfunc8call_mut
FN:101,_RNvMs0_NtNtNtNtNtNtCs1B75dzsrioZ_11rust_webapi12presentation3api12user_handler5tests33___mock_MockUserRep_UserRepository8___updateNtB5_7Matcher7matches
FN:101,_RNvMs4_NtNtNtNtNtNtCs1B75dzsrioZ_11rust_webapi12presentation3api12user_handler5tests33___mock_MockUserRep_UserRepository8___updateNtB5_6Common15verify_sequence
FN:101,_RNvMs4_NtNtNtNtNtNtCs1B75dzsrioZ_11rust_webapi12presentation3api12user_handler5tests33___mock_MockUserRep_UserRepository8___updateNtB5_6Common16satisfy_sequence
FN:101,_RNvMs4_NtNtNtNtNtNtCs1B75dzsrioZ_11rust_webapi12presentation3api12user_handler5tests33___mock_MockUserRep_UserRepository8___updateNtB5_6Common4call
FN:91,_RNvMs4_NtNtNtNtNtNtCs1B75dzsrioZ_11rust_webapi12presentation3api12user_handler5tests33___mock_MockUserRep_UserRepository8___updateNtB5_6Common7is_done
FN:91,_RNvMs4_NtNtNtNtNtNtCs1B75dzsrioZ_11rust_webapi12presentation3api12user_handler5tests33___mock_MockUserRep_UserRepository8___updateNtB5_6Common7matches
FN:101,_RNvMs6_NtNtNtNtNtNtCs1B75dzsrioZ_11rust_webapi12presentation3api12user_handler5tests33___mock_MockUserRep_UserRepository8___updateNtB5_11Expectation4call
FN:91,_RNvMs6_NtNtNtNtNtNtCs1B75dzsrioZ_11rust_webapi12presentation3api12user_handler5tests33___mock_MockUserRep_UserRepository8___updateNtB5_11Expectation7is_done
FN:91,_RNvMs6_NtNtNtNtNtNtCs1B75dzsrioZ_11rust_webapi12presentation3api12user_handler5tests33___mock_MockUserRep_UserRepository8___updateNtB5_11Expectation7matches
FN:91,_RNvMs8_NtNtNtNtNtNtCs1B75dzsrioZ_11rust_webapi12presentation3api12user_handler5tests33___mock_MockUserRep_UserRepository8___updateNtB5_12Expectations6expect
FN:101,_RNvMsa_NtNtNtNtNtNtCs1B75dzsrioZ_11rust_webapi12presentation3api12user_handler5tests33___mock_MockUserRep_UserRepository8___updateNtB5_12Expectations4call
FN:91,_RNvXs1_NtNtNtNtNtNtCs1B75dzsrioZ_11rust_webapi12presentation3api12user_handler5tests33___mock_MockUserRep_UserRepository8___updateNtB5_7MatcherNtNtCsfvfooZQ3Axs_4core7default7Default7default
FN:101,_RNvXs2_NtNtNtNtNtNtCs1B75dzsrioZ_11rust_webapi12presentation3api12user_handler5tests33___mock_MockUserRep_UserRepository8___updateNtB5_7MatcherNtNtCsfvfooZQ3Axs_4core3fmt7Display3fmt
FN:91,_RNvXs3_NtNtNtNtNtNtCs1B75dzsrioZ_11rust_webapi12presentation3api12user_handler5tests33___mock_MockUserRep_UserRepository8___updateNtB5_6CommonNtNtCsfvfooZQ3Axs_4core7default7Default7default
FN:91,_RNvXs7_NtNtNtNtNtNtCs1B75dzsrioZ_11rust_webapi12presentation3api12user_handler5tests33___mock_MockUserRep_UserRepository8___updateNtB5_11ExpectationNtNtCsfvfooZQ3Axs_4core7default7Default7default
FN:91,_RNvXs9_NtNtNtNtNtNtCs1B75dzsrioZ_11rust_webapi12presentation3api12user_handler5tests33___mock_MockUserRep_UserRepository8___updateNtB5_12ExpectationsNtNtCsfvfooZQ3Axs_4core7default7Default7default
FN:91,_RNvXs_NtNtNtNtNtNtCs1B75dzsrioZ_11rust_webapi12presentation3api12user_handler5tests33___mock_MockUserRep_UserRepository8___updateNtB4_5RfuncNtNtCsfvfooZQ3Axs_4core7default7Default7default
FN:101,_RNvXs5_NtNtNtNtNtNtCs1B75dzsrioZ_11rust_webapi12presentation3api12user_handler5tests33___mock_MockUserRep_UserRepository10___find_allNtB5_6CommonNtNtNtCsfvfooZQ3Axs_4core3ops4drop4Drop4drop
FN:101,_RNvXs5_NtNtNtNtNtNtCs1B75dzsrioZ_11rust_webapi12presentation3api12user_handler5tests33___mock_MockUserRep_UserRepository12___find_by_idNtB5_6CommonNtNtNtCsfvfooZQ3Axs_4core3ops4drop4Drop4drop
FN:101,_RNvXs5_NtNtNtNtNtNtCs1B75dzsrioZ_11rust_webapi12presentation3api12user_handler5tests33___mock_MockUserRep_UserRepository8___createNtB5_6CommonNtNtNtCsfvfooZQ3Axs_4core3ops4drop4Drop4drop
FN:101,_RNvXs5_NtNtNtNtNtNtCs1B75dzsrioZ_11rust_webapi12presentation3api12user_handler5tests33___mock_MockUserRep_UserRepository8___deleteNtB5_6CommonNtNtNtCsfvfooZQ3Axs_4core3ops4drop4Drop4drop
FN:101,_RNvXs5_NtNtNtNtNtNtCs1B75dzsrioZ_11rust_webapi12presentation3api12user_handler5tests33___mock_MockUserRep_UserRepository8___updateNtB5_6CommonNtNtNtCsfvfooZQ3Axs_4core3ops4drop4Drop4drop
FN:101,_RNvMNtNtNtNtNtNtCs1B75dzsrioZ_11rust_webapi12presentation3api12user_handler5tests33___mock_MockUserRep_UserRepository8___createNtB2_5Rfunc8call_mut
FN:101,_RNvMs0_NtNtNtNtNtNtCs1B75dzsrioZ_11rust_webapi12presentation3api12user_handler5tests33___mock_MockUserRep_UserRepository8___createNtB5_7Matcher7matches
FN:101,_RNvMs4_NtNtNtNtNtNtCs1B75dzsrioZ_11rust_webapi12presentation3api12user_handler5tests33___mock_MockUserRep_UserRepository8___createNtB5_6Common15verify_sequence
FN:101,_RNvMs4_NtNtNtNtNtNtCs1B75dzsrioZ_11rust_webapi12presentation3api12user_handler5tests33___mock_MockUserRep_UserRepository8___createNtB5_6Common16satisfy_sequence
FN:101,_RNvMs4_NtNtNtNtNtNtCs1B75dzsrioZ_11rust_webapi12presentation3api12user_handler5tests33___mock_MockUserRep_UserRepository8___createNtB5_6Common4call
FN:91,_RNvMs4_NtNtNtNtNtNtCs1B75dzsrioZ_11rust_webapi12presentation3api12user_handler5tests33___mock_MockUserRep_UserRepository8___createNtB5_6Common7is_done
FN:91,_RNvMs4_NtNtNtNtNtNtCs1B75dzsrioZ_11rust_webapi12presentation3api12user_handler5tests33___mock_MockUserRep_UserRepository8___createNtB5_6Common7matches
FN:101,_RNvMs6_NtNtNtNtNtNtCs1B75dzsrioZ_11rust_webapi12presentation3api12user_handler5tests33___mock_MockUserRep_UserRepository8___createNtB5_11Expectation4call
FN:91,_RNvMs6_NtNtNtNtNtNtCs1B75dzsrioZ_11rust_webapi12presentation3api12user_handler5tests33___mock_MockUserRep_UserRepository8___createNtB5_11Expectation7is_done
FN:91,_RNvMs6_NtNtNtNtNtNtCs1B75dzsrioZ_11rust_webapi12presentation3api12user_handler5tests33___mock_MockUserRep_UserRepository8___createNtB5_11Expectation7matches
FN:91,_RNvMs8_NtNtNtNtNtNtCs1B75dzsrioZ_11rust_webapi12presentation3api12user_handler5tests33___mock_MockUserRep_UserRepository8___createNtB5_12Expectations6expect
FN:101,_RNvMsa_NtNtNtNtNtNtCs1B75dzsrioZ_11rust_webapi12presentation3api12user_handler5tests33___mock_MockUserRep_UserRepository8___createNtB5_12Expectations4call
FN:91,_RNvXs1_NtNtNtNtNtNtCs1B75dzsrioZ_11rust_webapi12presentation3api12user_handler5tests33___mock_MockUserRep_UserRepository8___createNtB5_7MatcherNtNtCsfvfooZQ3Axs_4core7default7Default7default
FN:101,_RNvXs2_NtNtNtNtNtNtCs1B75dzsrioZ_11rust_webapi12presentation3api12user_handler5tests33___mock_MockUserRep_UserRepository8___createNtB5_7MatcherNtNtCsfvfooZQ3Axs_4core3fmt7Display3fmt
FN:91,_RNvXs3_NtNtNtNtNtNtCs1B75dzsrioZ_11rust_webapi12presentation3api12user_handler5tests33___mock_MockUserRep_UserRepository8___createNtB5_6CommonNtNtCsfvfooZQ3Axs_4core7default7Default7default
FN:91,_RNvXs7_NtNtNtNtNtNtCs1B75dzsrioZ_11rust_webapi12presentation3api12user_handler5tests33___mock_MockUserRep_UserRepository8___createNtB5_11ExpectationNtNtCsfvfooZQ3Axs_4core7default7Default7default
FN:91,_RNvXs9_NtNtNtNtNtNtCs1B75dzsrioZ_11rust_webapi12presentation3api12user_handler5tests33___mock_MockUserRep_UserRepository8___createNtB5_12ExpectationsNtNtCsfvfooZQ3Axs_4core7default7Default7default
FN:91,_RNvXs_NtNtNtNtNtNtCs1B75dzsrioZ_11rust_webapi12presentation3api12user_handler5tests33___mock_MockUserRep_UserRepository8___createNtB4_5RfuncNtNtCsfvfooZQ3Axs_4core7default7Default7default
FNDA:0,_RINvMs4_NtNtNtNtNtNtCs1B75dzsrioZ_11rust_webapi12presentation3api12user_handler5tests33___mock_MockUserRep_UserRepository10___find_allNtB6_6Common5timespEBi_
FNDA:0,_RINvMs4_NtNtNtNtNtNtCs1B75dzsrioZ_11rust_webapi12presentation3api12user_handler5tests33___mock_MockUserRep_UserRepository10___find_allNtB6_6Common5withfpEBi_
FNDA:0,_RINvMs4_NtNtNtNtNtNtCs1B75dzsrioZ_11rust_webapi12presentation3api12user_handler5tests33___mock_MockUserRep_UserRepository10___find_allNtB6_6Common8withf_stpEBi_
FNDA:0,_RINvMs4_NtNtNtNtNtNtCs1B75dzsrioZ_11rust_webapi12presentation3api12user_handler5tests33___mock_MockUserRep_UserRepository12___find_by_idNtB6_6Common5timespEBi_
FNDA:0,_RINvMs4_NtNtNtNtNtNtCs1B75dzsrioZ_11rust_webapi12presentation3api12user_handler5tests33___mock_MockUserRep_UserRepository12___find_by_idNtB6_6Common5withfpEBi_
FNDA:0,_RINvMs4_NtNtNtNtNtNtCs1B75dzsrioZ_11rust_webapi12presentation3api12user_handler5tests33___mock_MockUserRep_UserRepository12___find_by_idNtB6_6Common8withf_stpEBi_
FNDA:0,_RINvMs4_NtNtNtNtNtNtCs1B75dzsrioZ_11rust_webapi12presentation3api12user_handler5tests33___mock_MockUserRep_UserRepository8___createNtB6_6Common4withpEBi_
FNDA:0,_RINvMs4_NtNtNtNtNtNtCs1B75dzsrioZ_11rust_webapi12presentation3api12user_handler5tests33___mock_MockUserRep_UserRepository8___createNtB6_6Common5timespEBi_
FNDA:0,_RINvMs4_NtNtNtNtNtNtCs1B75dzsrioZ_11rust_webapi12presentation3api12user_handler5tests33___mock_MockUserRep_UserRepository8___createNtB6_6Common8withf_stpEBi_
FNDA:0,_RINvMs4_NtNtNtNtNtNtCs1B75dzsrioZ_11rust_webapi12presentation3api12user_handler5tests33___mock_MockUserRep_UserRepository8___deleteNtB6_6Common5timespEBi_
FNDA:0,_RINvMs4_NtNtNtNtNtNtCs1B75dzsrioZ_11rust_webapi12presentation3api12user_handler5tests33___mock_MockUserRep_UserRepository8___deleteNtB6_6Common5withfpEBi_
FNDA:0,_RINvMs4_NtNtNtNtNtNtCs1B75dzsrioZ_11rust_webapi12presentation3api12user_handler5tests33___mock_MockUserRep_UserRepository8___deleteNtB6_6Common8withf_stpEBi_
FNDA:0,_RINvMs4_NtNtNtNtNtNtCs1B75dzsrioZ_11rust_webapi12presentation3api12user_handler5tests33___mock_MockUserRep_UserRepository8___updateNtB6_6Common4withpEBi_
FNDA:0,_RINvMs4_NtNtNtNtNtNtCs1B75dzsrioZ_11rust_webapi12presentation3api12user_handler5tests33___mock_MockUserRep_UserRepository8___updateNtB6_6Common5timespEBi_
FNDA:0,_RINvMs4_NtNtNtNtNtNtCs1B75dzsrioZ_11rust_webapi12presentation3api12user_handler5tests33___mock_MockUserRep_UserRepository8___updateNtB6_6Common8withf_stpEBi_
FNDA:0,_RINvMs6_NtNtNtNtNtNtCs1B75dzsrioZ_11rust_webapi12presentation3api12user_handler5tests33___mock_MockUserRep_UserRepository10___find_allNtB6_11Expectation12return_constpEBi_
FNDA:0,_RINvMs6_NtNtNtNtNtNtCs1B75dzsrioZ_11rust_webapi12presentation3api12user_handler5tests33___mock_MockUserRep_UserRepository10___find_allNtB6_11Expectation12returning_stpEBi_
FNDA:0,_RINvMs6_NtNtNtNtNtNtCs1B75dzsrioZ_11rust_webapi12presentation3api12user_handler5tests33___mock_MockUserRep_UserRepository10___find_allNtB6_11Expectation14return_once_stpEBi_
FNDA:0,_RINvMs6_NtNtNtNtNtNtCs1B75dzsrioZ_11rust_webapi12presentation3api12user_handler5tests33___mock_MockUserRep_UserRepository10___find_allNtB6_11Expectation15return_const_stpEBi_
FNDA:0,_RINvMs6_NtNtNtNtNtNtCs1B75dzsrioZ_11rust_webapi12presentation3api12user_handler5tests33___mock_MockUserRep_UserRepository10___find_allNtB6_11Expectation5timespEBi_
FNDA:0,_RINvMs6_NtNtNtNtNtNtCs1B75dzsrioZ_11rust_webapi12presentation3api12user_handler5tests33___mock_MockUserRep_UserRepository10___find_allNtB6_11Expectation5withfpEBi_
FNDA:0,_RINvMs6_NtNtNtNtNtNtCs1B75dzsrioZ_11rust_webapi12presentation3api12user_handler5tests33___mock_MockUserRep_UserRepository10___find_allNtB6_11Expectation8withf_stpEBi_
FNDA:0,_RINvMs6_NtNtNtNtNtNtCs1B75dzsrioZ_11rust_webapi12presentation3api12user_handler5tests33___mock_MockUserRep_UserRepository10___find_allNtB6_11Expectation9returningpEBi_
FNDA:0,_RINvMs6_NtNtNtNtNtNtCs1B75dzsrioZ_11rust_webapi12presentation3api12user_handler5tests33___mock_MockUserRep_UserRepository12___find_by_idNtB6_11Expectation12return_constpEBi_
FNDA:0,_RINvMs6_NtNtNtNtNtNtCs1B75dzsrioZ_11rust_webapi12presentation3api12user_handler5tests33___mock_MockUserRep_UserRepository12___find_by_idNtB6_11Expectation12returning_stpEBi_
FNDA:0,_RINvMs6_NtNtNtNtNtNtCs1B75dzsrioZ_11rust_webapi12presentation3api12user_handler5tests33___mock_MockUserRep_UserRepository12___find_by_idNtB6_11Expectation14return_once_stpEBi_
FNDA:0,_RINvMs6_NtNtNtNtNtNtCs1B75dzsrioZ_11rust_webapi12presentation3api12user_handler5tests33___mock_MockUserRep_UserRepository12___find_by_idNtB6_11Expectation15return_const_stpEBi_
FNDA:0,_RINvMs6_NtNtNtNtNtNtCs1B75dzsrioZ_11rust_webapi12presentation3api12user_handler5tests33___mock_MockUserRep_UserRepository12___find_by_idNtB6_11Expectation5timespEBi_
FNDA:0,_RINvMs6_NtNtNtNtNtNtCs1B75dzsrioZ_11rust_webapi12presentation3api12user_handler5tests33___mock_MockUserRep_UserRepository12___find_by_idNtB6_11Expectation5withfpEBi_
FNDA:0,_RINvMs6_NtNtNtNtNtNtCs1B75dzsrioZ_11rust_webapi12presentation3api12user_handler5tests33___mock_MockUserRep_UserRepository12___find_by_idNtB6_11Expectation8withf_stpEBi_
FNDA:0,_RINvMs6_NtNtNtNtNtNtCs1B75dzsrioZ_11rust_webapi12presentation3api12user_handler5tests33___mock_MockUserRep_UserRepository12___find_by_idNtB6_11Expectation9returningpEBi_
FNDA:0,_RINvMs6_NtNtNtNtNtNtCs1B75dzsrioZ_11rust_webapi12presentation3api12user_handler5tests33___mock_MockUserRep_UserRepository8___createNtB6_11Expectation12return_constpEBi_
FNDA:0,_RINvMs6_NtNtNtNtNtNtCs1B75dzsrioZ_11rust_webapi12presentation3api12user_handler5tests33___mock_MockUserRep_UserRepository8___createNtB6_11Expectation12returning_stpEBi_
FNDA:0,_RINvMs6_NtNtNtNtNtNtCs1B75dzsrioZ_11rust_webapi12presentation3api12user_handler5tests33___mock_MockUserRep_UserRepository8___createNtB6_11Expectation14return_once_stpEBi_
FNDA:0,_RINvMs6_NtNtNtNtNtNtCs1B75dzsrioZ_11rust_webapi12presentation3api12user_handler5tests33___mock_MockUserRep_UserRepository8___createNtB6_11Expectation15return_const_stpEBi_
FNDA:0,_RINvMs6_NtNtNtNtNtNtCs1B75dzsrioZ_11rust_webapi12presentation3api12user_handler5tests33___mock_MockUserRep_UserRepository8___createNtB6_11Expectation4withpEBi_
FNDA:0,_RINvMs6_NtNtNtNtNtNtCs1B75dzsrioZ_11rust_webapi12presentation3api12user_handler5tests33___mock_MockUserRep_UserRepository8___createNtB6_11Expectation5timespEBi_
FNDA:0,_RINvMs6_NtNtNtNtNtNtCs1B75dzsrioZ_11rust_webapi12presentation3api12user_handler5tests33___mock_MockUserRep_UserRepository8___createNtB6_11Expectation8withf_stpEBi_
FNDA:0,_RINvMs6_NtNtNtNtNtNtCs1B75dzsrioZ_11rust_webapi12presentation3api12user_handler5tests33___mock_MockUserRep_UserRepository8___createNtB6_11Expectation9returningpEBi_
FNDA:0,_RINvMs6_NtNtNtNtNtNtCs1B75dzsrioZ_11rust_webapi12presentation3api12user_handler5tests33___mock_MockUserRep_UserRepository8___deleteNtB6_11Expectation12return_constpEBi_
FNDA:0,_RINvMs6_NtNtNtNtNtNtCs1B75dzsrioZ_11rust_webapi12presentation3api12user_handler5tests33___mock_MockUserRep_UserRepository8___deleteNtB6_11Expectation12returning_stpEBi_
FNDA:0,_RINvMs6_NtNtNtNtNtNtCs1B75dzsrioZ_11rust_webapi12presentation3api12user_handler5tests33___mock_MockUserRep_UserRepository8___deleteNtB6_11Expectation14return_once_stpEBi_
FNDA:0,_RINvMs6_NtNtNtNtNtNtCs1B75dzsrioZ_11rust_webapi12presentation3api12user_handler5tests33___mock_MockUserRep_UserRepository8___deleteNtB6_11Expectation15return_const_stpEBi_
FNDA:0,_RINvMs6_NtNtNtNtNtNtCs1B75dzsrioZ_11rust_webapi12presentation3api12user_handler5tests33___mock_MockUserRep_UserRepository8___deleteNtB6_11Expectation5timespEBi_
FNDA:0,_RINvMs6_NtNtNtNtNtNtCs1B75dzsrioZ_11rust_webapi12presentation3api12user_handler5tests33___mock_MockUserRep_UserRepository8___deleteNtB6_11Expectation5withfpEBi_
FNDA:0,_RINvMs6_NtNtNtNtNtNtCs1B75dzsrioZ_11rust_webapi12presentation3api12user_handler5tests33___mock_MockUserRep_UserRepository8___deleteNtB6_11Expectation8withf_stpEBi_
FNDA:0,_RINvMs6_NtNtNtNtNtNtCs1B75dzsrioZ_11rust_webapi12presentation3api12user_handler5tests33___mock_MockUserRep_UserRepository8___deleteNtB6_11Expectation9returningpEBi_
FNDA:0,_RINvMs6_NtNtNtNtNtNtCs1B75dzsrioZ_11rust_webapi12presentation3api12user_handler5tests33___mock_MockUserRep_UserRepository8___updateNtB6_11Expectation12return_constpEBi_
FNDA:0,_RINvMs6_NtNtNtNtNtNtCs1B75dzsrioZ_11rust_webapi12presentation3api12user_handler5tests33___mock_MockUserRep_UserRepository8___updateNtB6_11Expectation12returning_stpEBi_
FNDA:0,_RINvMs6_NtNtNtNtNtNtCs1B75dzsrioZ_11rust_webapi12presentation3api12user_handler5tests33___mock_MockUserRep_UserRepository8___updateNtB6_11Expectation14return_once_stpEBi_
FNDA:0,_RINvMs6_NtNtNtNtNtNtCs1B75dzsrioZ_11rust_webapi12presentation3api12user_handler5tests33___mock_MockUserRep_UserRepository8___updateNtB6_11Expectation15return_const_stpEBi_
FNDA:0,_RINvMs6_NtNtNtNtNtNtCs1B75dzsrioZ_11rust_webapi12presentation3api12user_handler5tests33___mock_MockUserRep_UserRepository8___updateNtB6_11Expectation4withpEBi_
FNDA:0,_RINvMs6_NtNtNtNtNtNtCs1B75dzsrioZ_11rust_webapi12presentation3api12user_handler5tests33___mock_MockUserRep_UserRepository8___updateNtB6_11Expectation5timespEBi_
FNDA:0,_RINvMs6_NtNtNtNtNtNtCs1B75dzsrioZ_11rust_webapi12presentation3api12user_handler5tests33___mock_MockUserRep_UserRepository8___updateNtB6_11Expectation8withf_stpEBi_
FNDA:0,_RINvMs6_NtNtNtNtNtNtCs1B75dzsrioZ_11rust_webapi12presentation3api12user_handler5tests33___mock_MockUserRep_UserRepository8___updateNtB6_11Expectation9returningpEBi_
FNDA:0,_RNCINvMs6_NtNtNtNtNtNtCs1B75dzsrioZ_11rust_webapi12presentation3api12user_handler5tests33___mock_MockUserRep_UserRepository10___find_allNtB8_11Expectation12return_constpE0Bk_
FNDA:0,_RNCINvMs6_NtNtNtNtNtNtCs1B75dzsrioZ_11rust_webapi12presentation3api12user_handler5tests33___mock_MockUserRep_UserRepository10___find_allNtB8_11Expectation15return_const_stpE0Bk_
FNDA:0,_RNCINvMs6_NtNtNtNtNtNtCs1B75dzsrioZ_11rust_webapi12presentation3api12user_handler5tests33___mock_MockUserRep_UserRepository12___find_by_idNtB8_11Expectation12return_constpE0Bk_
FNDA:0,_RNCINvMs6_NtNtNtNtNtNtCs1B75dzsrioZ_11rust_webapi12presentation3api12user_handler5tests33___mock_MockUserRep_UserRepository12___find_by_idNtB8_11Expectation15return_const_stpE0Bk_
FNDA:0,_RNCINvMs6_NtNtNtNtNtNtCs1B75dzsrioZ_11rust_webapi12presentation3api12user_handler5tests33___mock_MockUserRep_UserRepository8___createNtB8_11Expectation12return_constpE0Bk_
FNDA:0,_RNCINvMs6_NtNtNtNtNtNtCs1B75dzsrioZ_11rust_webapi12presentation3api12user_handler5tests33___mock_MockUserRep_UserRepository8___createNtB8_11Expectation15return_const_stpE0Bk_
FNDA:0,_RNCINvMs6_NtNtNtNtNtNtCs1B75dzsrioZ_11rust_webapi12presentation3api12user_handler5tests33___mock_MockUserRep_UserRepository8___deleteNtB8_11Expectation12return_constpE0Bk_
FNDA:0,_RNCINvMs6_NtNtNtNtNtNtCs1B75dzsrioZ_11rust_webapi12presentation3api12user_handler5tests33___mock_MockUserRep_UserRepository8___deleteNtB8_11Expectation15return_const_stpE0Bk_
FNDA:0,_RNCINvMs6_NtNtNtNtNtNtCs1B75dzsrioZ_11rust_webapi12presentation3api12user_handler5tests33___mock_MockUserRep_UserRepository8___updateNtB8_11Expectation12return_constpE0Bk_
FNDA:0,_RNCINvMs6_NtNtNtNtNtNtCs1B75dzsrioZ_11rust_webapi12presentation3api12user_handler5tests33___mock_MockUserRep_UserRepository8___updateNtB8_11Expectation15return_const_stpE0Bk_
FNDA:0,_RNvMs0_NtNtNtNtCs1B75dzsrioZ_11rust_webapi12presentation3api12user_handler5testsNtB5_26MockUserRep_UserRepository10checkpoint
FNDA:0,_RNvMs1_NtNtNtNtCs1B75dzsrioZ_11rust_webapi12presentation3api12user_handler5testsNtB5_11MockUserRep10checkpoint
FNDA:0,_RNvMs4_NtNtNtNtNtNtCs1B75dzsrioZ_11rust_webapi12presentation3api12user_handler5tests33___mock_MockUserRep_UserRepository10___find_allNtB5_6Common11in_sequence
FNDA:0,_RNvMs4_NtNtNtNtNtNtCs1B75dzsrioZ_11rust_webapi12presentation3api12user_handler5tests33___mock_MockUserRep_UserRepository10___find_allNtB5_6Common4with
FNDA:0,_RNvMs4_NtNtNtNtNtNtCs1B75dzsrioZ_11rust_webapi12presentation3api12user_handler5tests33___mock_MockUserRep_UserRepository10___find_allNtB5_6Common5never
FNDA:0,_RNvMs4_NtNtNtNtNtNtCs1B75dzsrioZ_11rust_webapi12presentation3api12user_handler5tests33___mock_MockUserRep_UserRepository12___find_by_idNtB5_6Common11in_sequence
FNDA:0,_RNvMs4_NtNtNtNtNtNtCs1B75dzsrioZ_11rust_webapi12presentation3api12user_handler5tests33___mock_MockUserRep_UserRepository12___find_by_idNtB5_6Common5never
FNDA:0,_RNvMs4_NtNtNtNtNtNtCs1B75dzsrioZ_11rust_webapi12presentation3api12user_handler5tests33___mock_MockUserRep_UserRepository8___createNtB5_6Common11in_sequence
FNDA:0,_RNvMs4_NtNtNtNtNtNtCs1B75dzsrioZ_11rust_webapi12presentation3api12user_handler5tests33___mock_MockUserRep_UserRepository8___createNtB5_6Common5never
FNDA:0,_RNvMs4_NtNtNtNtNtNtCs1B75dzsrioZ_11rust_webapi12presentation3api12user_handler5tests33___mock_MockUserRep_UserRepository8___deleteNtB5_6Common11in_sequence
FNDA:0,_RNvMs4_NtNtNtNtNtNtCs1B75dzsrioZ_11rust_webapi12presentation3api12user_handler5tests33___mock_MockUserRep_UserRepository8___deleteNtB5_6Common5never
FNDA:0,_RNvMs4_NtNtNtNtNtNtCs1B75dzsrioZ_11rust_webapi12presentation3api12user_handler5tests33___mock_MockUserRep_UserRepository8___updateNtB5_6Common11in_sequence
FNDA:0,_RNvMs4_NtNtNtNtNtNtCs1B75dzsrioZ_11rust_webapi12presentation3api12user_handler5tests33___mock_MockUserRep_UserRepository8___updateNtB5_6Common5never
FNDA:0,_RNvMs6_NtNtNtNtNtNtCs1B75dzsrioZ_11rust_webapi12presentation3api12user_handler5tests33___mock_MockUserRep_UserRepository10___find_allNtB5_11Expectation11in_sequence
FNDA:0,_RNvMs6_NtNtNtNtNtNtCs1B75dzsrioZ_11rust_webapi12presentation3api12user_handler5tests33___mock_MockUserRep_UserRepository10___find_allNtB5_11Expectation3new
FNDA:0,_RNvMs6_NtNtNtNtNtNtCs1B75dzsrioZ_11rust_webapi12presentation3api12user_handler5tests33___mock_MockUserRep_UserRepository10___find_allNtB5_11Expectation4once
FNDA:0,_RNvMs6_NtNtNtNtNtNtCs1B75dzsrioZ_11rust_webapi12presentation3api12user_handler5tests33___mock_MockUserRep_UserRepository10___find_allNtB5_11Expectation4with
FNDA:0,_RNvMs6_NtNtNtNtNtNtCs1B75dzsrioZ_11rust_webapi12presentation3api12user_handler5tests33___mock_MockUserRep_UserRepository10___find_allNtB5_11Expectation5never
FNDA:0,_RNvMs6_NtNtNtNtNtNtCs1B75dzsrioZ_11rust_webapi12presentation3api12user_handler5tests33___mock_MockUserRep_UserRepository12___find_by_idNtB5_11Expectation11in_sequence
FNDA:0,_RNvMs6_NtNtNtNtNtNtCs1B75dzsrioZ_11rust_webapi12presentation3api12user_handler5tests33___mock_MockUserRep_UserRepository12___find_by_idNtB5_11Expectation3new
FNDA:0,_RNvMs6_NtNtNtNtNtNtCs1B75dzsrioZ_11rust_webapi12presentation3api12user_handler5tests33___mock_MockUserRep_UserRepository12___find_by_idNtB5_11Expectation4once
FNDA:0,_RNvMs6_NtNtNtNtNtNtCs1B75dzsrioZ_11rust_webapi12presentation3api12user_handler5tests33___mock_MockUserRep_UserRepository12___find_by_idNtB5_11Expectation5never
FNDA:0,_RNvMs6_NtNtNtNtNtNtCs1B75dzsrioZ_11rust_webapi12presentation3api12user_handler5tests33___mock_MockUserRep_UserRepository8___createNtB5_11Expectation11in_sequence
FNDA:0,_RNvMs6_NtNtNtNtNtNtCs1B75dzsrioZ_11rust_webapi12presentation3api12user_handler5tests33___mock_MockUserRep_UserRepository8___createNtB5_11Expectation3new
FNDA:0,_RNvMs6_NtNtNtNtNtNtCs1B75dzsrioZ_11rust_webapi12presentation3api12user_handler5tests33___mock_MockUserRep_UserRepository8___createNtB5_11Expectation4once
FNDA:0,_RNvMs6_NtNtNtNtNtNtCs1B75dzsrioZ_11rust_webapi12presentation3api12user_handler5tests33___mock_MockUserRep_UserRepository8___createNtB5_11Expectation5never
FNDA:0,_RNvMs6_NtNtNtNtNtNtCs1B75dzsrioZ_11rust_webapi12presentation3api12user_handler5tests33___mock_MockUserRep_UserRepository8___deleteNtB5_11Expectation11in_sequence
FNDA:0,_RNvMs6_NtNtNtNtNtNtCs1B75dzsrioZ_11rust_webapi12presentation3api12user_handler5tests33___mock_MockUserRep_UserRepository8___deleteNtB5_11Expectation3new
FNDA:0,_RNvMs6_NtNtNtNtNtNtCs1B75dzsrioZ_11rust_webapi12presentation3api12user_handler5tests33___mock_MockUserRep_UserRepository8___deleteNtB5_11Expectation4once
FNDA:0,_RNvMs6_NtNtNtNtNtNtCs1B75dzsrioZ_11rust_webapi12presentation3api12user_handler5tests33___mock_MockUserRep_UserRepository8___deleteNtB5_11Expectation5never
FNDA:0,_RNvMs6_NtNtNtNtNtNtCs1B75dzsrioZ_11rust_webapi12presentation3api12user_handler5tests33___mock_MockUserRep_UserRepository8___updateNtB5_11Expectation11in_sequence
FNDA:0,_RNvMs6_NtNtNtNtNtNtCs1B75dzsrioZ_11rust_webapi12presentation3api12user_handler5tests33___mock_MockUserRep_UserRepository8___updateNtB5_11Expectation3new
FNDA:0,_RNvMs6_NtNtNtNtNtNtCs1B75dzsrioZ_11rust_webapi12presentation3api12user_handler5tests33___mock_MockUserRep_UserRepository8___updateNtB5_11Expectation4once
FNDA:0,_RNvMs6_NtNtNtNtNtNtCs1B75dzsrioZ_11rust_webapi12presentation3api12user_handler5tests33___mock_MockUserRep_UserRepository8___updateNtB5_11Expectation5never
FNDA:0,_RNvMs8_NtNtNtNtNtNtCs1B75dzsrioZ_11rust_webapi12presentation3api12user_handler5tests33___mock_MockUserRep_UserRepository10___find_allNtB5_12Expectations10checkpoint
FNDA:0,_RNvMs8_NtNtNtNtNtNtCs1B75dzsrioZ_11rust_webapi12presentation3api12user_handler5tests33___mock_MockUserRep_UserRepository10___find_allNtB5_12Expectations3new
FNDA:0,_RNvMs8_NtNtNtNtNtNtCs1B75dzsrioZ_11rust_webapi12presentation3api12user_handler5tests33___mock_MockUserRep_UserRepository12___find_by_idNtB5_12Expectations10checkpoint
FNDA:0,_RNvMs8_NtNtNtNtNtNtCs1B75dzsrioZ_11rust_webapi12presentation3api12user_handler5tests33___mock_MockUserRep_UserRepository12___find_by_idNtB5_12Expectations3new
FNDA:0,_RNvMs8_NtNtNtNtNtNtCs1B75dzsrioZ_11rust_webapi12presentation3api12user_handler5tests33___mock_MockUserRep_UserRepository8___createNtB5_12Expectations10checkpoint
FNDA:0,_RNvMs8_NtNtNtNtNtNtCs1B75dzsrioZ_11rust_webapi12presentation3api12user_handler5tests33___mock_MockUserRep_UserRepository8___createNtB5_12Expectations3new
FNDA:0,_RNvMs8_NtNtNtNtNtNtCs1B75dzsrioZ_11rust_webapi12presentation3api12user_handler5tests33___mock_MockUserRep_UserRepository8___deleteNtB5_12Expectations10checkpoint
FNDA:0,_RNvMs8_NtNtNtNtNtNtCs1B75dzsrioZ_11rust_webapi12presentation3api12user_handler5tests33___mock_MockUserRep_UserRepository8___deleteNtB5_12Expectations3new
FNDA:0,_RNvMs8_NtNtNtNtNtNtCs1B75dzsrioZ_11rust_webapi12presentation3api12user_handler5tests33___mock_MockUserRep_UserRepository8___updateNtB5_12Expectations10checkpoint
FNDA:0,_RNvMs8_NtNtNtNtNtNtCs1B75dzsrioZ_11rust_webapi12presentation3api12user_handler5tests33___mock_MockUserRep_UserRepository8___updateNtB5_12Expectations3new
FNDA:1,_RNCNCNvNtNtNtNtCs1B75dzsrioZ_11rust_webapi12presentation3api12user_handler5testss_14test_get_users00Bd_
FNDA:1,_RNCNCNvNtNtNtNtCs1B75dzsrioZ_11rust_webapi12presentation3api12user_handler5testss_16test_create_user00Bd_
FNDA:1,_RNCNCNvNtNtNtNtCs1B75dzsrioZ_11rust_webapi12presentation3api12user_handler5testss_16test_create_user0s_0Bd_
FNDA:1,_RNCNCNvNtNtNtNtCs1B75dzsrioZ_11rust_webapi12presentation3api12user_handler5testss_19test_get_user_found00Bd_
FNDA:1,_RNCNCNvNtNtNtNtCs1B75dzsrioZ_11rust_webapi12presentation3api12user_handler5testss_22test_update_user_found00Bd_
FNDA:1,_RNCNCNvNtNtNtNtCs1B75dzsrioZ_11rust_webapi12presentation3api12user_handler5testss_22test_update_user_found0s0_0Bd_
FNDA:1,_RNCNCNvNtNtNtNtCs1B75dzsrioZ_11rust_webapi12presentation3api12user_handler5testss_22test_update_user_found0s_0Bd_
FNDA:1,_RNCNCNvNtNtNtNtCs1B75dzsrioZ_11rust_webapi12presentation3api12user_handler5testss_23test_get_user_not_found00Bd_
FNDA:1,_RNCNCNvNtNtNtNtCs1B75dzsrioZ_11rust_webapi12presentation3api12user_handler5testss_24test_delete_user_success00Bd_
FNDA:1,_RNCNCNvNtNtNtNtCs1B75dzsrioZ_11rust_webapi12presentation3api12user_handler5testss_26test_delete_user_not_found00Bd_
FNDA:1,_RNCNCNvNtNtNtNtCs1B75dzsrioZ_11rust_webapi12presentation3api12user_handler5testss_26test_update_user_not_found00Bd_
FNDA:4,_RNCNvXs3_NtNtNtNtCs1B75dzsrioZ_11rust_webapi12presentation3api12user_handler5testsNtB7_11MockUserRepNtNtNtCs8Y1garwNj5t_6domain10repository15user_repository14UserRepository10find_by_id0Bf_
FNDA:1,_RNCNvXs3_NtNtNtNtCs1B75dzsrioZ_11rust_webapi12presentation3api12user_handler5testsNtB7_11MockUserRepNtNtNtCs8Y1garwNj5t_6domain10repository15user_repository14UserRepository6create0Bf_
FNDA:2,_RNCNvXs3_NtNtNtNtCs1B75dzsrioZ_11rust_webapi12presentation3api12user_handler5testsNtB7_11MockUserRepNtNtNtCs8Y1garwNj5t_6domain10repository15user_repository14UserRepository6delete0Bf_
FNDA:1,_RNCNvXs3_NtNtNtNtCs1B75dzsrioZ_11rust_webapi12presentation3api12user_handler5testsNtB7_11MockUserRepNtNtNtCs8Y1garwNj5t_6domain10repository15user_repository14UserRepository6update0Bf_
FNDA:1,_RNCNvXs3_NtNtNtNtCs1B75dzsrioZ_11rust_webapi12presentation3api12user_handler5testsNtB7_11MockUserRepNtNtNtCs8Y1garwNj5t_6domain10repository15user_repository14UserRepository8find_all0Bf_
FNDA:2,_RNvMNtNtNtNtNtNtCs1B75dzsrioZ_11rust_webapi12presentation3api12user_handler5tests33___mock_MockUserRep_UserRepository8___deleteNtB2_5Rfunc8call_mut
FNDA:2,_RNvMs0_NtNtNtNtNtNtCs1B75dzsrioZ_11rust_webapi12presentation3api12user_handler5tests33___mock_MockUserRep_UserRepository8___deleteNtB5_7Matcher7matches
FNDA:2,_RNvMs4_NtNtNtNtNtNtCs1B75dzsrioZ_11rust_webapi12presentation3api12user_handler5tests33___mock_MockUserRep_UserRepository8___deleteNtB5_6Common15verify_sequence
FNDA:2,_RNvMs4_NtNtNtNtNtNtCs1B75dzsrioZ_11rust_webapi12presentation3api12user_handler5tests33___mock_MockUserRep_UserRepository8___deleteNtB5_6Common16satisfy_sequence
FNDA:2,_RNvMs4_NtNtNtNtNtNtCs1B75dzsrioZ_11rust_webapi12presentation3api12user_handler5tests33___mock_MockUserRep_UserRepository8___deleteNtB5_6Common4call
FNDA:2,_RNvMs4_NtNtNtNtNtNtCs1B75dzsrioZ_11rust_webapi12presentation3api12user_handler5tests33___mock_MockUserRep_UserRepository8___deleteNtB5_6Common7is_done
FNDA:2,_RNvMs4_NtNtNtNtNtNtCs1B75dzsrioZ_11rust_webapi12presentation3api12user_handler5tests33___mock_MockUserRep_UserRepository8___deleteNtB5_6Common7matches
FNDA:2,_RNvMs6_NtNtNtNtNtNtCs1B75dzsrioZ_11rust_webapi12presentation3api12user_handler5tests33___mock_MockUserRep_UserRepository8___deleteNtB5_11Expectation4call
FNDA:2,_RNvMs6_NtNtNtNtNtNtCs1B75dzsrioZ_11rust_webapi12presentation3api12user_handler5tests33___mock_MockUserRep_UserRepository8___deleteNtB5_11Expectation7is_done
FNDA:2,_RNvMs6_NtNtNtNtNtNtCs1B75dzsrioZ_11rust_webapi12presentation3api12user_handler5tests33___mock_MockUserRep_UserRepository8___deleteNtB5_11Expectation7matches
FNDA:2,_RNvMs8_NtNtNtNtNtNtCs1B75dzsrioZ_11rust_webapi12presentation3api12user_handler5tests33___mock_MockUserRep_UserRepository8___deleteNtB5_12Expectations6expect
FNDA:2,_RNvMsa_NtNtNtNtNtNtCs1B75dzsrioZ_11rust_webapi12presentation3api12user_handler5tests33___mock_MockUserRep_UserRepository8___deleteNtB5_12Expectations4call
FNDA:2,_RNvXs1_NtNtNtNtNtNtCs1B75dzsrioZ_11rust_webapi12presentation3api12user_handler5tests33___mock_MockUserRep_UserRepository8___deleteNtB5_7MatcherNtNtCsfvfooZQ3Axs_4core7default7Default7default
FNDA:2,_RNvXs2_NtNtNtNtNtNtCs1B75dzsrioZ_11rust_webapi12presentation3api12user_handler5tests33___mock_MockUserRep_UserRepository8___deleteNtB5_7MatcherNtNtCsfvfooZQ3Axs_4core3fmt7Display3fmt
FNDA:2,_RNvXs3_NtNtNtNtNtNtCs1B75dzsrioZ_11rust_webapi12presentation3api12user_handler5tests33___mock_MockUserRep_UserRepository8___deleteNtB5_6CommonNtNtCsfvfooZQ3Axs_4core7default7Default7default
FNDA:2,_RNvXs7_NtNtNtNtNtNtCs1B75dzsrioZ_11rust_webapi12presentation3api12user_handler5tests33___mock_MockUserRep_UserRepository8___deleteNtB5_11ExpectationNtNtCsfvfooZQ3Axs_4core7default7Default7default
FNDA:8,_RNvXs9_NtNtNtNtNtNtCs1B75dzsrioZ_11rust_webapi12presentation3api12user_handler5tests33___mock_MockUserRep_UserRepository8___deleteNtB5_12ExpectationsNtNtCsfvfooZQ3Axs_4core7default7Default7default
FNDA:2,_RNvXs_NtNtNtNtNtNtCs1B75dzsrioZ_11rust_webapi12presentation3api12user_handler5tests33___mock_MockUserRep_UserRepository8___deleteNtB4_5RfuncNtNtCsfvfooZQ3Axs_4core7default7Default7default
FNDA:1,_RINvMs6_NtNtNtNtNtNtCs1B75dzsrioZ_11rust_webapi12presentation3api12user_handler5tests33___mock_MockUserRep_UserRepository10___find_allNtB6_11Expectation11return_onceNCNCNvBa_s_14test_get_users00EBi_
FNDA:0,_RNCNvMs0_NtNtNtNtNtNtCs1B75dzsrioZ_11rust_webapi12presentation3api12user_handler5tests33___mock_MockUserRep_UserRepository10___find_allNtB7_7Matcher7matches0Bj_
FNDA:1,_RNCNvMsa_NtNtNtNtNtNtCs1B75dzsrioZ_11rust_webapi12presentation3api12user_handler5tests33___mock_MockUserRep_UserRepository10___find_allNtB7_12Expectations4call0Bj_
FNDA:1,_RNCNvMsa_NtNtNtNtNtNtCs1B75dzsrioZ_11rust_webapi12presentation3api12user_handler5tests33___mock_MockUserRep_UserRepository10___find_allNtB7_12Expectations4calls_0Bj_
FNDA:2,_RINvMs4_NtNtNtNtNtNtCs1B75dzsrioZ_11rust_webapi12presentation3api12user_handler5tests33___mock_MockUserRep_UserRepository8___deleteNtB6_6Common4withINtNtCs9l2CZqY40TY_10predicates3ord11EqPredicateyEEBi_
FNDA:1,_RINvMs6_NtNtNtNtNtNtCs1B75dzsrioZ_11rust_webapi12presentation3api12user_handler5tests33___mock_MockUserRep_UserRepository8___deleteNtB6_11Expectation11return_onceNCNCNvBa_s_24test_delete_user_success00EBi_
FNDA:1,_RINvMs6_NtNtNtNtNtNtCs1B75dzsrioZ_11rust_webapi12presentation3api12user_handler5tests33___mock_MockUserRep_UserRepository8___deleteNtB6_11Expectation11return_onceNCNCNvBa_s_26test_delete_user_not_found00EBi_
FNDA:2,_RINvMs6_NtNtNtNtNtNtCs1B75dzsrioZ_11rust_webapi12presentation3api12user_handler5tests33___mock_MockUserRep_UserRepository8___deleteNtB6_11Expectation4withINtNtCs9l2CZqY40TY_10predicates3ord11EqPredicateyEEBi_
FNDA:2,_RNCNvMs0_NtNtNtNtNtNtCs1B75dzsrioZ_11rust_webapi12presentation3api12user_handler5tests33___mock_MockUserRep_UserRepository8___deleteNtB7_7Matcher7matches0Bj_
FNDA:2,_RNCNvMsa_NtNtNtNtNtNtCs1B75dzsrioZ_11rust_webapi12presentation3api12user_handler5tests33___mock_MockUserRep_UserRepository8___deleteNtB7_12Expectations4call0Bj_
FNDA:2,_RNCNvMsa_NtNtNtNtNtNtCs1B75dzsrioZ_11rust_webapi12presentation3api12user_handler5tests33___mock_MockUserRep_UserRepository8___deleteNtB7_12Expectations4calls_0Bj_
FNDA:4,_RINvMs4_NtNtNtNtNtNtCs1B75dzsrioZ_11rust_webapi12presentation3api12user_handler5tests33___mock_MockUserRep_UserRepository12___find_by_idNtB6_6Common4withINtNtCs9l2CZqY40TY_10predicates3ord11EqPredicateyEEBi_
FNDA:1,_RINvMs6_NtNtNtNtNtNtCs1B75dzsrioZ_11rust_webapi12presentation3api12user_handler5tests33___mock_MockUserRep_UserRepository12___find_by_idNtB6_11Expectation11return_onceNCNCNvBa_s_19test_get_user_found00EBi_
FNDA:1,_RINvMs6_NtNtNtNtNtNtCs1B75dzsrioZ_11rust_webapi12presentation3api12user_handler5tests33___mock_MockUserRep_UserRepository12___find_by_idNtB6_11Expectation11return_onceNCNCNvBa_s_22test_update_user_found00EBi_
FNDA:1,_RINvMs6_NtNtNtNtNtNtCs1B75dzsrioZ_11rust_webapi12presentation3api12user_handler5tests33___mock_MockUserRep_UserRepository12___find_by_idNtB6_11Expectation11return_onceNCNCNvBa_s_23test_get_user_not_found00EBi_
FNDA:1,_RINvMs6_NtNtNtNtNtNtCs1B75dzsrioZ_11rust_webapi12presentation3api12user_handler5tests33___mock_MockUserRep_UserRepository12___find_by_idNtB6_11Expectation11return_onceNCNCNvBa_s_26test_update_user_not_found00EBi_
FNDA:4,_RINvMs6_NtNtNtNtNtNtCs1B75dzsrioZ_11rust_webapi12presentation3api12user_handler5tests33___mock_MockUserRep_UserRepository12___find_by_idNtB6_11Expectation4withINtNtCs9l2CZqY40TY_10predicates3ord11EqPredicateyEEBi_
FNDA:4,_RNCNvMs0_NtNtNtNtNtNtCs1B75dzsrioZ_11rust_webapi12presentation3api12user_handler5tests33___mock_MockUserRep_UserRepository12___find_by_idNtB7_7Matcher7matches0Bj_
FNDA:4,_RNCNvMsa_NtNtNtNtNtNtCs1B75dzsrioZ_11rust_webapi12presentation3api12user_handler5tests33___mock_MockUserRep_UserRepository12___find_by_idNtB7_12Expectations4call0Bj_
FNDA:4,_RNCNvMsa_NtNtNtNtNtNtCs1B75dzsrioZ_11rust_webapi12presentation3api12user_handler5tests33___mock_MockUserRep_UserRepository12___find_by_idNtB7_12Expectations4calls_0Bj_
FNDA:4,_RNvMNtNtNtNtNtNtCs1B75dzsrioZ_11rust_webapi12presentation3api12user_handler5tests33___mock_MockUserRep_UserRepository12___find_by_idNtB2_5Rfunc8call_mut
FNDA:4,_RNvMs0_NtNtNtNtNtNtCs1B75dzsrioZ_11rust_webapi12presentation3api12user_handler5tests33___mock_MockUserRep_UserRepository12___find_by_idNtB5_7Matcher7matches
FNDA:4,_RNvMs4_NtNtNtNtNtNtCs1B75dzsrioZ_11rust_webapi12presentation3api12user_handler5tests33___mock_MockUserRep_UserRepository12___find_by_idNtB5_6Common15verify_sequence
FNDA:4,_RNvMs4_NtNtNtNtNtNtCs1B75dzsrioZ_11rust_webapi12presentation3api12user_handler5tests33___mock_MockUserRep_UserRepository12___find_by_idNtB5_6Common16satisfy_sequence
FNDA:4,_RNvMs4_NtNtNtNtNtNtCs1B75dzsrioZ_11rust_webapi12presentation3api12user_handler5tests33___mock_MockUserRep_UserRepository12___find_by_idNtB5_6Common4call
FNDA:4,_RNvMs4_NtNtNtNtNtNtCs1B75dzsrioZ_11rust_webapi12presentation3api12user_handler5tests33___mock_MockUserRep_UserRepository12___find_by_idNtB5_6Common7is_done
FNDA:4,_RNvMs4_NtNtNtNtNtNtCs1B75dzsrioZ_11rust_webapi12presentation3api12user_handler5tests33___mock_MockUserRep_UserRepository12___find_by_idNtB5_6Common7matches
FNDA:4,_RNvMs6_NtNtNtNtNtNtCs1B75dzsrioZ_11rust_webapi12presentation3api12user_handler5tests33___mock_MockUserRep_UserRepository12___find_by_idNtB5_11Expectation4call
FNDA:4,_RNvMs6_NtNtNtNtNtNtCs1B75dzsrioZ_11rust_webapi12presentation3api12user_handler5tests33___mock_MockUserRep_UserRepository12___find_by_idNtB5_11Expectation7is_done
FNDA:4,_RNvMs6_NtNtNtNtNtNtCs1B75dzsrioZ_11rust_webapi12presentation3api12user_handler5tests33___mock_MockUserRep_UserRepository12___find_by_idNtB5_11Expectation7matches
FNDA:4,_RNvMs8_NtNtNtNtNtNtCs1B75dzsrioZ_11rust_webapi12presentation3api12user_handler5tests33___mock_MockUserRep_UserRepository12___find_by_idNtB5_12Expectations6expect
FNDA:4,_RNvMsa_NtNtNtNtNtNtCs1B75dzsrioZ_11rust_webapi12presentation3api12user_handler5tests33___mock_MockUserRep_UserRepository12___find_by_idNtB5_12Expectations4call
FNDA:4,_RNvXs1_NtNtNtNtNtNtCs1B75dzsrioZ_11rust_webapi12presentation3api12user_handler5tests33___mock_MockUserRep_UserRepository12___find_by_idNtB5_7MatcherNtNtCsfvfooZQ3Axs_4core7default7Default7default
FNDA:4,_RNvXs2_NtNtNtNtNtNtCs1B75dzsrioZ_11rust_webapi12presentation3api12user_handler5tests33___mock_MockUserRep_UserRepository12___find_by_idNtB5_7MatcherNtNtCsfvfooZQ3Axs_4core3fmt7Display3fmt
FNDA:4,_RNvXs3_NtNtNtNtNtNtCs1B75dzsrioZ_11rust_webapi12presentation3api12user_handler5tests33___mock_MockUserRep_UserRepository12___find_by_idNtB5_6CommonNtNtCsfvfooZQ3Axs_4core7default7Default7default
FNDA:4,_RNvXs7_NtNtNtNtNtNtCs1B75dzsrioZ_11rust_webapi12presentation3api12user_handler5tests33___mock_MockUserRep_UserRepository12___find_by_idNtB5_11ExpectationNtNtCsfvfooZQ3Axs_4core7default7Default7default
FNDA:8,_RNvXs9_NtNtNtNtNtNtCs1B75dzsrioZ_11rust_webapi12presentation3api12user_handler5tests33___mock_MockUserRep_UserRepository12___find_by_idNtB5_12ExpectationsNtNtCsfvfooZQ3Axs_4core7default7Default7default
FNDA:4,_RNvXs_NtNtNtNtNtNtCs1B75dzsrioZ_11rust_webapi12presentation3api12user_handler5tests33___mock_MockUserRep_UserRepository12___find_by_idNtB4_5RfuncNtNtCsfvfooZQ3Axs_4core7default7Default7default
FNDA:1,_RINvMs4_NtNtNtNtNtNtCs1B75dzsrioZ_11rust_webapi12presentation3api12user_handler5tests33___mock_MockUserRep_UserRepository8___createNtB6_6Common5withfNCNCNvBa_s_16test_create_user00EBi_
FNDA:1,_RINvMs6_NtNtNtNtNtNtCs1B75dzsrioZ_11rust_webapi12presentation3api12user_handler5tests33___mock_MockUserRep_UserRepository8___createNtB6_11Expectation11return_onceNCNCNvBa_s_16test_create_user0s_0EBi_
FNDA:1,_RINvMs6_NtNtNtNtNtNtCs1B75dzsrioZ_11rust_webapi12presentation3api12user_handler5tests33___mock_MockUserRep_UserRepository8___createNtB6_11Expectation5withfNCNCNvBa_s_16test_create_user00EBi_
FNDA:0,_RNCNvMs0_NtNtNtNtNtNtCs1B75dzsrioZ_11rust_webapi12presentation3api12user_handler5tests33___mock_MockUserRep_UserRepository8___createNtB7_7Matcher7matches0Bj_
FNDA:1,_RNCNvMsa_NtNtNtNtNtNtCs1B75dzsrioZ_11rust_webapi12presentation3api12user_handler5tests33___mock_MockUserRep_UserRepository8___createNtB7_12Expectations4call0Bj_
FNDA:1,_RNCNvMsa_NtNtNtNtNtNtCs1B75dzsrioZ_11rust_webapi12presentation3api12user_handler5tests33___mock_MockUserRep_UserRepository8___createNtB7_12Expectations4calls_0Bj_
FNDA:1,_RNvMNtNtNtCs1B75dzsrioZ_11rust_webapi12presentation3api12user_handlerNtB2_11UserHandler11create_user
FNDA:2,_RNvMNtNtNtCs1B75dzsrioZ_11rust_webapi12presentation3api12user_handlerNtB2_11UserHandler11delete_user
FNDA:2,_RNvMNtNtNtCs1B75dzsrioZ_11rust_webapi12presentation3api12user_handlerNtB2_11UserHandler11update_user
FNDA:8,_RNvMNtNtNtCs1B75dzsrioZ_11rust_webapi12presentation3api12user_handlerNtB2_11UserHandler3new
FNDA:2,_RNvMNtNtNtCs1B75dzsrioZ_11rust_webapi12presentation3api12user_handlerNtB2_11UserHandler8get_user
FNDA:1,_RNvMNtNtNtCs1B75dzsrioZ_11rust_webapi12presentation3api12user_handlerNtB2_11UserHandler9get_users
FNDA:1,_RNCNvMNtNtNtCs1B75dzsrioZ_11rust_webapi12presentation3api12user_handlerNtB4_11UserHandler11create_user0Ba_
FNDA:2,_RNCNvMNtNtNtCs1B75dzsrioZ_11rust_webapi12presentation3api12user_handlerNtB4_11UserHandler11delete_user0Ba_
FNDA:2,_RNCNvMNtNtNtCs1B75dzsrioZ_11rust_webapi12presentation3api12user_handlerNtB4_11UserHandler11update_user0Ba_
FNDA:2,_RNCNvMNtNtNtCs1B75dzsrioZ_11rust_webapi12presentation3api12user_handlerNtB4_11UserHandler8get_user0Ba_
FNDA:1,_RNCNvMNtNtNtCs1B75dzsrioZ_11rust_webapi12presentation3api12user_handlerNtB4_11UserHandler9get_users0Ba_
FNDA:1,_RNvMNtNtNtNtNtNtCs1B75dzsrioZ_11rust_webapi12presentation3api12user_handler5tests33___mock_MockUserRep_UserRepository10___find_allNtB2_5Rfunc8call_mut
FNDA:1,_RNvMs0_NtNtNtNtNtNtCs1B75dzsrioZ_11rust_webapi12presentation3api12user_handler5tests33___mock_MockUserRep_UserRepository10___find_allNtB5_7Matcher7matches
FNDA:1,_RNvMs4_NtNtNtNtNtNtCs1B75dzsrioZ_11rust_webapi12presentation3api12user_handler5tests33___mock_MockUserRep_UserRepository10___find_allNtB5_6Common15verify_sequence
FNDA:1,_RNvMs4_NtNtNtNtNtNtCs1B75dzsrioZ_11rust_webapi12presentation3api12user_handler5tests33___mock_MockUserRep_UserRepository10___find_allNtB5_6Common16satisfy_sequence
FNDA:1,_RNvMs4_NtNtNtNtNtNtCs1B75dzsrioZ_11rust_webapi12presentation3api12user_handler5tests33___mock_MockUserRep_UserRepository10___find_allNtB5_6Common4call
FNDA:1,_RNvMs4_NtNtNtNtNtNtCs1B75dzsrioZ_11rust_webapi12presentation3api12user_handler5tests33___mock_MockUserRep_UserRepository10___find_allNtB5_6Common7is_done
FNDA:1,_RNvMs4_NtNtNtNtNtNtCs1B75dzsrioZ_11rust_webapi12presentation3api12user_handler5tests33___mock_MockUserRep_UserRepository10___find_allNtB5_6Common7matches
FNDA:1,_RNvMs6_NtNtNtNtNtNtCs1B75dzsrioZ_11rust_webapi12presentation3api12user_handler5tests33___mock_MockUserRep_UserRepository10___find_allNtB5_11Expectation4call
FNDA:1,_RNvMs6_NtNtNtNtNtNtCs1B75dzsrioZ_11rust_webapi12presentation3api12user_handler5tests33___mock_MockUserRep_UserRepository10___find_allNtB5_11Expectation7is_done
FNDA:1,_RNvMs6_NtNtNtNtNtNtCs1B75dzsrioZ_11rust_webapi12presentation3api12user_handler5tests33___mock_MockUserRep_UserRepository10___find_allNtB5_11Expectation7matches
FNDA:1,_RNvMs8_NtNtNtNtNtNtCs1B75dzsrioZ_11rust_webapi12presentation3api12user_handler5tests33___mock_MockUserRep_UserRepository10___find_allNtB5_12Expectations6expect
FNDA:1,_RNvMsa_NtNtNtNtNtNtCs1B75dzsrioZ_11rust_webapi12presentation3api12user_handler5tests33___mock_MockUserRep_UserRepository10___find_allNtB5_12Expectations4call
FNDA:1,_RNvXs1_NtNtNtNtNtNtCs1B75dzsrioZ_11rust_webapi12presentation3api12user_handler5tests33___mock_MockUserRep_UserRepository10___find_allNtB5_7MatcherNtNtCsfvfooZQ3Axs_4core7default7Default7default
FNDA:1,_RNvXs2_NtNtNtNtNtNtCs1B75dzsrioZ_11rust_webapi12presentation3api12user_handler5tests33___mock_MockUserRep_UserRepository10___find_allNtB5_7MatcherNtNtCsfvfooZQ3Axs_4core3fmt7Display3fmt
FNDA:1,_RNvXs3_NtNtNtNtNtNtCs1B75dzsrioZ_11rust_webapi12presentation3api12user_handler5tests33___mock_MockUserRep_UserRepository10___find_allNtB5_6CommonNtNtCsfvfooZQ3Axs_4core7default7Default7default
FNDA:1,_RNvXs7_NtNtNtNtNtNtCs1B75dzsrioZ_11rust_webapi12presentation3api12user_handler5tests33___mock_MockUserRep_UserRepository10___find_allNtB5_11ExpectationNtNtCsfvfooZQ3Axs_4core7default7Default7default
FNDA:8,_RNvXs9_NtNtNtNtNtNtCs1B75dzsrioZ_11rust_webapi12presentation3api12user_handler5tests33___mock_MockUserRep_UserRepository10___find_allNtB5_12ExpectationsNtNtCsfvfooZQ3Axs_4core7default7Default7default
FNDA:1,_RNvXs_NtNtNtNtNtNtCs1B75dzsrioZ_11rust_webapi12presentation3api12user_handler5tests33___mock_MockUserRep_UserRepository10___find_allNtB4_5RfuncNtNtCsfvfooZQ3Axs_4core7default7Default7default
FNDA:8,_RNvMs1_NtNtNtNtCs1B75dzsrioZ_11rust_webapi12presentation3api12user_handler5testsNtB5_11MockUserRep3new
FNDA:1,_RNvMs2_NtNtNtNtCs1B75dzsrioZ_11rust_webapi12presentation3api12user_handler5testsNtB5_11MockUserRep13expect_create
FNDA:2,_RNvMs2_NtNtNtNtCs1B75dzsrioZ_11rust_webapi12presentation3api12user_handler5testsNtB5_11MockUserRep13expect_delete
FNDA:1,_RNvMs2_NtNtNtNtCs1B75dzsrioZ_11rust_webapi12presentation3api12user_handler5testsNtB5_11MockUserRep13expect_update
FNDA:1,_RNvMs2_NtNtNtNtCs1B75dzsrioZ_11rust_webapi12presentation3api12user_handler5testsNtB5_11MockUserRep15expect_find_all
FNDA:4,_RNvMs2_NtNtNtNtCs1B75dzsrioZ_11rust_webapi12presentation3api12user_handler5testsNtB5_11MockUserRep17expect_find_by_id
FNDA:8,_RNvXNtNtNtNtCs1B75dzsrioZ_11rust_webapi12presentation3api12user_handler5testsNtB2_11MockUserRepNtNtCsfvfooZQ3Axs_4core7default7Default7default
FNDA:4,_RNvXs3_NtNtNtNtCs1B75dzsrioZ_11rust_webapi12presentation3api12user_handler5testsNtB5_11MockUserRepNtNtNtCs8Y1garwNj5t_6domain10repository15user_repository14UserRepository10find_by_id
FNDA:1,_RNvXs3_NtNtNtNtCs1B75dzsrioZ_11rust_webapi12presentation3api12user_handler5testsNtB5_11MockUserRepNtNtNtCs8Y1garwNj5t_6domain10repository15user_repository14UserRepository6create
FNDA:2,_RNvXs3_NtNtNtNtCs1B75dzsrioZ_11rust_webapi12presentation3api12user_handler5testsNtB5_11MockUserRepNtNtNtCs8Y1garwNj5t_6domain10repository15user_repository14UserRepository6delete
FNDA:1,_RNvXs3_NtNtNtNtCs1B75dzsrioZ_11rust_webapi12presentation3api12user_handler5testsNtB5_11MockUserRepNtNtNtCs8Y1garwNj5t_6domain10repository15user_repository14UserRepository6update
FNDA:1,_RNvXs3_NtNtNtNtCs1B75dzsrioZ_11rust_webapi12presentation3api12user_handler5testsNtB5_11MockUserRepNtNtNtCs8Y1garwNj5t_6domain10repository15user_repository14UserRepository8find_all
FNDA:8,_RNvXs_NtNtNtNtCs1B75dzsrioZ_11rust_webapi12presentation3api12user_handler5testsNtB4_26MockUserRep_UserRepositoryNtNtCsfvfooZQ3Axs_4core7default7Default7default
